ARM GAS  /var/folders/xd/16jvbr6j24q9nvtpm0qtw3240000gn/T//cch9jPA2.s 			page 1


   1              		.cpu cortex-m7
   2              		.arch armv7e-m
   3              		.fpu fpv5-d16
   4              		.eabi_attribute 28, 1
   5              		.eabi_attribute 20, 1
   6              		.eabi_attribute 21, 1
   7              		.eabi_attribute 23, 3
   8              		.eabi_attribute 24, 1
   9              		.eabi_attribute 25, 1
  10              		.eabi_attribute 26, 1
  11              		.eabi_attribute 30, 2
  12              		.eabi_attribute 34, 1
  13              		.eabi_attribute 18, 4
  14              		.file	"time_machine_hardware.cpp"
  15              		.text
  16              	.Ltext0:
  17              		.cfi_sections	.debug_frame
  18              		.section	.text._ZN3oam12time_machine19TimeMachineHardware4Impl19InternalDacCallbackEPPtj,"ax",%pro
  19              		.align	1
  20              		.p2align 2,,3
  21              		.global	_ZN3oam12time_machine19TimeMachineHardware4Impl19InternalDacCallbackEPPtj
  22              		.syntax unified
  23              		.thumb
  24              		.thumb_func
  26              	_ZN3oam12time_machine19TimeMachineHardware4Impl19InternalDacCallbackEPPtj:
  27              	.LVL0:
  28              	.LFB3138:
  29              		.file 1 "time_machine_hardware.cpp"
   1:time_machine_hardware.cpp **** #include "time_machine_hardware.h"
   2:time_machine_hardware.cpp **** #include <vector>
   3:time_machine_hardware.cpp **** 
   4:time_machine_hardware.cpp **** namespace oam
   5:time_machine_hardware.cpp **** {
   6:time_machine_hardware.cpp **** namespace time_machine
   7:time_machine_hardware.cpp **** {
   8:time_machine_hardware.cpp ****     /** Const definitions */
   9:time_machine_hardware.cpp ****     constexpr Pin DUMMYPIN        = Pin(PORTX, 0);
  10:time_machine_hardware.cpp ****     constexpr Pin PIN_ADC_CTRL_1  = DaisyPatchSM::C5;
  11:time_machine_hardware.cpp ****     constexpr Pin PIN_ADC_CTRL_2  = DaisyPatchSM::C4;
  12:time_machine_hardware.cpp ****     constexpr Pin PIN_ADC_CTRL_3  = DaisyPatchSM::C3;
  13:time_machine_hardware.cpp ****     constexpr Pin PIN_ADC_CTRL_4  = DaisyPatchSM::C2;
  14:time_machine_hardware.cpp ****     constexpr Pin PIN_ADC_CTRL_5  = DaisyPatchSM::C6;
  15:time_machine_hardware.cpp ****     constexpr Pin PIN_ADC_CTRL_6  = DaisyPatchSM::C7;
  16:time_machine_hardware.cpp ****     constexpr Pin PIN_ADC_CTRL_7  = DaisyPatchSM::C8;
  17:time_machine_hardware.cpp ****     constexpr Pin PIN_ADC_CTRL_8  = DaisyPatchSM::C9;
  18:time_machine_hardware.cpp ****     constexpr Pin PIN_ADC_CTRL_9  = DaisyPatchSM::A2;
  19:time_machine_hardware.cpp ****     constexpr Pin PIN_ADC_CTRL_10 = DaisyPatchSM::A3;
  20:time_machine_hardware.cpp ****     constexpr Pin PIN_ADC_CTRL_11 = DaisyPatchSM::D9;
  21:time_machine_hardware.cpp ****     constexpr Pin PIN_ADC_CTRL_12 = DaisyPatchSM::D8;
  22:time_machine_hardware.cpp ****     constexpr Pin PIN_USER_LED    = Pin(PORTC, 7);
  23:time_machine_hardware.cpp **** 
  24:time_machine_hardware.cpp ****     constexpr Pin kPinMap[4][10] =
  25:time_machine_hardware.cpp ****         // Bank A
  26:time_machine_hardware.cpp ****         {{DaisyPatchSM::A1,
  27:time_machine_hardware.cpp ****           DaisyPatchSM::A2,
  28:time_machine_hardware.cpp ****           DaisyPatchSM::A3,
  29:time_machine_hardware.cpp ****           DaisyPatchSM::A4,
ARM GAS  /var/folders/xd/16jvbr6j24q9nvtpm0qtw3240000gn/T//cch9jPA2.s 			page 2


  30:time_machine_hardware.cpp ****           DaisyPatchSM::A5,
  31:time_machine_hardware.cpp ****           DaisyPatchSM::A6,
  32:time_machine_hardware.cpp ****           DaisyPatchSM::A7,
  33:time_machine_hardware.cpp ****           DaisyPatchSM::A8,
  34:time_machine_hardware.cpp ****           DaisyPatchSM::A9,
  35:time_machine_hardware.cpp ****           DaisyPatchSM::A10},
  36:time_machine_hardware.cpp **** 
  37:time_machine_hardware.cpp ****          // Bank B
  38:time_machine_hardware.cpp ****          {DaisyPatchSM::B1,
  39:time_machine_hardware.cpp ****           DaisyPatchSM::B2,
  40:time_machine_hardware.cpp ****           DaisyPatchSM::B3,
  41:time_machine_hardware.cpp ****           DaisyPatchSM::B4,
  42:time_machine_hardware.cpp ****           DaisyPatchSM::B5,
  43:time_machine_hardware.cpp ****           DaisyPatchSM::B6,
  44:time_machine_hardware.cpp ****           DaisyPatchSM::B7,
  45:time_machine_hardware.cpp ****           DaisyPatchSM::B8,
  46:time_machine_hardware.cpp ****           DaisyPatchSM::B9,
  47:time_machine_hardware.cpp ****           DaisyPatchSM::B10},
  48:time_machine_hardware.cpp **** 
  49:time_machine_hardware.cpp ****          // Bank C
  50:time_machine_hardware.cpp ****          {DaisyPatchSM::C1,
  51:time_machine_hardware.cpp ****           DaisyPatchSM::C2,
  52:time_machine_hardware.cpp ****           DaisyPatchSM::C3,
  53:time_machine_hardware.cpp ****           DaisyPatchSM::C4,
  54:time_machine_hardware.cpp ****           DaisyPatchSM::C5,
  55:time_machine_hardware.cpp ****           DaisyPatchSM::C6,
  56:time_machine_hardware.cpp ****           DaisyPatchSM::C7,
  57:time_machine_hardware.cpp ****           DaisyPatchSM::C8,
  58:time_machine_hardware.cpp ****           DaisyPatchSM::C9,
  59:time_machine_hardware.cpp ****           DaisyPatchSM::C10},
  60:time_machine_hardware.cpp **** 
  61:time_machine_hardware.cpp ****          // Bank D
  62:time_machine_hardware.cpp ****          {DaisyPatchSM::D1,
  63:time_machine_hardware.cpp ****           DaisyPatchSM::D2,
  64:time_machine_hardware.cpp ****           DaisyPatchSM::D3,
  65:time_machine_hardware.cpp ****           DaisyPatchSM::D4,
  66:time_machine_hardware.cpp ****           DaisyPatchSM::D5,
  67:time_machine_hardware.cpp ****           DaisyPatchSM::D6,
  68:time_machine_hardware.cpp ****           DaisyPatchSM::D7,
  69:time_machine_hardware.cpp ****           DaisyPatchSM::D8,
  70:time_machine_hardware.cpp ****           DaisyPatchSM::D9,
  71:time_machine_hardware.cpp ****           DaisyPatchSM::D10}};
  72:time_machine_hardware.cpp **** 
  73:time_machine_hardware.cpp ****     const Pin TimeMachineHardware::A1  = kPinMap[0][0];
  74:time_machine_hardware.cpp ****     const Pin TimeMachineHardware::A2  = kPinMap[0][1];
  75:time_machine_hardware.cpp ****     const Pin TimeMachineHardware::A3  = kPinMap[0][2];
  76:time_machine_hardware.cpp ****     const Pin TimeMachineHardware::A4  = kPinMap[0][3];
  77:time_machine_hardware.cpp ****     const Pin TimeMachineHardware::A5  = kPinMap[0][4];
  78:time_machine_hardware.cpp ****     const Pin TimeMachineHardware::A6  = kPinMap[0][5];
  79:time_machine_hardware.cpp ****     const Pin TimeMachineHardware::A7  = kPinMap[0][6];
  80:time_machine_hardware.cpp ****     const Pin TimeMachineHardware::A8  = kPinMap[0][7];
  81:time_machine_hardware.cpp ****     const Pin TimeMachineHardware::A9  = kPinMap[0][8];
  82:time_machine_hardware.cpp ****     const Pin TimeMachineHardware::A10 = kPinMap[0][9];
  83:time_machine_hardware.cpp ****     const Pin TimeMachineHardware::B1  = kPinMap[1][0];
  84:time_machine_hardware.cpp ****     const Pin TimeMachineHardware::B2  = kPinMap[1][1];
  85:time_machine_hardware.cpp ****     const Pin TimeMachineHardware::B3  = kPinMap[1][2];
  86:time_machine_hardware.cpp ****     const Pin TimeMachineHardware::B4  = kPinMap[1][3];
ARM GAS  /var/folders/xd/16jvbr6j24q9nvtpm0qtw3240000gn/T//cch9jPA2.s 			page 3


  87:time_machine_hardware.cpp ****     const Pin TimeMachineHardware::B5  = kPinMap[1][4];
  88:time_machine_hardware.cpp ****     const Pin TimeMachineHardware::B6  = kPinMap[1][5];
  89:time_machine_hardware.cpp ****     const Pin TimeMachineHardware::B7  = kPinMap[1][6];
  90:time_machine_hardware.cpp ****     const Pin TimeMachineHardware::B8  = kPinMap[1][7];
  91:time_machine_hardware.cpp ****     const Pin TimeMachineHardware::B9  = kPinMap[1][8];
  92:time_machine_hardware.cpp ****     const Pin TimeMachineHardware::B10 = kPinMap[1][9];
  93:time_machine_hardware.cpp ****     const Pin TimeMachineHardware::C1  = kPinMap[2][0];
  94:time_machine_hardware.cpp ****     const Pin TimeMachineHardware::C2  = kPinMap[2][1];
  95:time_machine_hardware.cpp ****     const Pin TimeMachineHardware::C3  = kPinMap[2][2];
  96:time_machine_hardware.cpp ****     const Pin TimeMachineHardware::C4  = kPinMap[2][3];
  97:time_machine_hardware.cpp ****     const Pin TimeMachineHardware::C5  = kPinMap[2][4];
  98:time_machine_hardware.cpp ****     const Pin TimeMachineHardware::C6  = kPinMap[2][5];
  99:time_machine_hardware.cpp ****     const Pin TimeMachineHardware::C7  = kPinMap[2][6];
 100:time_machine_hardware.cpp ****     const Pin TimeMachineHardware::C8  = kPinMap[2][7];
 101:time_machine_hardware.cpp ****     const Pin TimeMachineHardware::C9  = kPinMap[2][8];
 102:time_machine_hardware.cpp ****     const Pin TimeMachineHardware::C10 = kPinMap[2][9];
 103:time_machine_hardware.cpp ****     const Pin TimeMachineHardware::D1  = kPinMap[3][0];
 104:time_machine_hardware.cpp ****     const Pin TimeMachineHardware::D2  = kPinMap[3][1];
 105:time_machine_hardware.cpp ****     const Pin TimeMachineHardware::D3  = kPinMap[3][2];
 106:time_machine_hardware.cpp ****     const Pin TimeMachineHardware::D4  = kPinMap[3][3];
 107:time_machine_hardware.cpp ****     const Pin TimeMachineHardware::D5  = kPinMap[3][4];
 108:time_machine_hardware.cpp ****     const Pin TimeMachineHardware::D6  = kPinMap[3][5];
 109:time_machine_hardware.cpp ****     const Pin TimeMachineHardware::D7  = kPinMap[3][6];
 110:time_machine_hardware.cpp ****     const Pin TimeMachineHardware::D8  = kPinMap[3][7];
 111:time_machine_hardware.cpp ****     const Pin TimeMachineHardware::D9  = kPinMap[3][8];
 112:time_machine_hardware.cpp ****     const Pin TimeMachineHardware::D10 = kPinMap[3][9];
 113:time_machine_hardware.cpp **** 
 114:time_machine_hardware.cpp ****     /** outside of class static buffer(s) for DMA access */
 115:time_machine_hardware.cpp ****     uint16_t DMA_BUFFER_MEM_SECTION dsy_patch_sm_dac_buffer[2][48];
 116:time_machine_hardware.cpp **** 
 117:time_machine_hardware.cpp ****     class TimeMachineHardware::Impl
 118:time_machine_hardware.cpp ****     {
 119:time_machine_hardware.cpp ****       public:
 120:time_machine_hardware.cpp ****         Impl()
 121:time_machine_hardware.cpp ****         {
 122:time_machine_hardware.cpp ****             dac_running_            = false;
 123:time_machine_hardware.cpp ****             dac_buffer_size_        = 48;
 124:time_machine_hardware.cpp ****             dac_output_[0]          = 0;
 125:time_machine_hardware.cpp ****             dac_output_[1]          = 0;
 126:time_machine_hardware.cpp ****             internal_dac_buffer_[0] = dsy_patch_sm_dac_buffer[0];
 127:time_machine_hardware.cpp ****             internal_dac_buffer_[1] = dsy_patch_sm_dac_buffer[1];
 128:time_machine_hardware.cpp ****         }
 129:time_machine_hardware.cpp **** 
 130:time_machine_hardware.cpp ****         void InitDac();
 131:time_machine_hardware.cpp **** 
 132:time_machine_hardware.cpp ****         void StartDac(DacHandle::DacCallback callback);
 133:time_machine_hardware.cpp **** 
 134:time_machine_hardware.cpp ****         void StopDac();
 135:time_machine_hardware.cpp **** 
 136:time_machine_hardware.cpp ****         static void InternalDacCallback(uint16_t **output, size_t size);
 137:time_machine_hardware.cpp **** 
 138:time_machine_hardware.cpp ****         /** Based on a 0-5V output with a 0-4095 12-bit DAC */
 139:time_machine_hardware.cpp ****         static inline uint16_t VoltageToCode(float input)
 140:time_machine_hardware.cpp ****         {
 141:time_machine_hardware.cpp ****             float pre = input * 819.f;
 142:time_machine_hardware.cpp ****             if(pre > 4095.f)
 143:time_machine_hardware.cpp ****                 pre = 4095.f;
ARM GAS  /var/folders/xd/16jvbr6j24q9nvtpm0qtw3240000gn/T//cch9jPA2.s 			page 4


 144:time_machine_hardware.cpp ****             else if(pre < 0.f)
 145:time_machine_hardware.cpp ****                 pre = 0.f;
 146:time_machine_hardware.cpp ****             return (uint16_t)pre;
 147:time_machine_hardware.cpp ****         }
 148:time_machine_hardware.cpp **** 
 149:time_machine_hardware.cpp ****         inline void WriteCvOut(int channel, float voltage)
 150:time_machine_hardware.cpp ****         {
 151:time_machine_hardware.cpp ****             if(channel == 0 || channel == 1)
 152:time_machine_hardware.cpp ****                 dac_output_[0] = VoltageToCode(voltage);
 153:time_machine_hardware.cpp ****             if(channel == 0 || channel == 2)
 154:time_machine_hardware.cpp ****                 dac_output_[1] = VoltageToCode(voltage);
 155:time_machine_hardware.cpp ****         }
 156:time_machine_hardware.cpp **** 
 157:time_machine_hardware.cpp ****         size_t    dac_buffer_size_;
 158:time_machine_hardware.cpp ****         uint16_t *internal_dac_buffer_[2];
 159:time_machine_hardware.cpp ****         uint16_t  dac_output_[2];
 160:time_machine_hardware.cpp ****         DacHandle dac_;
 161:time_machine_hardware.cpp **** 
 162:time_machine_hardware.cpp ****       private:
 163:time_machine_hardware.cpp ****         bool dac_running_;
 164:time_machine_hardware.cpp ****     };
 165:time_machine_hardware.cpp **** 
 166:time_machine_hardware.cpp ****     /** Static Local Object */
 167:time_machine_hardware.cpp ****     static TimeMachineHardware::Impl patch_sm_hw;
 168:time_machine_hardware.cpp **** 
 169:time_machine_hardware.cpp ****     /** Impl function definintions */
 170:time_machine_hardware.cpp **** 
 171:time_machine_hardware.cpp ****     void TimeMachineHardware::Impl::InitDac()
 172:time_machine_hardware.cpp ****     {
 173:time_machine_hardware.cpp ****         DacHandle::Config dac_config;
 174:time_machine_hardware.cpp ****         dac_config.mode     = DacHandle::Mode::DMA;
 175:time_machine_hardware.cpp ****         dac_config.bitdepth = DacHandle::BitDepth::
 176:time_machine_hardware.cpp ****             BITS_12; /**< Sets the output value to 0-4095 */
 177:time_machine_hardware.cpp ****         dac_config.chn               = DacHandle::Channel::BOTH;
 178:time_machine_hardware.cpp ****         dac_config.buff_state        = DacHandle::BufferState::ENABLED;
 179:time_machine_hardware.cpp ****         dac_config.target_samplerate = 48000;
 180:time_machine_hardware.cpp ****         dac_.Init(dac_config);
 181:time_machine_hardware.cpp ****     }
 182:time_machine_hardware.cpp **** 
 183:time_machine_hardware.cpp ****     void TimeMachineHardware::Impl::StartDac(DacHandle::DacCallback callback)
 184:time_machine_hardware.cpp ****     {
 185:time_machine_hardware.cpp ****         if(dac_running_)
 186:time_machine_hardware.cpp ****             dac_.Stop();
 187:time_machine_hardware.cpp ****         dac_.Start(internal_dac_buffer_[0],
 188:time_machine_hardware.cpp ****                    internal_dac_buffer_[1],
 189:time_machine_hardware.cpp ****                    dac_buffer_size_,
 190:time_machine_hardware.cpp ****                    callback == nullptr ? InternalDacCallback : callback);
 191:time_machine_hardware.cpp ****         dac_running_ = true;
 192:time_machine_hardware.cpp ****     }
 193:time_machine_hardware.cpp **** 
 194:time_machine_hardware.cpp ****     void TimeMachineHardware::Impl::StopDac()
 195:time_machine_hardware.cpp ****     {
 196:time_machine_hardware.cpp ****         dac_.Stop();
 197:time_machine_hardware.cpp ****         dac_running_ = false;
 198:time_machine_hardware.cpp ****     }
 199:time_machine_hardware.cpp **** 
 200:time_machine_hardware.cpp **** 
ARM GAS  /var/folders/xd/16jvbr6j24q9nvtpm0qtw3240000gn/T//cch9jPA2.s 			page 5


 201:time_machine_hardware.cpp ****     void TimeMachineHardware::Impl::InternalDacCallback(uint16_t **output, size_t size)
 202:time_machine_hardware.cpp ****     {
  30              		.loc 1 202 5 view -0
  31              		.cfi_startproc
  32              		@ args = 0, pretend = 0, frame = 0
  33              		@ frame_needed = 0, uses_anonymous_args = 0
  34              		@ link register save eliminated.
 203:time_machine_hardware.cpp ****         /** We could add some smoothing, interp, or something to make this a bit less waste-y */
 204:time_machine_hardware.cpp ****         // std::fill(&output[0][0], &output[0][size], patch_sm_hw.dac_output_[0]);
 205:time_machine_hardware.cpp ****         // std::fill(&output[1][1], &output[1][size], patch_sm_hw.dac_output_[1]);
 206:time_machine_hardware.cpp ****         for(size_t i = 0; i < size; i++)
  35              		.loc 1 206 9 view .LVU1
  36              	.LBB490:
  37              		.loc 1 206 29 view .LVU2
  38 0000 81B1     		cbz	r1, .L1
  39 0002 D0E90032 		ldrd	r3, r2, [r0]
  40 0006 03EB4101 		add	r1, r3, r1, lsl #1
  41              	.LVL1:
  42              		.loc 1 206 29 is_stmt 0 view .LVU3
  43 000a 023A     		subs	r2, r2, #2
  44 000c 023B     		subs	r3, r3, #2
  45 000e A1F1020C 		sub	ip, r1, #2
  46 0012 0549     		ldr	r1, .L9
  47              	.LVL2:
  48              	.L3:
 207:time_machine_hardware.cpp ****         {
 208:time_machine_hardware.cpp ****             output[0][i] = patch_sm_hw.dac_output_[0];
  49              		.loc 1 208 13 is_stmt 1 discriminator 2 view .LVU4
  50              		.loc 1 208 53 is_stmt 0 discriminator 2 view .LVU5
  51 0014 8889     		ldrh	r0, [r1, #12]
  52              		.loc 1 208 26 discriminator 2 view .LVU6
  53 0016 23F8020F 		strh	r0, [r3, #2]!	@ movhi
 209:time_machine_hardware.cpp ****             output[1][i] = patch_sm_hw.dac_output_[1];
  54              		.loc 1 209 13 is_stmt 1 discriminator 2 view .LVU7
 206:time_machine_hardware.cpp ****         {
  55              		.loc 1 206 29 is_stmt 0 discriminator 2 view .LVU8
  56 001a 6345     		cmp	r3, ip
  57              		.loc 1 209 53 discriminator 2 view .LVU9
  58 001c C889     		ldrh	r0, [r1, #14]
  59              		.loc 1 209 26 discriminator 2 view .LVU10
  60 001e 22F8020F 		strh	r0, [r2, #2]!	@ movhi
 206:time_machine_hardware.cpp ****         {
  61              		.loc 1 206 9 is_stmt 1 discriminator 2 view .LVU11
 206:time_machine_hardware.cpp ****         {
  62              		.loc 1 206 29 discriminator 2 view .LVU12
  63 0022 F7D1     		bne	.L3
  64              	.L1:
  65              	.LBE490:
 210:time_machine_hardware.cpp ****         }
 211:time_machine_hardware.cpp ****     }
  66              		.loc 1 211 5 is_stmt 0 view .LVU13
  67 0024 7047     		bx	lr
  68              	.L10:
  69 0026 00BF     		.align	2
  70              	.L9:
  71 0028 00000000 		.word	.LANCHOR0
  72              		.cfi_endproc
ARM GAS  /var/folders/xd/16jvbr6j24q9nvtpm0qtw3240000gn/T//cch9jPA2.s 			page 6


  73              	.LFE3138:
  75              		.section	.text._ZN3oam12time_machine19TimeMachineHardware4Impl7InitDacEv,"ax",%progbits
  76              		.align	1
  77              		.p2align 2,,3
  78              		.global	_ZN3oam12time_machine19TimeMachineHardware4Impl7InitDacEv
  79              		.syntax unified
  80              		.thumb
  81              		.thumb_func
  83              	_ZN3oam12time_machine19TimeMachineHardware4Impl7InitDacEv:
  84              	.LVL3:
  85              	.LFB3135:
 172:time_machine_hardware.cpp ****         DacHandle::Config dac_config;
  86              		.loc 1 172 5 is_stmt 1 view -0
  87              		.cfi_startproc
  88              		@ args = 0, pretend = 0, frame = 24
  89              		@ frame_needed = 0, uses_anonymous_args = 0
 173:time_machine_hardware.cpp ****         dac_config.mode     = DacHandle::Mode::DMA;
  90              		.loc 1 173 9 view .LVU15
 174:time_machine_hardware.cpp ****         dac_config.bitdepth = DacHandle::BitDepth::
  91              		.loc 1 174 9 view .LVU16
 172:time_machine_hardware.cpp ****         DacHandle::Config dac_config;
  92              		.loc 1 172 5 is_stmt 0 view .LVU17
  93 0000 10B5     		push	{r4, lr}
  94              		.cfi_def_cfa_offset 8
  95              		.cfi_offset 4, -8
  96              		.cfi_offset 14, -4
 177:time_machine_hardware.cpp ****         dac_config.buff_state        = DacHandle::BufferState::ENABLED;
  97              		.loc 1 177 38 view .LVU18
  98 0002 0221     		movs	r1, #2
 172:time_machine_hardware.cpp ****         DacHandle::Config dac_config;
  99              		.loc 1 172 5 view .LVU19
 100 0004 86B0     		sub	sp, sp, #24
 101              		.cfi_def_cfa_offset 32
 174:time_machine_hardware.cpp ****         dac_config.bitdepth = DacHandle::BitDepth::
 102              		.loc 1 174 29 view .LVU20
 103 0006 0123     		movs	r3, #1
 179:time_machine_hardware.cpp ****         dac_.Init(dac_config);
 104              		.loc 1 179 38 view .LVU21
 105 0008 4BF68032 		movw	r2, #48000
 177:time_machine_hardware.cpp ****         dac_config.buff_state        = DacHandle::BufferState::ENABLED;
 106              		.loc 1 177 38 view .LVU22
 107 000c 0291     		str	r1, [sp, #8]
 178:time_machine_hardware.cpp ****         dac_config.target_samplerate = 48000;
 108              		.loc 1 178 38 view .LVU23
 109 000e 0024     		movs	r4, #0
 180:time_machine_hardware.cpp ****     }
 110              		.loc 1 180 18 view .LVU24
 111 0010 01A9     		add	r1, sp, #4
 112 0012 1030     		adds	r0, r0, #16
 113              	.LVL4:
 178:time_machine_hardware.cpp ****         dac_config.target_samplerate = 48000;
 114              		.loc 1 178 38 view .LVU25
 115 0014 0594     		str	r4, [sp, #20]
 179:time_machine_hardware.cpp ****         dac_.Init(dac_config);
 116              		.loc 1 179 38 view .LVU26
 117 0016 0192     		str	r2, [sp, #4]
 175:time_machine_hardware.cpp ****             BITS_12; /**< Sets the output value to 0-4095 */
ARM GAS  /var/folders/xd/16jvbr6j24q9nvtpm0qtw3240000gn/T//cch9jPA2.s 			page 7


 118              		.loc 1 175 29 view .LVU27
 119 0018 CDE90333 		strd	r3, r3, [sp, #12]
 177:time_machine_hardware.cpp ****         dac_config.buff_state        = DacHandle::BufferState::ENABLED;
 120              		.loc 1 177 9 is_stmt 1 view .LVU28
 178:time_machine_hardware.cpp ****         dac_config.target_samplerate = 48000;
 121              		.loc 1 178 9 view .LVU29
 179:time_machine_hardware.cpp ****         dac_.Init(dac_config);
 122              		.loc 1 179 9 view .LVU30
 180:time_machine_hardware.cpp ****     }
 123              		.loc 1 180 9 view .LVU31
 180:time_machine_hardware.cpp ****     }
 124              		.loc 1 180 18 is_stmt 0 view .LVU32
 125 001c FFF7FEFF 		bl	_ZN5daisy9DacHandle4InitERKNS0_6ConfigE
 126              	.LVL5:
 181:time_machine_hardware.cpp **** 
 127              		.loc 1 181 5 view .LVU33
 128 0020 06B0     		add	sp, sp, #24
 129              		.cfi_def_cfa_offset 8
 130              		@ sp needed
 131 0022 10BD     		pop	{r4, pc}
 132              		.cfi_endproc
 133              	.LFE3135:
 135              		.section	.text._ZN3oam12time_machine19TimeMachineHardware4Impl8StartDacEPFvPPtjE,"ax",%progbits
 136              		.align	1
 137              		.p2align 2,,3
 138              		.global	_ZN3oam12time_machine19TimeMachineHardware4Impl8StartDacEPFvPPtjE
 139              		.syntax unified
 140              		.thumb
 141              		.thumb_func
 143              	_ZN3oam12time_machine19TimeMachineHardware4Impl8StartDacEPFvPPtjE:
 144              	.LVL6:
 145              	.LFB3136:
 184:time_machine_hardware.cpp ****         if(dac_running_)
 146              		.loc 1 184 5 is_stmt 1 view -0
 147              		.cfi_startproc
 148              		@ args = 0, pretend = 0, frame = 0
 149              		@ frame_needed = 0, uses_anonymous_args = 0
 185:time_machine_hardware.cpp ****             dac_.Stop();
 150              		.loc 1 185 9 view .LVU35
 151 0000 037D     		ldrb	r3, [r0, #20]	@ zero_extendqisi2
 184:time_machine_hardware.cpp ****         if(dac_running_)
 152              		.loc 1 184 5 is_stmt 0 view .LVU36
 153 0002 70B5     		push	{r4, r5, r6, lr}
 154              		.cfi_def_cfa_offset 16
 155              		.cfi_offset 4, -16
 156              		.cfi_offset 5, -12
 157              		.cfi_offset 6, -8
 158              		.cfi_offset 14, -4
 159 0004 0446     		mov	r4, r0
 160 0006 82B0     		sub	sp, sp, #8
 161              		.cfi_def_cfa_offset 24
 184:time_machine_hardware.cpp ****         if(dac_running_)
 162              		.loc 1 184 5 view .LVU37
 163 0008 0D46     		mov	r5, r1
 186:time_machine_hardware.cpp ****         dac_.Start(internal_dac_buffer_[0],
 164              		.loc 1 186 22 view .LVU38
 165 000a 00F11006 		add	r6, r0, #16
ARM GAS  /var/folders/xd/16jvbr6j24q9nvtpm0qtw3240000gn/T//cch9jPA2.s 			page 8


 185:time_machine_hardware.cpp ****             dac_.Stop();
 166              		.loc 1 185 9 view .LVU39
 167 000e 5BB9     		cbnz	r3, .L14
 187:time_machine_hardware.cpp ****                    internal_dac_buffer_[1],
 168              		.loc 1 187 9 is_stmt 1 view .LVU40
 187:time_machine_hardware.cpp ****                    internal_dac_buffer_[1],
 169              		.loc 1 187 19 is_stmt 0 view .LVU41
 170 0010 2368     		ldr	r3, [r4]
 171 0012 D4E90112 		ldrd	r1, r2, [r4, #4]
 172              	.LVL7:
 187:time_machine_hardware.cpp ****                    internal_dac_buffer_[1],
 173              		.loc 1 187 19 view .LVU42
 174 0016 7DB1     		cbz	r5, .L18
 175              	.LVL8:
 176              	.L16:
 187:time_machine_hardware.cpp ****                    internal_dac_buffer_[1],
 177              		.loc 1 187 19 discriminator 4 view .LVU43
 178 0018 3046     		mov	r0, r6
 179 001a 0095     		str	r5, [sp]
 180 001c FFF7FEFF 		bl	_ZN5daisy9DacHandle5StartEPtS1_jPFvPS1_jE
 181              	.LVL9:
 191:time_machine_hardware.cpp ****     }
 182              		.loc 1 191 9 is_stmt 1 discriminator 4 view .LVU44
 191:time_machine_hardware.cpp ****     }
 183              		.loc 1 191 22 is_stmt 0 discriminator 4 view .LVU45
 184 0020 0123     		movs	r3, #1
 185 0022 2375     		strb	r3, [r4, #20]
 192:time_machine_hardware.cpp **** 
 186              		.loc 1 192 5 discriminator 4 view .LVU46
 187 0024 02B0     		add	sp, sp, #8
 188              		.cfi_remember_state
 189              		.cfi_def_cfa_offset 16
 190              		@ sp needed
 191 0026 70BD     		pop	{r4, r5, r6, pc}
 192              	.LVL10:
 193              	.L14:
 194              		.cfi_restore_state
 186:time_machine_hardware.cpp ****         dac_.Start(internal_dac_buffer_[0],
 195              		.loc 1 186 13 is_stmt 1 view .LVU47
 186:time_machine_hardware.cpp ****         dac_.Start(internal_dac_buffer_[0],
 196              		.loc 1 186 22 is_stmt 0 view .LVU48
 197 0028 3046     		mov	r0, r6
 198              	.LVL11:
 186:time_machine_hardware.cpp ****         dac_.Start(internal_dac_buffer_[0],
 199              		.loc 1 186 22 view .LVU49
 200 002a FFF7FEFF 		bl	_ZN5daisy9DacHandle4StopEv
 201              	.LVL12:
 187:time_machine_hardware.cpp ****                    internal_dac_buffer_[1],
 202              		.loc 1 187 9 is_stmt 1 view .LVU50
 187:time_machine_hardware.cpp ****                    internal_dac_buffer_[1],
 203              		.loc 1 187 19 is_stmt 0 view .LVU51
 204 002e 2368     		ldr	r3, [r4]
 205 0030 D4E90112 		ldrd	r1, r2, [r4, #4]
 206 0034 002D     		cmp	r5, #0
 207 0036 EFD1     		bne	.L16
 208              	.L18:
 187:time_machine_hardware.cpp ****                    internal_dac_buffer_[1],
ARM GAS  /var/folders/xd/16jvbr6j24q9nvtpm0qtw3240000gn/T//cch9jPA2.s 			page 9


 209              		.loc 1 187 19 view .LVU52
 210 0038 004D     		ldr	r5, .L19
 211              	.LVL13:
 187:time_machine_hardware.cpp ****                    internal_dac_buffer_[1],
 212              		.loc 1 187 19 view .LVU53
 213 003a EDE7     		b	.L16
 214              	.L20:
 215              		.align	2
 216              	.L19:
 217 003c 00000000 		.word	_ZN3oam12time_machine19TimeMachineHardware4Impl19InternalDacCallbackEPPtj
 218              		.cfi_endproc
 219              	.LFE3136:
 221              		.section	.text._ZN3oam12time_machine19TimeMachineHardware4Impl7StopDacEv,"ax",%progbits
 222              		.align	1
 223              		.p2align 2,,3
 224              		.global	_ZN3oam12time_machine19TimeMachineHardware4Impl7StopDacEv
 225              		.syntax unified
 226              		.thumb
 227              		.thumb_func
 229              	_ZN3oam12time_machine19TimeMachineHardware4Impl7StopDacEv:
 230              	.LVL14:
 231              	.LFB3137:
 195:time_machine_hardware.cpp ****         dac_.Stop();
 232              		.loc 1 195 5 is_stmt 1 view -0
 233              		.cfi_startproc
 234              		@ args = 0, pretend = 0, frame = 0
 235              		@ frame_needed = 0, uses_anonymous_args = 0
 196:time_machine_hardware.cpp ****         dac_running_ = false;
 236              		.loc 1 196 9 view .LVU55
 195:time_machine_hardware.cpp ****         dac_.Stop();
 237              		.loc 1 195 5 is_stmt 0 view .LVU56
 238 0000 10B5     		push	{r4, lr}
 239              		.cfi_def_cfa_offset 8
 240              		.cfi_offset 4, -8
 241              		.cfi_offset 14, -4
 195:time_machine_hardware.cpp ****         dac_.Stop();
 242              		.loc 1 195 5 view .LVU57
 243 0002 0446     		mov	r4, r0
 196:time_machine_hardware.cpp ****         dac_running_ = false;
 244              		.loc 1 196 18 view .LVU58
 245 0004 1030     		adds	r0, r0, #16
 246              	.LVL15:
 196:time_machine_hardware.cpp ****         dac_running_ = false;
 247              		.loc 1 196 18 view .LVU59
 248 0006 FFF7FEFF 		bl	_ZN5daisy9DacHandle4StopEv
 249              	.LVL16:
 197:time_machine_hardware.cpp ****     }
 250              		.loc 1 197 9 is_stmt 1 view .LVU60
 197:time_machine_hardware.cpp ****     }
 251              		.loc 1 197 22 is_stmt 0 view .LVU61
 252 000a 0023     		movs	r3, #0
 253 000c 2375     		strb	r3, [r4, #20]
 198:time_machine_hardware.cpp **** 
 254              		.loc 1 198 5 view .LVU62
 255 000e 10BD     		pop	{r4, pc}
 198:time_machine_hardware.cpp **** 
 256              		.loc 1 198 5 view .LVU63
ARM GAS  /var/folders/xd/16jvbr6j24q9nvtpm0qtw3240000gn/T//cch9jPA2.s 			page 10


 257              		.cfi_endproc
 258              	.LFE3137:
 260              		.section	.text._ZN3oam12time_machine19TimeMachineHardware4InitEv,"ax",%progbits
 261              		.align	1
 262              		.p2align 2,,3
 263              		.global	_ZN3oam12time_machine19TimeMachineHardware4InitEv
 264              		.syntax unified
 265              		.thumb
 266              		.thumb_func
 268              	_ZN3oam12time_machine19TimeMachineHardware4InitEv:
 269              	.LVL17:
 270              	.LFB3139:
 212:time_machine_hardware.cpp **** 
 213:time_machine_hardware.cpp **** /** Actual TimeMachineHardware implementation
 214:time_machine_hardware.cpp ****  *  With the pimpl model in place, we can/should probably
 215:time_machine_hardware.cpp ****  *  move the rest of the implementation to the Impl class
 216:time_machine_hardware.cpp ****  */
 217:time_machine_hardware.cpp **** 
 218:time_machine_hardware.cpp ****     void TimeMachineHardware::Init()
 219:time_machine_hardware.cpp ****     {
 271              		.loc 1 219 5 is_stmt 1 view -0
 272              		.cfi_startproc
 273              		@ args = 0, pretend = 0, frame = 1736
 274              		@ frame_needed = 0, uses_anonymous_args = 0
 220:time_machine_hardware.cpp ****         /** Assign pimpl pointer */
 221:time_machine_hardware.cpp ****         pimpl_ = &patch_sm_hw;
 275              		.loc 1 221 9 view .LVU65
 219:time_machine_hardware.cpp ****         /** Assign pimpl pointer */
 276              		.loc 1 219 5 is_stmt 0 view .LVU66
 277 0000 2DE9F047 		push	{r4, r5, r6, r7, r8, r9, r10, lr}
 278              		.cfi_def_cfa_offset 32
 279              		.cfi_offset 4, -32
 280              		.cfi_offset 5, -28
 281              		.cfi_offset 6, -24
 282              		.cfi_offset 7, -20
 283              		.cfi_offset 8, -16
 284              		.cfi_offset 9, -12
 285              		.cfi_offset 10, -8
 286              		.cfi_offset 14, -4
 287              	.LBB584:
 288              	.LBB585:
 289              		.file 2 "/Users/jonask/Music/Daisy/libDaisy/src/sys/system.h"
   1:/Users/jonask/Music/Daisy/libDaisy/src/sys/system.h **** #ifndef DSY_SYSTEM_H
   2:/Users/jonask/Music/Daisy/libDaisy/src/sys/system.h **** #define DSY_SYSTEM_H
   3:/Users/jonask/Music/Daisy/libDaisy/src/sys/system.h **** 
   4:/Users/jonask/Music/Daisy/libDaisy/src/sys/system.h **** #ifndef UNIT_TEST // for unit tests, a dummy implementation is provided below
   5:/Users/jonask/Music/Daisy/libDaisy/src/sys/system.h **** 
   6:/Users/jonask/Music/Daisy/libDaisy/src/sys/system.h **** #include <cstdint>
   7:/Users/jonask/Music/Daisy/libDaisy/src/sys/system.h **** #include "per/tim.h"
   8:/Users/jonask/Music/Daisy/libDaisy/src/sys/system.h **** 
   9:/Users/jonask/Music/Daisy/libDaisy/src/sys/system.h **** namespace daisy
  10:/Users/jonask/Music/Daisy/libDaisy/src/sys/system.h **** {
  11:/Users/jonask/Music/Daisy/libDaisy/src/sys/system.h **** /** A handle for interacting with the Core System.
  12:/Users/jonask/Music/Daisy/libDaisy/src/sys/system.h ****  ** This includes the Clock tree, MPU, global DMA initialization,
  13:/Users/jonask/Music/Daisy/libDaisy/src/sys/system.h ****  ** cache handling, and any other necessary global initiailzation
  14:/Users/jonask/Music/Daisy/libDaisy/src/sys/system.h ****  **
  15:/Users/jonask/Music/Daisy/libDaisy/src/sys/system.h ****  ** @author shensley
ARM GAS  /var/folders/xd/16jvbr6j24q9nvtpm0qtw3240000gn/T//cch9jPA2.s 			page 11


  16:/Users/jonask/Music/Daisy/libDaisy/src/sys/system.h ****  ** @ingroup system
  17:/Users/jonask/Music/Daisy/libDaisy/src/sys/system.h ****  */
  18:/Users/jonask/Music/Daisy/libDaisy/src/sys/system.h **** class System
  19:/Users/jonask/Music/Daisy/libDaisy/src/sys/system.h **** {
  20:/Users/jonask/Music/Daisy/libDaisy/src/sys/system.h ****   public:
  21:/Users/jonask/Music/Daisy/libDaisy/src/sys/system.h ****     /** Contains settings for initializing the System */
  22:/Users/jonask/Music/Daisy/libDaisy/src/sys/system.h ****     struct Config
  23:/Users/jonask/Music/Daisy/libDaisy/src/sys/system.h ****     {
  24:/Users/jonask/Music/Daisy/libDaisy/src/sys/system.h ****         /** Specifies the system clock frequency that feeds APB/AHB clocks, etc. */
  25:/Users/jonask/Music/Daisy/libDaisy/src/sys/system.h ****         enum class SysClkFreq
  26:/Users/jonask/Music/Daisy/libDaisy/src/sys/system.h ****         {
  27:/Users/jonask/Music/Daisy/libDaisy/src/sys/system.h ****             FREQ_400MHZ,
  28:/Users/jonask/Music/Daisy/libDaisy/src/sys/system.h ****             FREQ_480MHZ,
  29:/Users/jonask/Music/Daisy/libDaisy/src/sys/system.h ****         };
  30:/Users/jonask/Music/Daisy/libDaisy/src/sys/system.h **** 
  31:/Users/jonask/Music/Daisy/libDaisy/src/sys/system.h ****         /** Method to call on the struct to set to defaults
  32:/Users/jonask/Music/Daisy/libDaisy/src/sys/system.h ****          ** CPU Freq set to 400MHz
  33:/Users/jonask/Music/Daisy/libDaisy/src/sys/system.h ****          ** Cache Enabled
  34:/Users/jonask/Music/Daisy/libDaisy/src/sys/system.h ****          ** */
  35:/Users/jonask/Music/Daisy/libDaisy/src/sys/system.h ****         void Defaults()
  36:/Users/jonask/Music/Daisy/libDaisy/src/sys/system.h ****         {
  37:/Users/jonask/Music/Daisy/libDaisy/src/sys/system.h ****             cpu_freq    = SysClkFreq::FREQ_400MHZ;
  38:/Users/jonask/Music/Daisy/libDaisy/src/sys/system.h ****             use_dcache  = true;
  39:/Users/jonask/Music/Daisy/libDaisy/src/sys/system.h ****             use_icache  = true;
  40:/Users/jonask/Music/Daisy/libDaisy/src/sys/system.h ****             skip_clocks = false;
  41:/Users/jonask/Music/Daisy/libDaisy/src/sys/system.h ****         }
  42:/Users/jonask/Music/Daisy/libDaisy/src/sys/system.h **** 
  43:/Users/jonask/Music/Daisy/libDaisy/src/sys/system.h ****         /** Method to call on the struct to set to boost mode:
  44:/Users/jonask/Music/Daisy/libDaisy/src/sys/system.h ****          ** CPU Freq set to 480MHz
  45:/Users/jonask/Music/Daisy/libDaisy/src/sys/system.h ****          ** Cache Enabled
  46:/Users/jonask/Music/Daisy/libDaisy/src/sys/system.h ****          ** */
  47:/Users/jonask/Music/Daisy/libDaisy/src/sys/system.h ****         void Boost()
  48:/Users/jonask/Music/Daisy/libDaisy/src/sys/system.h ****         {
  49:/Users/jonask/Music/Daisy/libDaisy/src/sys/system.h ****             cpu_freq    = SysClkFreq::FREQ_480MHZ;
  50:/Users/jonask/Music/Daisy/libDaisy/src/sys/system.h ****             use_dcache  = true;
 290              		.loc 2 50 25 view .LVU67
 291 0004 40F20113 		movw	r3, #257
 292              	.LBE585:
 293              	.LBE584:
 294              		.loc 1 221 16 view .LVU68
 295 0008 C84A     		ldr	r2, .L64
 296              	.LBB588:
 297              	.LBB586:
  49:/Users/jonask/Music/Daisy/libDaisy/src/sys/system.h ****             use_dcache  = true;
 298              		.loc 2 49 25 view .LVU69
 299 000a 0126     		movs	r6, #1
 300              	.LBE586:
 301              	.LBE588:
 219:time_machine_hardware.cpp ****         /** Assign pimpl pointer */
 302              		.loc 1 219 5 view .LVU70
 303 000c 0546     		mov	r5, r0
 304 000e 2DED028B 		vpush.64	{d8}
 305              		.cfi_def_cfa_offset 40
 306              		.cfi_offset 80, -40
 307              		.cfi_offset 81, -36
 308 0012 ADF5DB6D 		sub	sp, sp, #1752
 309              		.cfi_def_cfa_offset 1792
ARM GAS  /var/folders/xd/16jvbr6j24q9nvtpm0qtw3240000gn/T//cch9jPA2.s 			page 12


 310              		.loc 1 221 16 view .LVU71
 311 0016 C0F81C22 		str	r2, [r0, #540]
 222:time_machine_hardware.cpp ****         /** Initialize the MCU and clock tree */
 223:time_machine_hardware.cpp ****         System::Config syscfg;
 312              		.loc 1 223 9 is_stmt 1 view .LVU72
 224:time_machine_hardware.cpp ****         syscfg.Boost();
 313              		.loc 1 224 9 view .LVU73
 314              	.LVL18:
 315              	.LBB589:
 316              	.LBI584:
  47:/Users/jonask/Music/Daisy/libDaisy/src/sys/system.h ****         {
 317              		.loc 2 47 14 view .LVU74
 318              	.LBB587:
  49:/Users/jonask/Music/Daisy/libDaisy/src/sys/system.h ****             use_dcache  = true;
 319              		.loc 2 49 13 view .LVU75
 320              		.loc 2 50 13 view .LVU76
  51:/Users/jonask/Music/Daisy/libDaisy/src/sys/system.h ****             use_icache  = true;
 321              		.loc 2 51 13 view .LVU77
  52:/Users/jonask/Music/Daisy/libDaisy/src/sys/system.h ****             skip_clocks = false;
 322              		.loc 2 52 13 view .LVU78
  50:/Users/jonask/Music/Daisy/libDaisy/src/sys/system.h ****             use_icache  = true;
 323              		.loc 2 50 25 is_stmt 0 view .LVU79
 324 001a ADF82030 		strh	r3, [sp, #32]	@ movhi
 325              		.loc 2 52 25 view .LVU80
 326 001e 0023     		movs	r3, #0
  49:/Users/jonask/Music/Daisy/libDaisy/src/sys/system.h ****             use_dcache  = true;
 327              		.loc 2 49 25 view .LVU81
 328 0020 0796     		str	r6, [sp, #28]
 329              		.loc 2 52 25 view .LVU82
 330 0022 8DF82230 		strb	r3, [sp, #34]
 331              	.LVL19:
 332              		.loc 2 52 25 view .LVU83
 333              	.LBE587:
 334              	.LBE589:
 225:time_machine_hardware.cpp **** 
 226:time_machine_hardware.cpp ****         auto memory = System::GetProgramMemoryRegion();
 335              		.loc 1 226 9 is_stmt 1 view .LVU84
 336              		.loc 1 226 53 is_stmt 0 view .LVU85
 337 0026 FFF7FEFF 		bl	_ZN5daisy6System22GetProgramMemoryRegionEv
 338              	.LVL20:
 227:time_machine_hardware.cpp ****         if (memory != System::MemoryRegion::INTERNAL_FLASH)
 339              		.loc 1 227 9 is_stmt 1 view .LVU86
 340 002a 0028     		cmp	r0, #0
 341 002c 40F06D81 		bne	.L61
 228:time_machine_hardware.cpp ****         {
 229:time_machine_hardware.cpp ****             syscfg.skip_clocks = true;
 230:time_machine_hardware.cpp ****         }
 231:time_machine_hardware.cpp **** 
 232:time_machine_hardware.cpp ****         system.Init(syscfg);
 342              		.loc 1 232 9 view .LVU87
 343              		.loc 1 232 20 is_stmt 0 view .LVU88
 344 0030 2846     		mov	r0, r5
 345              	.LVL21:
 346              		.loc 1 232 20 view .LVU89
 347 0032 07A9     		add	r1, sp, #28
 348 0034 FFF7FEFF 		bl	_ZN5daisy6System4InitERKNS0_6ConfigE
 349              	.LVL22:
ARM GAS  /var/folders/xd/16jvbr6j24q9nvtpm0qtw3240000gn/T//cch9jPA2.s 			page 13


 233:time_machine_hardware.cpp **** 
 234:time_machine_hardware.cpp ****         /** Memories */
 235:time_machine_hardware.cpp ****         if (memory == System::MemoryRegion::INTERNAL_FLASH)
 350              		.loc 1 235 9 is_stmt 1 view .LVU90
 236:time_machine_hardware.cpp ****         {
 237:time_machine_hardware.cpp ****             /** FMC SDRAM */
 238:time_machine_hardware.cpp ****             sdram.Init();
 351              		.loc 1 238 13 view .LVU91
 352              		.loc 1 238 23 is_stmt 0 view .LVU92
 353 0038 05F10800 		add	r0, r5, #8
 354 003c FFF7FEFF 		bl	_ZN11SdramHandle4InitEv
 355              	.LVL23:
 239:time_machine_hardware.cpp ****         }
 240:time_machine_hardware.cpp **** 
 241:time_machine_hardware.cpp ****         if (memory != System::MemoryRegion::QSPI)
 356              		.loc 1 241 9 is_stmt 1 view .LVU93
 357              	.L45:
 358              	.LBB590:
 359              	.LBB591:
 242:time_machine_hardware.cpp ****         {
 243:time_machine_hardware.cpp ****             /** QUADSPI FLASH */
 244:time_machine_hardware.cpp ****             QSPIHandle::Config qspi_config;
 360              		.loc 1 244 13 view .LVU94
 361              	.LBB592:
 362              	.LBI592:
 363              		.file 3 "/Users/jonask/Music/Daisy/libDaisy/src/per/qspi.h"
   1:/Users/jonask/Music/Daisy/libDaisy/src/per/qspi.h **** #ifndef DSY_QSPI
   2:/Users/jonask/Music/Daisy/libDaisy/src/per/qspi.h **** #define DSY_QSPI /**< Macro */
   3:/Users/jonask/Music/Daisy/libDaisy/src/per/qspi.h **** 
   4:/Users/jonask/Music/Daisy/libDaisy/src/per/qspi.h **** #ifndef UNIT_TEST // for unit tests, a dummy implementation
   5:/Users/jonask/Music/Daisy/libDaisy/src/per/qspi.h **** 
   6:/Users/jonask/Music/Daisy/libDaisy/src/per/qspi.h **** #include <cstdint>
   7:/Users/jonask/Music/Daisy/libDaisy/src/per/qspi.h **** #include "daisy_core.h"
   8:/Users/jonask/Music/Daisy/libDaisy/src/per/qspi.h **** #include "util/hal_map.h"
   9:/Users/jonask/Music/Daisy/libDaisy/src/per/qspi.h **** 
  10:/Users/jonask/Music/Daisy/libDaisy/src/per/qspi.h **** #define DSY_QSPI_TEXT       \
  11:/Users/jonask/Music/Daisy/libDaisy/src/per/qspi.h ****     __attribute__((section( \
  12:/Users/jonask/Music/Daisy/libDaisy/src/per/qspi.h ****         ".qspiflash_text"))) /**< used for reading memory in memory_mapped mode. */
  13:/Users/jonask/Music/Daisy/libDaisy/src/per/qspi.h **** #define DSY_QSPI_DATA       \
  14:/Users/jonask/Music/Daisy/libDaisy/src/per/qspi.h ****     __attribute__((section( \
  15:/Users/jonask/Music/Daisy/libDaisy/src/per/qspi.h ****         ".qspiflash_data"))) /**< used for reading memory in memory_mapped mode. */
  16:/Users/jonask/Music/Daisy/libDaisy/src/per/qspi.h **** #define DSY_QSPI_BSS        \
  17:/Users/jonask/Music/Daisy/libDaisy/src/per/qspi.h ****     __attribute__((section( \
  18:/Users/jonask/Music/Daisy/libDaisy/src/per/qspi.h ****         ".qspiflash_bss"))) /**< used for reading memory in memory_mapped mode. */
  19:/Users/jonask/Music/Daisy/libDaisy/src/per/qspi.h **** 
  20:/Users/jonask/Music/Daisy/libDaisy/src/per/qspi.h **** namespace daisy
  21:/Users/jonask/Music/Daisy/libDaisy/src/per/qspi.h **** {
  22:/Users/jonask/Music/Daisy/libDaisy/src/per/qspi.h **** /** @addtogroup serial
  23:/Users/jonask/Music/Daisy/libDaisy/src/per/qspi.h **** @{
  24:/Users/jonask/Music/Daisy/libDaisy/src/per/qspi.h **** */
  25:/Users/jonask/Music/Daisy/libDaisy/src/per/qspi.h **** 
  26:/Users/jonask/Music/Daisy/libDaisy/src/per/qspi.h **** /** 
  27:/Users/jonask/Music/Daisy/libDaisy/src/per/qspi.h ****  Driver for QSPI peripheral to interface with external flash memory. \n 
  28:/Users/jonask/Music/Daisy/libDaisy/src/per/qspi.h ****     Currently supported QSPI Devices: \n 
  29:/Users/jonask/Music/Daisy/libDaisy/src/per/qspi.h ****     * IS25LP080D
  30:/Users/jonask/Music/Daisy/libDaisy/src/per/qspi.h **** */
  31:/Users/jonask/Music/Daisy/libDaisy/src/per/qspi.h **** class QSPIHandle
ARM GAS  /var/folders/xd/16jvbr6j24q9nvtpm0qtw3240000gn/T//cch9jPA2.s 			page 14


  32:/Users/jonask/Music/Daisy/libDaisy/src/per/qspi.h **** {
  33:/Users/jonask/Music/Daisy/libDaisy/src/per/qspi.h ****   public:
  34:/Users/jonask/Music/Daisy/libDaisy/src/per/qspi.h ****     enum Result
  35:/Users/jonask/Music/Daisy/libDaisy/src/per/qspi.h ****     {
  36:/Users/jonask/Music/Daisy/libDaisy/src/per/qspi.h ****         OK = 0,
  37:/Users/jonask/Music/Daisy/libDaisy/src/per/qspi.h ****         ERR
  38:/Users/jonask/Music/Daisy/libDaisy/src/per/qspi.h ****     };
  39:/Users/jonask/Music/Daisy/libDaisy/src/per/qspi.h **** 
  40:/Users/jonask/Music/Daisy/libDaisy/src/per/qspi.h ****     /** Indicates the current status of the module. 
  41:/Users/jonask/Music/Daisy/libDaisy/src/per/qspi.h ****          *  Warnings are indicated by a leading W.
  42:/Users/jonask/Music/Daisy/libDaisy/src/per/qspi.h ****          *  Errors are indicated by a leading E and cause an immediate exit.
  43:/Users/jonask/Music/Daisy/libDaisy/src/per/qspi.h ****          * 
  44:/Users/jonask/Music/Daisy/libDaisy/src/per/qspi.h ****          *  \param GOOD - No errors have been reported.
  45:/Users/jonask/Music/Daisy/libDaisy/src/per/qspi.h ****          *  \param E_HAL_ERROR - HAL code did not return HAL_OK.
  46:/Users/jonask/Music/Daisy/libDaisy/src/per/qspi.h ****          *  \param E_SWITCHING_MODES - An error was encountered while switching QSPI peripheral mod
  47:/Users/jonask/Music/Daisy/libDaisy/src/per/qspi.h ****          *  \param E_INVALID_MODE - QSPI should not be written to while the program is executing fr
  48:/Users/jonask/Music/Daisy/libDaisy/src/per/qspi.h ****          */
  49:/Users/jonask/Music/Daisy/libDaisy/src/per/qspi.h ****     enum Status
  50:/Users/jonask/Music/Daisy/libDaisy/src/per/qspi.h ****     {
  51:/Users/jonask/Music/Daisy/libDaisy/src/per/qspi.h ****         GOOD = 0,
  52:/Users/jonask/Music/Daisy/libDaisy/src/per/qspi.h ****         E_HAL_ERROR,
  53:/Users/jonask/Music/Daisy/libDaisy/src/per/qspi.h ****         E_SWITCHING_MODES,
  54:/Users/jonask/Music/Daisy/libDaisy/src/per/qspi.h ****         E_INVALID_MODE,
  55:/Users/jonask/Music/Daisy/libDaisy/src/per/qspi.h ****     };
  56:/Users/jonask/Music/Daisy/libDaisy/src/per/qspi.h **** 
  57:/Users/jonask/Music/Daisy/libDaisy/src/per/qspi.h ****     /** Configuration structure for interfacing with QSPI Driver */
  58:/Users/jonask/Music/Daisy/libDaisy/src/per/qspi.h ****     struct Config
 364              		.loc 3 58 12 view .LVU95
 365              	.LBB593:
 366              	.LBI593:
  59:/Users/jonask/Music/Daisy/libDaisy/src/per/qspi.h ****     {
  60:/Users/jonask/Music/Daisy/libDaisy/src/per/qspi.h ****         /** Flash Devices supported. (Both of these are more-or-less the same, just different sizes
  61:/Users/jonask/Music/Daisy/libDaisy/src/per/qspi.h ****         enum Device
  62:/Users/jonask/Music/Daisy/libDaisy/src/per/qspi.h ****         {
  63:/Users/jonask/Music/Daisy/libDaisy/src/per/qspi.h ****             IS25LP080D,  /**< & */
  64:/Users/jonask/Music/Daisy/libDaisy/src/per/qspi.h ****             IS25LP064A,  /**< & */
  65:/Users/jonask/Music/Daisy/libDaisy/src/per/qspi.h ****             DEVICE_LAST, /**< & */
  66:/Users/jonask/Music/Daisy/libDaisy/src/per/qspi.h ****         };
  67:/Users/jonask/Music/Daisy/libDaisy/src/per/qspi.h **** 
  68:/Users/jonask/Music/Daisy/libDaisy/src/per/qspi.h ****         /** 
  69:/Users/jonask/Music/Daisy/libDaisy/src/per/qspi.h ****         Modes of operation.
  70:/Users/jonask/Music/Daisy/libDaisy/src/per/qspi.h ****         Memory Mapped mode: QSPI configured so that the QSPI can be
  71:/Users/jonask/Music/Daisy/libDaisy/src/per/qspi.h ****         read from starting address 0x90000000. Writing is not
  72:/Users/jonask/Music/Daisy/libDaisy/src/per/qspi.h ****         possible in this mode. \n 
  73:/Users/jonask/Music/Daisy/libDaisy/src/per/qspi.h ****         Indirect Polling mode: Device driver enabled. 
  74:/Users/jonask/Music/Daisy/libDaisy/src/per/qspi.h ****         */
  75:/Users/jonask/Music/Daisy/libDaisy/src/per/qspi.h ****         enum Mode
  76:/Users/jonask/Music/Daisy/libDaisy/src/per/qspi.h ****         {
  77:/Users/jonask/Music/Daisy/libDaisy/src/per/qspi.h ****             MEMORY_MAPPED,    /**< & */
  78:/Users/jonask/Music/Daisy/libDaisy/src/per/qspi.h ****             INDIRECT_POLLING, /**< & */
  79:/Users/jonask/Music/Daisy/libDaisy/src/per/qspi.h ****             MODE_LAST,
  80:/Users/jonask/Music/Daisy/libDaisy/src/per/qspi.h ****         };
  81:/Users/jonask/Music/Daisy/libDaisy/src/per/qspi.h **** 
  82:/Users/jonask/Music/Daisy/libDaisy/src/per/qspi.h ****         //SCK,  CE# (active low)
  83:/Users/jonask/Music/Daisy/libDaisy/src/per/qspi.h ****         struct
  84:/Users/jonask/Music/Daisy/libDaisy/src/per/qspi.h ****         {
 367              		.loc 3 84 9 view .LVU96
ARM GAS  /var/folders/xd/16jvbr6j24q9nvtpm0qtw3240000gn/T//cch9jPA2.s 			page 15


 368              	.LBB594:
 369              	.LBI594:
 370              		.file 4 "/Users/jonask/Music/Daisy/libDaisy/src/daisy_core.h"
   1:/Users/jonask/Music/Daisy/libDaisy/src/daisy_core.h **** #pragma once
   2:/Users/jonask/Music/Daisy/libDaisy/src/daisy_core.h **** #ifndef DSY_CORE_HW_H
   3:/Users/jonask/Music/Daisy/libDaisy/src/daisy_core.h **** #define DSY_CORE_HW_H /**< & */
   4:/Users/jonask/Music/Daisy/libDaisy/src/daisy_core.h **** #include <stdint.h>
   5:/Users/jonask/Music/Daisy/libDaisy/src/daisy_core.h **** #include <stdlib.h>
   6:/Users/jonask/Music/Daisy/libDaisy/src/daisy_core.h **** 
   7:/Users/jonask/Music/Daisy/libDaisy/src/daisy_core.h **** #if defined(_MSC_VER)
   8:/Users/jonask/Music/Daisy/libDaisy/src/daisy_core.h **** #define FORCE_INLINE __forceinline /**< & */
   9:/Users/jonask/Music/Daisy/libDaisy/src/daisy_core.h **** #elif defined(__clang__)
  10:/Users/jonask/Music/Daisy/libDaisy/src/daisy_core.h **** #define FORCE_INLINE inline __attribute__((always_inline)) /**< & */
  11:/Users/jonask/Music/Daisy/libDaisy/src/daisy_core.h **** #pragma clang diagnostic ignored "-Wduplicate-decl-specifier"
  12:/Users/jonask/Music/Daisy/libDaisy/src/daisy_core.h **** #elif defined(__GNUC__)
  13:/Users/jonask/Music/Daisy/libDaisy/src/daisy_core.h **** #define FORCE_INLINE inline __attribute__((always_inline)) /**< & */
  14:/Users/jonask/Music/Daisy/libDaisy/src/daisy_core.h **** #else
  15:/Users/jonask/Music/Daisy/libDaisy/src/daisy_core.h **** #error unknown compiler
  16:/Users/jonask/Music/Daisy/libDaisy/src/daisy_core.h **** #endif
  17:/Users/jonask/Music/Daisy/libDaisy/src/daisy_core.h **** 
  18:/Users/jonask/Music/Daisy/libDaisy/src/daisy_core.h **** /** @addtogroup utility
  19:/Users/jonask/Music/Daisy/libDaisy/src/daisy_core.h ****     @{
  20:/Users/jonask/Music/Daisy/libDaisy/src/daisy_core.h **** */
  21:/Users/jonask/Music/Daisy/libDaisy/src/daisy_core.h **** 
  22:/Users/jonask/Music/Daisy/libDaisy/src/daisy_core.h **** /** Macro for area of memory that is configured as cacheless
  23:/Users/jonask/Music/Daisy/libDaisy/src/daisy_core.h **** This should be used primarily for DMA buffers, and the like.
  24:/Users/jonask/Music/Daisy/libDaisy/src/daisy_core.h **** */
  25:/Users/jonask/Music/Daisy/libDaisy/src/daisy_core.h **** #define DMA_BUFFER_MEM_SECTION __attribute__((section(".sram1_bss")))
  26:/Users/jonask/Music/Daisy/libDaisy/src/daisy_core.h **** /** 
  27:/Users/jonask/Music/Daisy/libDaisy/src/daisy_core.h **** THE DTCM RAM section is also non-cached. However, is not suitable 
  28:/Users/jonask/Music/Daisy/libDaisy/src/daisy_core.h **** for DMA transfers. Performance is on par with internal SRAM w/ 
  29:/Users/jonask/Music/Daisy/libDaisy/src/daisy_core.h **** cache enabled.
  30:/Users/jonask/Music/Daisy/libDaisy/src/daisy_core.h **** */
  31:/Users/jonask/Music/Daisy/libDaisy/src/daisy_core.h **** #define DTCM_MEM_SECTION __attribute__((section(".dtcmram_bss")))
  32:/Users/jonask/Music/Daisy/libDaisy/src/daisy_core.h **** 
  33:/Users/jonask/Music/Daisy/libDaisy/src/daisy_core.h **** #define FBIPMAX 0.999985f             /**< close to 1.0f-LSB at 16 bit */
  34:/Users/jonask/Music/Daisy/libDaisy/src/daisy_core.h **** #define FBIPMIN (-FBIPMAX)            /**< - (1 - LSB) */
  35:/Users/jonask/Music/Daisy/libDaisy/src/daisy_core.h **** #define U82F_SCALE 0.0078740f         /**< 1 / 127 */
  36:/Users/jonask/Music/Daisy/libDaisy/src/daisy_core.h **** #define F2U8_SCALE 127.0f             /**< 128 - 1 */
  37:/Users/jonask/Music/Daisy/libDaisy/src/daisy_core.h **** #define S82F_SCALE 0.0078125f         /**< 1 / (2**7) */
  38:/Users/jonask/Music/Daisy/libDaisy/src/daisy_core.h **** #define F2S8_SCALE 127.0f             /**< (2 ** 7) - 1 */
  39:/Users/jonask/Music/Daisy/libDaisy/src/daisy_core.h **** #define S162F_SCALE 3.0517578125e-05f /**< 1 / (2** 15) */
  40:/Users/jonask/Music/Daisy/libDaisy/src/daisy_core.h **** #define F2S16_SCALE 32767.0f          /**< (2 ** 15) - 1 */
  41:/Users/jonask/Music/Daisy/libDaisy/src/daisy_core.h **** #define F2S24_SCALE 8388608.0f        /**< 2 ** 23 */
  42:/Users/jonask/Music/Daisy/libDaisy/src/daisy_core.h **** #define S242F_SCALE 1.192092896e-07f  /**< 1 / (2 ** 23) */
  43:/Users/jonask/Music/Daisy/libDaisy/src/daisy_core.h **** #define S24SIGN 0x800000              /**< 2 ** 23 */
  44:/Users/jonask/Music/Daisy/libDaisy/src/daisy_core.h **** #define S322F_SCALE 4.6566129e-10f    /**< 1 / (2** 31) */
  45:/Users/jonask/Music/Daisy/libDaisy/src/daisy_core.h **** #define F2S32_SCALE 2147483647.f      /**< (2 ** 31) - 1 */
  46:/Users/jonask/Music/Daisy/libDaisy/src/daisy_core.h **** 
  47:/Users/jonask/Music/Daisy/libDaisy/src/daisy_core.h **** 
  48:/Users/jonask/Music/Daisy/libDaisy/src/daisy_core.h **** /** shorthand macro for simplifying the reading of the left 
  49:/Users/jonask/Music/Daisy/libDaisy/src/daisy_core.h ****  *  channel of a non-interleaved output buffer named out */
  50:/Users/jonask/Music/Daisy/libDaisy/src/daisy_core.h **** #define OUT_L out[0]
  51:/Users/jonask/Music/Daisy/libDaisy/src/daisy_core.h **** 
  52:/Users/jonask/Music/Daisy/libDaisy/src/daisy_core.h **** /** shorthand macro for simplifying the reading of the right 
  53:/Users/jonask/Music/Daisy/libDaisy/src/daisy_core.h ****  *  channel of a non-interleaved output buffer named out */
  54:/Users/jonask/Music/Daisy/libDaisy/src/daisy_core.h **** #define OUT_R out[1]
ARM GAS  /var/folders/xd/16jvbr6j24q9nvtpm0qtw3240000gn/T//cch9jPA2.s 			page 16


  55:/Users/jonask/Music/Daisy/libDaisy/src/daisy_core.h **** 
  56:/Users/jonask/Music/Daisy/libDaisy/src/daisy_core.h **** /** shorthand macro for simplifying the reading of the left 
  57:/Users/jonask/Music/Daisy/libDaisy/src/daisy_core.h ****  *  channel of a non-interleaved input buffer named in */
  58:/Users/jonask/Music/Daisy/libDaisy/src/daisy_core.h **** #define IN_L in[0]
  59:/Users/jonask/Music/Daisy/libDaisy/src/daisy_core.h **** 
  60:/Users/jonask/Music/Daisy/libDaisy/src/daisy_core.h **** /** shorthand macro for simplifying the reading of the right 
  61:/Users/jonask/Music/Daisy/libDaisy/src/daisy_core.h ****  *  channel of a non-interleaved input buffer named in */
  62:/Users/jonask/Music/Daisy/libDaisy/src/daisy_core.h **** #define IN_R in[1]
  63:/Users/jonask/Music/Daisy/libDaisy/src/daisy_core.h **** 
  64:/Users/jonask/Music/Daisy/libDaisy/src/daisy_core.h **** /** 
  65:/Users/jonask/Music/Daisy/libDaisy/src/daisy_core.h ****     Computes cube.
  66:/Users/jonask/Music/Daisy/libDaisy/src/daisy_core.h ****     \param x Number to be cubed
  67:/Users/jonask/Music/Daisy/libDaisy/src/daisy_core.h ****     \return x ^ 3
  68:/Users/jonask/Music/Daisy/libDaisy/src/daisy_core.h **** */
  69:/Users/jonask/Music/Daisy/libDaisy/src/daisy_core.h **** FORCE_INLINE float cube(float x)
  70:/Users/jonask/Music/Daisy/libDaisy/src/daisy_core.h **** {
  71:/Users/jonask/Music/Daisy/libDaisy/src/daisy_core.h ****     return (x * x) * x;
  72:/Users/jonask/Music/Daisy/libDaisy/src/daisy_core.h **** }
  73:/Users/jonask/Music/Daisy/libDaisy/src/daisy_core.h **** 
  74:/Users/jonask/Music/Daisy/libDaisy/src/daisy_core.h **** /** 
  75:/Users/jonask/Music/Daisy/libDaisy/src/daisy_core.h ****     Converts unsigned 8-bit to float
  76:/Users/jonask/Music/Daisy/libDaisy/src/daisy_core.h ****     \param x Number to be scaled.
  77:/Users/jonask/Music/Daisy/libDaisy/src/daisy_core.h ****     \return Scaled number.
  78:/Users/jonask/Music/Daisy/libDaisy/src/daisy_core.h **** */
  79:/Users/jonask/Music/Daisy/libDaisy/src/daisy_core.h **** FORCE_INLINE float u82f(uint8_t x)
  80:/Users/jonask/Music/Daisy/libDaisy/src/daisy_core.h **** {
  81:/Users/jonask/Music/Daisy/libDaisy/src/daisy_core.h ****     return ((float)x - 127.f) * U82F_SCALE;
  82:/Users/jonask/Music/Daisy/libDaisy/src/daisy_core.h **** }
  83:/Users/jonask/Music/Daisy/libDaisy/src/daisy_core.h **** 
  84:/Users/jonask/Music/Daisy/libDaisy/src/daisy_core.h **** /**
  85:/Users/jonask/Music/Daisy/libDaisy/src/daisy_core.h ****     Converts float to unsigned 8-bit
  86:/Users/jonask/Music/Daisy/libDaisy/src/daisy_core.h **** */
  87:/Users/jonask/Music/Daisy/libDaisy/src/daisy_core.h **** FORCE_INLINE uint8_t f2u8(float x)
  88:/Users/jonask/Music/Daisy/libDaisy/src/daisy_core.h **** {
  89:/Users/jonask/Music/Daisy/libDaisy/src/daisy_core.h ****     x = x <= FBIPMIN ? FBIPMIN : x;
  90:/Users/jonask/Music/Daisy/libDaisy/src/daisy_core.h ****     x = x >= FBIPMAX ? FBIPMAX : x;
  91:/Users/jonask/Music/Daisy/libDaisy/src/daisy_core.h ****     return (uint8_t)((x * F2U8_SCALE) + F2U8_SCALE);
  92:/Users/jonask/Music/Daisy/libDaisy/src/daisy_core.h **** }
  93:/Users/jonask/Music/Daisy/libDaisy/src/daisy_core.h **** 
  94:/Users/jonask/Music/Daisy/libDaisy/src/daisy_core.h **** 
  95:/Users/jonask/Music/Daisy/libDaisy/src/daisy_core.h **** /** 
  96:/Users/jonask/Music/Daisy/libDaisy/src/daisy_core.h ****     Converts Signed 8-bit to float
  97:/Users/jonask/Music/Daisy/libDaisy/src/daisy_core.h ****     \param x Number to be scaled.
  98:/Users/jonask/Music/Daisy/libDaisy/src/daisy_core.h ****     \return Scaled number.
  99:/Users/jonask/Music/Daisy/libDaisy/src/daisy_core.h **** */
 100:/Users/jonask/Music/Daisy/libDaisy/src/daisy_core.h **** FORCE_INLINE float s82f(int8_t x)
 101:/Users/jonask/Music/Daisy/libDaisy/src/daisy_core.h **** {
 102:/Users/jonask/Music/Daisy/libDaisy/src/daisy_core.h ****     return (float)x * S82F_SCALE;
 103:/Users/jonask/Music/Daisy/libDaisy/src/daisy_core.h **** }
 104:/Users/jonask/Music/Daisy/libDaisy/src/daisy_core.h **** 
 105:/Users/jonask/Music/Daisy/libDaisy/src/daisy_core.h **** /**
 106:/Users/jonask/Music/Daisy/libDaisy/src/daisy_core.h ****     Converts float to Signed 8-bit
 107:/Users/jonask/Music/Daisy/libDaisy/src/daisy_core.h **** */
 108:/Users/jonask/Music/Daisy/libDaisy/src/daisy_core.h **** FORCE_INLINE int8_t f2s8(float x)
 109:/Users/jonask/Music/Daisy/libDaisy/src/daisy_core.h **** {
 110:/Users/jonask/Music/Daisy/libDaisy/src/daisy_core.h ****     x = x <= FBIPMIN ? FBIPMIN : x;
 111:/Users/jonask/Music/Daisy/libDaisy/src/daisy_core.h ****     x = x >= FBIPMAX ? FBIPMAX : x;
ARM GAS  /var/folders/xd/16jvbr6j24q9nvtpm0qtw3240000gn/T//cch9jPA2.s 			page 17


 112:/Users/jonask/Music/Daisy/libDaisy/src/daisy_core.h ****     return (int32_t)(x * F2S8_SCALE);
 113:/Users/jonask/Music/Daisy/libDaisy/src/daisy_core.h **** }
 114:/Users/jonask/Music/Daisy/libDaisy/src/daisy_core.h **** 
 115:/Users/jonask/Music/Daisy/libDaisy/src/daisy_core.h **** /** 
 116:/Users/jonask/Music/Daisy/libDaisy/src/daisy_core.h ****     Converts Signed 16-bit to float
 117:/Users/jonask/Music/Daisy/libDaisy/src/daisy_core.h ****     \param x Number to be scaled.
 118:/Users/jonask/Music/Daisy/libDaisy/src/daisy_core.h ****     \return Scaled number.
 119:/Users/jonask/Music/Daisy/libDaisy/src/daisy_core.h **** */
 120:/Users/jonask/Music/Daisy/libDaisy/src/daisy_core.h **** FORCE_INLINE float s162f(int16_t x)
 121:/Users/jonask/Music/Daisy/libDaisy/src/daisy_core.h **** {
 122:/Users/jonask/Music/Daisy/libDaisy/src/daisy_core.h ****     return (float)x * S162F_SCALE;
 123:/Users/jonask/Music/Daisy/libDaisy/src/daisy_core.h **** }
 124:/Users/jonask/Music/Daisy/libDaisy/src/daisy_core.h **** 
 125:/Users/jonask/Music/Daisy/libDaisy/src/daisy_core.h **** /**
 126:/Users/jonask/Music/Daisy/libDaisy/src/daisy_core.h ****     Converts float to Signed 16-bit
 127:/Users/jonask/Music/Daisy/libDaisy/src/daisy_core.h **** */
 128:/Users/jonask/Music/Daisy/libDaisy/src/daisy_core.h **** FORCE_INLINE int16_t f2s16(float x)
 129:/Users/jonask/Music/Daisy/libDaisy/src/daisy_core.h **** {
 130:/Users/jonask/Music/Daisy/libDaisy/src/daisy_core.h ****     x = x <= FBIPMIN ? FBIPMIN : x;
 131:/Users/jonask/Music/Daisy/libDaisy/src/daisy_core.h ****     x = x >= FBIPMAX ? FBIPMAX : x;
 132:/Users/jonask/Music/Daisy/libDaisy/src/daisy_core.h ****     return (int32_t)(x * F2S16_SCALE);
 133:/Users/jonask/Music/Daisy/libDaisy/src/daisy_core.h **** }
 134:/Users/jonask/Music/Daisy/libDaisy/src/daisy_core.h **** 
 135:/Users/jonask/Music/Daisy/libDaisy/src/daisy_core.h **** /**
 136:/Users/jonask/Music/Daisy/libDaisy/src/daisy_core.h ****     Converts Signed 24-bit to float
 137:/Users/jonask/Music/Daisy/libDaisy/src/daisy_core.h ****  */
 138:/Users/jonask/Music/Daisy/libDaisy/src/daisy_core.h **** FORCE_INLINE float s242f(int32_t x)
 139:/Users/jonask/Music/Daisy/libDaisy/src/daisy_core.h **** {
 140:/Users/jonask/Music/Daisy/libDaisy/src/daisy_core.h ****     x = (x ^ S24SIGN) - S24SIGN; //sign extend aka ((x<<8)>>8)
 141:/Users/jonask/Music/Daisy/libDaisy/src/daisy_core.h ****     return (float)x * S242F_SCALE;
 142:/Users/jonask/Music/Daisy/libDaisy/src/daisy_core.h **** }
 143:/Users/jonask/Music/Daisy/libDaisy/src/daisy_core.h **** /**
 144:/Users/jonask/Music/Daisy/libDaisy/src/daisy_core.h ****     Converts float to Signed 24-bit
 145:/Users/jonask/Music/Daisy/libDaisy/src/daisy_core.h ****  */
 146:/Users/jonask/Music/Daisy/libDaisy/src/daisy_core.h **** FORCE_INLINE int32_t f2s24(float x)
 147:/Users/jonask/Music/Daisy/libDaisy/src/daisy_core.h **** {
 148:/Users/jonask/Music/Daisy/libDaisy/src/daisy_core.h ****     x = x <= FBIPMIN ? FBIPMIN : x;
 149:/Users/jonask/Music/Daisy/libDaisy/src/daisy_core.h ****     x = x >= FBIPMAX ? FBIPMAX : x;
 150:/Users/jonask/Music/Daisy/libDaisy/src/daisy_core.h ****     return (int32_t)(x * F2S24_SCALE);
 151:/Users/jonask/Music/Daisy/libDaisy/src/daisy_core.h **** }
 152:/Users/jonask/Music/Daisy/libDaisy/src/daisy_core.h **** 
 153:/Users/jonask/Music/Daisy/libDaisy/src/daisy_core.h **** /**
 154:/Users/jonask/Music/Daisy/libDaisy/src/daisy_core.h ****     Converts Signed 32-bit to float
 155:/Users/jonask/Music/Daisy/libDaisy/src/daisy_core.h ****  */
 156:/Users/jonask/Music/Daisy/libDaisy/src/daisy_core.h **** FORCE_INLINE float s322f(int32_t x)
 157:/Users/jonask/Music/Daisy/libDaisy/src/daisy_core.h **** {
 158:/Users/jonask/Music/Daisy/libDaisy/src/daisy_core.h ****     return (float)x * S322F_SCALE;
 159:/Users/jonask/Music/Daisy/libDaisy/src/daisy_core.h **** }
 160:/Users/jonask/Music/Daisy/libDaisy/src/daisy_core.h **** /**
 161:/Users/jonask/Music/Daisy/libDaisy/src/daisy_core.h ****     Converts float to Signed 24-bit
 162:/Users/jonask/Music/Daisy/libDaisy/src/daisy_core.h ****  */
 163:/Users/jonask/Music/Daisy/libDaisy/src/daisy_core.h **** FORCE_INLINE int32_t f2s32(float x)
 164:/Users/jonask/Music/Daisy/libDaisy/src/daisy_core.h **** {
 165:/Users/jonask/Music/Daisy/libDaisy/src/daisy_core.h ****     x = x <= FBIPMIN ? FBIPMIN : x;
 166:/Users/jonask/Music/Daisy/libDaisy/src/daisy_core.h ****     x = x >= FBIPMAX ? FBIPMAX : x;
 167:/Users/jonask/Music/Daisy/libDaisy/src/daisy_core.h ****     return (int32_t)(x * F2S32_SCALE);
 168:/Users/jonask/Music/Daisy/libDaisy/src/daisy_core.h **** }
ARM GAS  /var/folders/xd/16jvbr6j24q9nvtpm0qtw3240000gn/T//cch9jPA2.s 			page 18


 169:/Users/jonask/Music/Daisy/libDaisy/src/daisy_core.h **** 
 170:/Users/jonask/Music/Daisy/libDaisy/src/daisy_core.h **** #ifdef __cplusplus
 171:/Users/jonask/Music/Daisy/libDaisy/src/daisy_core.h **** 
 172:/Users/jonask/Music/Daisy/libDaisy/src/daisy_core.h **** namespace daisy
 173:/Users/jonask/Music/Daisy/libDaisy/src/daisy_core.h **** {
 174:/Users/jonask/Music/Daisy/libDaisy/src/daisy_core.h **** /** @brief GPIO Port names */
 175:/Users/jonask/Music/Daisy/libDaisy/src/daisy_core.h **** enum GPIOPort
 176:/Users/jonask/Music/Daisy/libDaisy/src/daisy_core.h **** {
 177:/Users/jonask/Music/Daisy/libDaisy/src/daisy_core.h ****     PORTA, /**< Port A */
 178:/Users/jonask/Music/Daisy/libDaisy/src/daisy_core.h ****     PORTB, /**< Port B */
 179:/Users/jonask/Music/Daisy/libDaisy/src/daisy_core.h ****     PORTC, /**< Port C */
 180:/Users/jonask/Music/Daisy/libDaisy/src/daisy_core.h ****     PORTD, /**< Port D */
 181:/Users/jonask/Music/Daisy/libDaisy/src/daisy_core.h ****     PORTE, /**< Port E */
 182:/Users/jonask/Music/Daisy/libDaisy/src/daisy_core.h ****     PORTF, /**< Port F */
 183:/Users/jonask/Music/Daisy/libDaisy/src/daisy_core.h ****     PORTG, /**< Port G */
 184:/Users/jonask/Music/Daisy/libDaisy/src/daisy_core.h ****     PORTH, /**< Port H */
 185:/Users/jonask/Music/Daisy/libDaisy/src/daisy_core.h ****     PORTI, /**< Port I */
 186:/Users/jonask/Music/Daisy/libDaisy/src/daisy_core.h ****     PORTJ, /**< Port J */
 187:/Users/jonask/Music/Daisy/libDaisy/src/daisy_core.h ****     PORTK, /**< Port K */
 188:/Users/jonask/Music/Daisy/libDaisy/src/daisy_core.h ****     PORTX, /**< Used as a dummy port to signal an invalid pin. */
 189:/Users/jonask/Music/Daisy/libDaisy/src/daisy_core.h **** };
 190:/Users/jonask/Music/Daisy/libDaisy/src/daisy_core.h **** 
 191:/Users/jonask/Music/Daisy/libDaisy/src/daisy_core.h **** /** @brief representation of hardware port/pin combination */
 192:/Users/jonask/Music/Daisy/libDaisy/src/daisy_core.h **** struct Pin
 193:/Users/jonask/Music/Daisy/libDaisy/src/daisy_core.h **** {
 194:/Users/jonask/Music/Daisy/libDaisy/src/daisy_core.h ****     GPIOPort port;
 195:/Users/jonask/Music/Daisy/libDaisy/src/daisy_core.h ****     uint8_t  pin;
 196:/Users/jonask/Music/Daisy/libDaisy/src/daisy_core.h **** 
 197:/Users/jonask/Music/Daisy/libDaisy/src/daisy_core.h ****     /** @brief Constructor creates a valid pin. 
 198:/Users/jonask/Music/Daisy/libDaisy/src/daisy_core.h ****      *  @param pt GPIOPort between PA, and PK corresponding to STM32 Port.
 199:/Users/jonask/Music/Daisy/libDaisy/src/daisy_core.h ****      *  @param pn pin number in range of 0-15
 200:/Users/jonask/Music/Daisy/libDaisy/src/daisy_core.h ****     */
 201:/Users/jonask/Music/Daisy/libDaisy/src/daisy_core.h ****     constexpr Pin(const GPIOPort pt, const uint8_t pn) : port(pt), pin(pn) {}
 202:/Users/jonask/Music/Daisy/libDaisy/src/daisy_core.h **** 
 203:/Users/jonask/Music/Daisy/libDaisy/src/daisy_core.h ****     /** @brief Basic Constructor creates an invalid Pin object */
 204:/Users/jonask/Music/Daisy/libDaisy/src/daisy_core.h ****     constexpr Pin() : port(PORTX), pin(255) {}
 371              		.loc 4 204 15 view .LVU97
 372              		.loc 4 204 15 is_stmt 0 view .LVU98
 373              	.LBE594:
 374              	.LBB595:
 375              	.LBI595:
 376              		.loc 4 204 15 is_stmt 1 view .LVU99
 377              		.loc 4 204 15 is_stmt 0 view .LVU100
 378              	.LBE595:
 379              	.LBB596:
 380              	.LBI596:
 381              		.loc 4 204 15 is_stmt 1 view .LVU101
 382              		.loc 4 204 15 is_stmt 0 view .LVU102
 383              	.LBE596:
 384              	.LBB597:
 385              	.LBI597:
 386              		.loc 4 204 15 is_stmt 1 view .LVU103
 387              		.loc 4 204 15 is_stmt 0 view .LVU104
 388              	.LBE597:
 389              	.LBB598:
 390              	.LBI598:
 391              		.loc 4 204 15 is_stmt 1 view .LVU105
ARM GAS  /var/folders/xd/16jvbr6j24q9nvtpm0qtw3240000gn/T//cch9jPA2.s 			page 19


 392              		.loc 4 204 15 is_stmt 0 view .LVU106
 393              	.LBE598:
 394              	.LBB599:
 395              	.LBI599:
 396              		.loc 4 204 15 is_stmt 1 view .LVU107
 397              		.loc 4 204 15 is_stmt 0 view .LVU108
 398              	.LBE599:
 399              	.LBE593:
 400              	.LBE592:
 245:time_machine_hardware.cpp ****             qspi_config.device = QSPIHandle::Config::Device::IS25LP064A;
 401              		.loc 1 245 13 is_stmt 1 view .LVU109
 402              		.loc 1 245 32 is_stmt 0 view .LVU110
 403 0040 27AF     		add	r7, sp, #156
 246:time_machine_hardware.cpp ****             qspi_config.mode   = QSPIHandle::Config::Mode::MEMORY_MAPPED;
 247:time_machine_hardware.cpp ****             qspi_config.pin_config.io0 = Pin(PORTF, 8);
 404              		.loc 1 247 40 view .LVU111
 405 0042 0523     		movs	r3, #5
 245:time_machine_hardware.cpp ****             qspi_config.device = QSPIHandle::Config::Device::IS25LP064A;
 406              		.loc 1 245 32 view .LVU112
 407 0044 0121     		movs	r1, #1
 248:time_machine_hardware.cpp ****             qspi_config.pin_config.io1 = Pin(PORTF, 9);
 249:time_machine_hardware.cpp ****             qspi_config.pin_config.io2 = Pin(PORTF, 7);
 250:time_machine_hardware.cpp ****             qspi_config.pin_config.io3 = Pin(PORTF, 6);
 408              		.loc 1 250 40 view .LVU113
 409 0046 0622     		movs	r2, #6
 247:time_machine_hardware.cpp ****             qspi_config.pin_config.io1 = Pin(PORTF, 9);
 410              		.loc 1 247 40 view .LVU114
 411 0048 3B70     		strb	r3, [r7]
 412 004a 0820     		movs	r0, #8
 248:time_machine_hardware.cpp ****             qspi_config.pin_config.io1 = Pin(PORTF, 9);
 413              		.loc 1 248 40 view .LVU115
 414 004c BB70     		strb	r3, [r7, #2]
 245:time_machine_hardware.cpp ****             qspi_config.mode   = QSPIHandle::Config::Mode::MEMORY_MAPPED;
 415              		.loc 1 245 32 view .LVU116
 416 004e 3973     		strb	r1, [r7, #12]
 246:time_machine_hardware.cpp ****             qspi_config.pin_config.io0 = Pin(PORTF, 8);
 417              		.loc 1 246 13 is_stmt 1 view .LVU117
 246:time_machine_hardware.cpp ****             qspi_config.pin_config.io0 = Pin(PORTF, 8);
 418              		.loc 1 246 32 is_stmt 0 view .LVU118
 419 0050 0021     		movs	r1, #0
 249:time_machine_hardware.cpp ****             qspi_config.pin_config.io3 = Pin(PORTF, 6);
 420              		.loc 1 249 40 view .LVU119
 421 0052 3B71     		strb	r3, [r7, #4]
 422              		.loc 1 250 40 view .LVU120
 423 0054 BB71     		strb	r3, [r7, #6]
 251:time_machine_hardware.cpp ****             qspi_config.pin_config.clk = Pin(PORTF, 10);
 424              		.loc 1 251 40 view .LVU121
 425 0056 3B72     		strb	r3, [r7, #8]
 248:time_machine_hardware.cpp ****             qspi_config.pin_config.io2 = Pin(PORTF, 7);
 426              		.loc 1 248 40 view .LVU122
 427 0058 0923     		movs	r3, #9
 246:time_machine_hardware.cpp ****             qspi_config.pin_config.io0 = Pin(PORTF, 8);
 428              		.loc 1 246 32 view .LVU123
 429 005a 7973     		strb	r1, [r7, #13]
 247:time_machine_hardware.cpp ****             qspi_config.pin_config.io1 = Pin(PORTF, 9);
 430              		.loc 1 247 13 is_stmt 1 view .LVU124
 431              	.LVL24:
ARM GAS  /var/folders/xd/16jvbr6j24q9nvtpm0qtw3240000gn/T//cch9jPA2.s 			page 20


 432              	.LBB600:
 433              	.LBI600:
 201:/Users/jonask/Music/Daisy/libDaisy/src/daisy_core.h **** 
 434              		.loc 4 201 15 view .LVU125
 201:/Users/jonask/Music/Daisy/libDaisy/src/daisy_core.h **** 
 435              		.loc 4 201 15 is_stmt 0 view .LVU126
 436              	.LBE600:
 437              		.loc 1 251 40 view .LVU127
 438 005c 0A21     		movs	r1, #10
 248:time_machine_hardware.cpp ****             qspi_config.pin_config.io2 = Pin(PORTF, 7);
 439              		.loc 1 248 40 view .LVU128
 440 005e FB70     		strb	r3, [r7, #3]
 249:time_machine_hardware.cpp ****             qspi_config.pin_config.io3 = Pin(PORTF, 6);
 441              		.loc 1 249 40 view .LVU129
 442 0060 0723     		movs	r3, #7
 247:time_machine_hardware.cpp ****             qspi_config.pin_config.io1 = Pin(PORTF, 9);
 443              		.loc 1 247 40 view .LVU130
 444 0062 7870     		strb	r0, [r7, #1]
 248:time_machine_hardware.cpp ****             qspi_config.pin_config.io2 = Pin(PORTF, 7);
 445              		.loc 1 248 13 is_stmt 1 view .LVU131
 446              	.LVL25:
 447              	.LBB601:
 448              	.LBI601:
 201:/Users/jonask/Music/Daisy/libDaisy/src/daisy_core.h **** 
 449              		.loc 4 201 15 view .LVU132
 201:/Users/jonask/Music/Daisy/libDaisy/src/daisy_core.h **** 
 450              		.loc 4 201 15 is_stmt 0 view .LVU133
 451              	.LBE601:
 249:time_machine_hardware.cpp ****             qspi_config.pin_config.io3 = Pin(PORTF, 6);
 452              		.loc 1 249 13 is_stmt 1 view .LVU134
 453              	.LBB602:
 454              	.LBI602:
 201:/Users/jonask/Music/Daisy/libDaisy/src/daisy_core.h **** 
 455              		.loc 4 201 15 view .LVU135
 201:/Users/jonask/Music/Daisy/libDaisy/src/daisy_core.h **** 
 456              		.loc 4 201 15 is_stmt 0 view .LVU136
 457              	.LBE602:
 252:time_machine_hardware.cpp ****             qspi_config.pin_config.ncs = Pin(PORTG, 6);
 253:time_machine_hardware.cpp ****             qspi.Init(qspi_config);
 458              		.loc 1 253 22 view .LVU137
 459 0064 05F10C00 		add	r0, r5, #12
 251:time_machine_hardware.cpp ****             qspi_config.pin_config.ncs = Pin(PORTG, 6);
 460              		.loc 1 251 40 view .LVU138
 461 0068 7972     		strb	r1, [r7, #9]
 462              		.loc 1 253 22 view .LVU139
 463 006a 3946     		mov	r1, r7
 250:time_machine_hardware.cpp ****             qspi_config.pin_config.clk = Pin(PORTF, 10);
 464              		.loc 1 250 40 view .LVU140
 465 006c FA71     		strb	r2, [r7, #7]
 252:time_machine_hardware.cpp ****             qspi_config.pin_config.ncs = Pin(PORTG, 6);
 466              		.loc 1 252 40 view .LVU141
 467 006e BA72     		strb	r2, [r7, #10]
 468 0070 FA72     		strb	r2, [r7, #11]
 249:time_machine_hardware.cpp ****             qspi_config.pin_config.io3 = Pin(PORTF, 6);
 469              		.loc 1 249 40 view .LVU142
 470 0072 7B71     		strb	r3, [r7, #5]
 250:time_machine_hardware.cpp ****             qspi_config.pin_config.clk = Pin(PORTF, 10);
ARM GAS  /var/folders/xd/16jvbr6j24q9nvtpm0qtw3240000gn/T//cch9jPA2.s 			page 21


 471              		.loc 1 250 13 is_stmt 1 view .LVU143
 472              	.LVL26:
 473              	.LBB603:
 474              	.LBI603:
 201:/Users/jonask/Music/Daisy/libDaisy/src/daisy_core.h **** 
 475              		.loc 4 201 15 view .LVU144
 201:/Users/jonask/Music/Daisy/libDaisy/src/daisy_core.h **** 
 476              		.loc 4 201 15 is_stmt 0 view .LVU145
 477              	.LBE603:
 251:time_machine_hardware.cpp ****             qspi_config.pin_config.ncs = Pin(PORTG, 6);
 478              		.loc 1 251 13 is_stmt 1 view .LVU146
 479              	.LBB604:
 480              	.LBI604:
 201:/Users/jonask/Music/Daisy/libDaisy/src/daisy_core.h **** 
 481              		.loc 4 201 15 view .LVU147
 201:/Users/jonask/Music/Daisy/libDaisy/src/daisy_core.h **** 
 482              		.loc 4 201 15 is_stmt 0 view .LVU148
 483              	.LBE604:
 252:time_machine_hardware.cpp ****             qspi.Init(qspi_config);
 484              		.loc 1 252 13 is_stmt 1 view .LVU149
 485              	.LBB605:
 486              	.LBI605:
 201:/Users/jonask/Music/Daisy/libDaisy/src/daisy_core.h **** 
 487              		.loc 4 201 15 view .LVU150
 201:/Users/jonask/Music/Daisy/libDaisy/src/daisy_core.h **** 
 488              		.loc 4 201 15 is_stmt 0 view .LVU151
 489              	.LBE605:
 490              		.loc 1 253 13 is_stmt 1 view .LVU152
 491              		.loc 1 253 22 is_stmt 0 view .LVU153
 492 0074 FFF7FEFF 		bl	_ZN5daisy10QSPIHandle4InitERKNS0_6ConfigE
 493              	.LVL27:
 494              	.L25:
 495              		.loc 1 253 22 view .LVU154
 496              	.LBE591:
 497              	.LBE590:
 254:time_machine_hardware.cpp ****         }
 255:time_machine_hardware.cpp **** 
 256:time_machine_hardware.cpp ****         /** Audio */
 257:time_machine_hardware.cpp **** 
 258:time_machine_hardware.cpp ****         // Audio Init
 259:time_machine_hardware.cpp ****         SaiHandle::Config sai_config;
 498              		.loc 1 259 9 is_stmt 1 view .LVU155
 499              	.LBB606:
 500              	.LBI606:
 501              		.file 5 "/Users/jonask/Music/Daisy/libDaisy/src/per/sai.h"
   1:/Users/jonask/Music/Daisy/libDaisy/src/per/sai.h **** #pragma once
   2:/Users/jonask/Music/Daisy/libDaisy/src/per/sai.h **** #ifndef DSY_SAI_H
   3:/Users/jonask/Music/Daisy/libDaisy/src/per/sai.h **** #define DSY_SAI_H
   4:/Users/jonask/Music/Daisy/libDaisy/src/per/sai.h **** 
   5:/Users/jonask/Music/Daisy/libDaisy/src/per/sai.h **** #include "util/hal_map.h"
   6:/Users/jonask/Music/Daisy/libDaisy/src/per/sai.h **** #include "daisy_core.h"
   7:/Users/jonask/Music/Daisy/libDaisy/src/per/sai.h **** 
   8:/Users/jonask/Music/Daisy/libDaisy/src/per/sai.h **** namespace daisy
   9:/Users/jonask/Music/Daisy/libDaisy/src/per/sai.h **** {
  10:/Users/jonask/Music/Daisy/libDaisy/src/per/sai.h **** /** 
  11:/Users/jonask/Music/Daisy/libDaisy/src/per/sai.h ****  * Support for I2S Audio Protocol with different bit-depth, samplerate options
  12:/Users/jonask/Music/Daisy/libDaisy/src/per/sai.h ****  * Allows for master or slave, as well as freedom of selecting direction, 
ARM GAS  /var/folders/xd/16jvbr6j24q9nvtpm0qtw3240000gn/T//cch9jPA2.s 			page 22


  13:/Users/jonask/Music/Daisy/libDaisy/src/per/sai.h ****  * and other behavior for each peripheral, and block.
  14:/Users/jonask/Music/Daisy/libDaisy/src/per/sai.h ****  * 
  15:/Users/jonask/Music/Daisy/libDaisy/src/per/sai.h ****  * DMA Transfer commands must use buffers located within non-cached memory or use cache maintenance
  16:/Users/jonask/Music/Daisy/libDaisy/src/per/sai.h ****  * To declare an unitialized global element in the DMA memory section:
  17:/Users/jonask/Music/Daisy/libDaisy/src/per/sai.h ****  *    int32_t DSY_DMA_BUFFER_SECTOR my_buffer[96];
  18:/Users/jonask/Music/Daisy/libDaisy/src/per/sai.h ****  *
  19:/Users/jonask/Music/Daisy/libDaisy/src/per/sai.h ****  * Callback functions will be called once per half of the buffer. In the above example, 
  20:/Users/jonask/Music/Daisy/libDaisy/src/per/sai.h ****  * the callback function would be called once for every 48 samples.
  21:/Users/jonask/Music/Daisy/libDaisy/src/per/sai.h ****  * 
  22:/Users/jonask/Music/Daisy/libDaisy/src/per/sai.h ****  * Use SAI Handle like this:
  23:/Users/jonask/Music/Daisy/libDaisy/src/per/sai.h ****  * 
  24:/Users/jonask/Music/Daisy/libDaisy/src/per/sai.h ****  *  SaiHandle::Config sai_config;
  25:/Users/jonask/Music/Daisy/libDaisy/src/per/sai.h ****  *  sai_config.periph          = SaiHandle::Config::Peripheral::SAI_1;
  26:/Users/jonask/Music/Daisy/libDaisy/src/per/sai.h ****  *  sai_config.sr              = SaiHandle::Config::SampleRate::SAI_48KHZ;
  27:/Users/jonask/Music/Daisy/libDaisy/src/per/sai.h ****  *  sai_config.bit_depth       = SaiHandle::Config::BitDepth::SAI_24BIT;
  28:/Users/jonask/Music/Daisy/libDaisy/src/per/sai.h ****  *  sai_config.a_sync          = SaiHandle::Config::Sync::MASTER;
  29:/Users/jonask/Music/Daisy/libDaisy/src/per/sai.h ****  *  sai_config.b_sync          = SaiHandle::Config::Sync::SLAVE;
  30:/Users/jonask/Music/Daisy/libDaisy/src/per/sai.h ****  *  sai_config.a_dir           = SaiHandle::Config::Direction::RECEIVE;
  31:/Users/jonask/Music/Daisy/libDaisy/src/per/sai.h ****  *  sai_config.b_dir           = SaiHandle::Config::Direction::TRANSMIT;
  32:/Users/jonask/Music/Daisy/libDaisy/src/per/sai.h ****  *  sai_config.pin_config.fs   = {DSY_GPIOE, 4};
  33:/Users/jonask/Music/Daisy/libDaisy/src/per/sai.h ****  *  sai_config.pin_config.mclk = {DSY_GPIOE, 2};
  34:/Users/jonask/Music/Daisy/libDaisy/src/per/sai.h ****  *  sai_config.pin_config.sck  = {DSY_GPIOE, 5};
  35:/Users/jonask/Music/Daisy/libDaisy/src/per/sai.h ****  *  sai_config.pin_config.sa   = {DSY_GPIOE, 6};
  36:/Users/jonask/Music/Daisy/libDaisy/src/per/sai.h ****  *  sai_config.pin_config.sb   = {DSY_GPIOE, 3};
  37:/Users/jonask/Music/Daisy/libDaisy/src/per/sai.h ****  *  // Then Initialize
  38:/Users/jonask/Music/Daisy/libDaisy/src/per/sai.h ****  *  SaiHandle sai;
  39:/Users/jonask/Music/Daisy/libDaisy/src/per/sai.h ****  *  sai.Init(sai_config);
  40:/Users/jonask/Music/Daisy/libDaisy/src/per/sai.h ****  *  // Now you can use it:
  41:/Users/jonask/Music/Daisy/libDaisy/src/per/sai.h ****  *  sai.StartDma(. . .);
  42:/Users/jonask/Music/Daisy/libDaisy/src/per/sai.h ****  */
  43:/Users/jonask/Music/Daisy/libDaisy/src/per/sai.h **** class SaiHandle
  44:/Users/jonask/Music/Daisy/libDaisy/src/per/sai.h **** {
  45:/Users/jonask/Music/Daisy/libDaisy/src/per/sai.h ****   public:
  46:/Users/jonask/Music/Daisy/libDaisy/src/per/sai.h ****     /** Contains settings for initialising an SAI Interface */
  47:/Users/jonask/Music/Daisy/libDaisy/src/per/sai.h ****     struct Config
 502              		.loc 5 47 12 view .LVU156
 503              	.LBB607:
 504              	.LBI607:
  48:/Users/jonask/Music/Daisy/libDaisy/src/per/sai.h ****     {
  49:/Users/jonask/Music/Daisy/libDaisy/src/per/sai.h ****         /** Specifies the internal peripheral to use (mapped to different hardware pins) */
  50:/Users/jonask/Music/Daisy/libDaisy/src/per/sai.h ****         enum class Peripheral
  51:/Users/jonask/Music/Daisy/libDaisy/src/per/sai.h ****         {
  52:/Users/jonask/Music/Daisy/libDaisy/src/per/sai.h ****             SAI_1,
  53:/Users/jonask/Music/Daisy/libDaisy/src/per/sai.h ****             SAI_2,
  54:/Users/jonask/Music/Daisy/libDaisy/src/per/sai.h ****         };
  55:/Users/jonask/Music/Daisy/libDaisy/src/per/sai.h **** 
  56:/Users/jonask/Music/Daisy/libDaisy/src/per/sai.h ****         /** Rate at which samples will be streaming to/from the device. */
  57:/Users/jonask/Music/Daisy/libDaisy/src/per/sai.h ****         enum class SampleRate
  58:/Users/jonask/Music/Daisy/libDaisy/src/per/sai.h ****         {
  59:/Users/jonask/Music/Daisy/libDaisy/src/per/sai.h ****             SAI_8KHZ,
  60:/Users/jonask/Music/Daisy/libDaisy/src/per/sai.h ****             SAI_16KHZ,
  61:/Users/jonask/Music/Daisy/libDaisy/src/per/sai.h ****             SAI_32KHZ,
  62:/Users/jonask/Music/Daisy/libDaisy/src/per/sai.h ****             SAI_48KHZ,
  63:/Users/jonask/Music/Daisy/libDaisy/src/per/sai.h ****             SAI_96KHZ,
  64:/Users/jonask/Music/Daisy/libDaisy/src/per/sai.h ****         };
  65:/Users/jonask/Music/Daisy/libDaisy/src/per/sai.h **** 
  66:/Users/jonask/Music/Daisy/libDaisy/src/per/sai.h ****         /** Bit Depth that the hardware expects to be transferred to/from the device. */
ARM GAS  /var/folders/xd/16jvbr6j24q9nvtpm0qtw3240000gn/T//cch9jPA2.s 			page 23


  67:/Users/jonask/Music/Daisy/libDaisy/src/per/sai.h ****         enum class BitDepth
  68:/Users/jonask/Music/Daisy/libDaisy/src/per/sai.h ****         {
  69:/Users/jonask/Music/Daisy/libDaisy/src/per/sai.h ****             SAI_16BIT,
  70:/Users/jonask/Music/Daisy/libDaisy/src/per/sai.h ****             SAI_24BIT,
  71:/Users/jonask/Music/Daisy/libDaisy/src/per/sai.h ****             SAI_32BIT,
  72:/Users/jonask/Music/Daisy/libDaisy/src/per/sai.h ****         };
  73:/Users/jonask/Music/Daisy/libDaisy/src/per/sai.h **** 
  74:/Users/jonask/Music/Daisy/libDaisy/src/per/sai.h ****         /** Specifies whether a particular block is the master or the slave 
  75:/Users/jonask/Music/Daisy/libDaisy/src/per/sai.h ****          ** If both are set to slave, no MCLK signal will be used, and it is
  76:/Users/jonask/Music/Daisy/libDaisy/src/per/sai.h ****          ** expected that the codec will have its own xtal.
  77:/Users/jonask/Music/Daisy/libDaisy/src/per/sai.h ****          */
  78:/Users/jonask/Music/Daisy/libDaisy/src/per/sai.h ****         enum class Sync
  79:/Users/jonask/Music/Daisy/libDaisy/src/per/sai.h ****         {
  80:/Users/jonask/Music/Daisy/libDaisy/src/per/sai.h ****             MASTER,
  81:/Users/jonask/Music/Daisy/libDaisy/src/per/sai.h ****             SLAVE,
  82:/Users/jonask/Music/Daisy/libDaisy/src/per/sai.h ****         };
  83:/Users/jonask/Music/Daisy/libDaisy/src/per/sai.h **** 
  84:/Users/jonask/Music/Daisy/libDaisy/src/per/sai.h ****         /** Specifies the direction for each peripheral block. */
  85:/Users/jonask/Music/Daisy/libDaisy/src/per/sai.h ****         enum class Direction
  86:/Users/jonask/Music/Daisy/libDaisy/src/per/sai.h ****         {
  87:/Users/jonask/Music/Daisy/libDaisy/src/per/sai.h ****             TRANSMIT,
  88:/Users/jonask/Music/Daisy/libDaisy/src/per/sai.h ****             RECEIVE,
  89:/Users/jonask/Music/Daisy/libDaisy/src/per/sai.h ****         };
  90:/Users/jonask/Music/Daisy/libDaisy/src/per/sai.h **** 
  91:/Users/jonask/Music/Daisy/libDaisy/src/per/sai.h ****         Peripheral periph;
  92:/Users/jonask/Music/Daisy/libDaisy/src/per/sai.h ****         struct
  93:/Users/jonask/Music/Daisy/libDaisy/src/per/sai.h ****         {
 505              		.loc 5 93 9 view .LVU157
 506              	.LBB608:
 507              	.LBI608:
 508              		.loc 4 204 15 view .LVU158
 509              		.loc 4 204 15 is_stmt 0 view .LVU159
 510              	.LBE608:
 511              	.LBB610:
 512              	.LBI610:
 513              		.loc 4 204 15 is_stmt 1 view .LVU160
 514              		.loc 4 204 15 is_stmt 0 view .LVU161
 515              	.LBE610:
 516              	.LBB611:
 517              	.LBI611:
 518              		.loc 4 204 15 is_stmt 1 view .LVU162
 519              		.loc 4 204 15 is_stmt 0 view .LVU163
 520              	.LBE611:
 521              	.LBB613:
 522              	.LBI613:
 523              		.loc 4 204 15 is_stmt 1 view .LVU164
 524              		.loc 4 204 15 is_stmt 0 view .LVU165
 525              	.LBE613:
 526              	.LBB614:
 527              	.LBI614:
 528              		.loc 4 204 15 is_stmt 1 view .LVU166
 529              		.loc 4 204 15 is_stmt 0 view .LVU167
 530              	.LBE614:
 531              	.LBE607:
 532              	.LBE606:
 260:time_machine_hardware.cpp ****         sai_config.periph          = SaiHandle::Config::Peripheral::SAI_1;
 533              		.loc 1 260 9 is_stmt 1 view .LVU168
ARM GAS  /var/folders/xd/16jvbr6j24q9nvtpm0qtw3240000gn/T//cch9jPA2.s 			page 24


 261:time_machine_hardware.cpp ****         sai_config.sr              = SaiHandle::Config::SampleRate::SAI_48KHZ;
 534              		.loc 1 261 9 view .LVU169
 262:time_machine_hardware.cpp ****         sai_config.bit_depth       = SaiHandle::Config::BitDepth::SAI_24BIT;
 535              		.loc 1 262 36 is_stmt 0 view .LVU170
 536 0078 0126     		movs	r6, #1
 261:time_machine_hardware.cpp ****         sai_config.sr              = SaiHandle::Config::SampleRate::SAI_48KHZ;
 537              		.loc 1 261 36 view .LVU171
 538 007a 0323     		movs	r3, #3
 263:time_machine_hardware.cpp ****         sai_config.a_sync          = SaiHandle::Config::Sync::MASTER;
 539              		.loc 1 263 36 view .LVU172
 540 007c 0024     		movs	r4, #0
 264:time_machine_hardware.cpp ****         sai_config.b_sync          = SaiHandle::Config::Sync::SLAVE;
 265:time_machine_hardware.cpp ****         sai_config.a_dir           = SaiHandle::Config::Direction::RECEIVE;
 266:time_machine_hardware.cpp ****         sai_config.b_dir           = SaiHandle::Config::Direction::TRANSMIT;
 267:time_machine_hardware.cpp ****         sai_config.pin_config.fs   = Pin(PORTE, 4);
 268:time_machine_hardware.cpp ****         sai_config.pin_config.mclk = Pin(PORTE, 2);
 269:time_machine_hardware.cpp ****         sai_config.pin_config.sck  = Pin(PORTE, 5);
 270:time_machine_hardware.cpp ****         sai_config.pin_config.sa   = Pin(PORTE, 6);
 271:time_machine_hardware.cpp ****         sai_config.pin_config.sb   = Pin(PORTE, 3);
 272:time_machine_hardware.cpp ****         SaiHandle sai_1_handle;
 273:time_machine_hardware.cpp ****         sai_1_handle.Init(sai_config);
 541              		.loc 1 273 26 view .LVU173
 542 007e 1DA9     		add	r1, sp, #116
 543 0080 05A8     		add	r0, sp, #20
 260:time_machine_hardware.cpp ****         sai_config.sr              = SaiHandle::Config::SampleRate::SAI_48KHZ;
 544              		.loc 1 260 36 view .LVU174
 545 0082 1D94     		str	r4, [sp, #116]
 546              	.LBB623:
 547              	.LBB624:
 548              	.LBB625:
  94:/Users/jonask/Music/Daisy/libDaisy/src/per/sai.h ****             Pin mclk, fs, sck, sa, sb;
  95:/Users/jonask/Music/Daisy/libDaisy/src/per/sai.h ****         } pin_config;
  96:/Users/jonask/Music/Daisy/libDaisy/src/per/sai.h ****         SampleRate sr;
  97:/Users/jonask/Music/Daisy/libDaisy/src/per/sai.h ****         BitDepth   bit_depth;
  98:/Users/jonask/Music/Daisy/libDaisy/src/per/sai.h ****         Sync       a_sync, b_sync;
  99:/Users/jonask/Music/Daisy/libDaisy/src/per/sai.h ****         Direction  a_dir, b_dir;
 100:/Users/jonask/Music/Daisy/libDaisy/src/per/sai.h ****     };
 101:/Users/jonask/Music/Daisy/libDaisy/src/per/sai.h **** 
 102:/Users/jonask/Music/Daisy/libDaisy/src/per/sai.h ****     /** Return values for SAI functions */
 103:/Users/jonask/Music/Daisy/libDaisy/src/per/sai.h ****     enum class Result
 104:/Users/jonask/Music/Daisy/libDaisy/src/per/sai.h ****     {
 105:/Users/jonask/Music/Daisy/libDaisy/src/per/sai.h ****         OK,
 106:/Users/jonask/Music/Daisy/libDaisy/src/per/sai.h ****         ERR,
 107:/Users/jonask/Music/Daisy/libDaisy/src/per/sai.h ****     };
 108:/Users/jonask/Music/Daisy/libDaisy/src/per/sai.h **** 
 109:/Users/jonask/Music/Daisy/libDaisy/src/per/sai.h ****     SaiHandle() : pimpl_(nullptr) {}
 549              		.loc 5 109 33 view .LVU175
 550 0084 0594     		str	r4, [sp, #20]
 551              	.LBE625:
 552              	.LBE624:
 553              	.LBE623:
 262:time_machine_hardware.cpp ****         sai_config.a_sync          = SaiHandle::Config::Sync::MASTER;
 554              		.loc 1 262 36 view .LVU176
 555 0086 CDE92136 		strd	r3, r6, [sp, #132]
 263:time_machine_hardware.cpp ****         sai_config.b_sync          = SaiHandle::Config::Sync::SLAVE;
 556              		.loc 1 263 9 is_stmt 1 view .LVU177
 557              	.LBB626:
ARM GAS  /var/folders/xd/16jvbr6j24q9nvtpm0qtw3240000gn/T//cch9jPA2.s 			page 25


 558              	.LBB621:
 559              	.LBB617:
 560              	.LBB609:
 561              		.loc 4 204 21 is_stmt 0 view .LVU178
 562 008a A94B     		ldr	r3, .L64+4
 563 008c 1E93     		str	r3, [sp, #120]
 564              	.LBE609:
 565              	.LBE617:
 566              	.LBB618:
 567              	.LBB612:
 568 008e 03F10073 		add	r3, r3, #33554432
 569 0092 03F54073 		add	r3, r3, #768
 570 0096 1F93     		str	r3, [sp, #124]
 571              	.LBE612:
 572              	.LBE618:
 573              	.LBB619:
 574              	.LBB615:
 575 0098 4FF44173 		mov	r3, #772
 576              	.LBE615:
 577              	.LBE619:
 578              	.LBE621:
 579              	.LBE626:
 264:time_machine_hardware.cpp ****         sai_config.a_dir           = SaiHandle::Config::Direction::RECEIVE;
 580              		.loc 1 264 36 view .LVU179
 581 009c CDE92346 		strd	r4, r6, [sp, #140]
 265:time_machine_hardware.cpp ****         sai_config.b_dir           = SaiHandle::Config::Direction::TRANSMIT;
 582              		.loc 1 265 9 is_stmt 1 view .LVU180
 266:time_machine_hardware.cpp ****         sai_config.pin_config.fs   = Pin(PORTE, 4);
 583              		.loc 1 266 36 is_stmt 0 view .LVU181
 584 00a0 CDE92564 		strd	r6, r4, [sp, #148]
 267:time_machine_hardware.cpp ****         sai_config.pin_config.mclk = Pin(PORTE, 2);
 585              		.loc 1 267 9 is_stmt 1 view .LVU182
 586              	.LVL28:
 587              	.LBB627:
 588              	.LBI627:
 201:/Users/jonask/Music/Daisy/libDaisy/src/daisy_core.h **** 
 589              		.loc 4 201 15 view .LVU183
 201:/Users/jonask/Music/Daisy/libDaisy/src/daisy_core.h **** 
 590              		.loc 4 201 15 is_stmt 0 view .LVU184
 591              	.LBE627:
 268:time_machine_hardware.cpp ****         sai_config.pin_config.sck  = Pin(PORTE, 5);
 592              		.loc 1 268 9 is_stmt 1 view .LVU185
 593              	.LBB628:
 594              	.LBI628:
 201:/Users/jonask/Music/Daisy/libDaisy/src/daisy_core.h **** 
 595              		.loc 4 201 15 view .LVU186
 201:/Users/jonask/Music/Daisy/libDaisy/src/daisy_core.h **** 
 596              		.loc 4 201 15 is_stmt 0 view .LVU187
 597              	.LBE628:
 269:time_machine_hardware.cpp ****         sai_config.pin_config.sa   = Pin(PORTE, 6);
 598              		.loc 1 269 9 is_stmt 1 view .LVU188
 599              	.LBB629:
 600              	.LBI629:
 201:/Users/jonask/Music/Daisy/libDaisy/src/daisy_core.h **** 
 601              		.loc 4 201 15 view .LVU189
 201:/Users/jonask/Music/Daisy/libDaisy/src/daisy_core.h **** 
 602              		.loc 4 201 15 is_stmt 0 view .LVU190
ARM GAS  /var/folders/xd/16jvbr6j24q9nvtpm0qtw3240000gn/T//cch9jPA2.s 			page 26


 603              	.LBE629:
 270:time_machine_hardware.cpp ****         sai_config.pin_config.sb   = Pin(PORTE, 3);
 604              		.loc 1 270 9 is_stmt 1 view .LVU191
 605              	.LBB630:
 606              	.LBI630:
 201:/Users/jonask/Music/Daisy/libDaisy/src/daisy_core.h **** 
 607              		.loc 4 201 15 view .LVU192
 201:/Users/jonask/Music/Daisy/libDaisy/src/daisy_core.h **** 
 608              		.loc 4 201 15 is_stmt 0 view .LVU193
 609              	.LBE630:
 271:time_machine_hardware.cpp ****         SaiHandle sai_1_handle;
 610              		.loc 1 271 9 is_stmt 1 view .LVU194
 611              	.LBB631:
 612              	.LBI631:
 201:/Users/jonask/Music/Daisy/libDaisy/src/daisy_core.h **** 
 613              		.loc 4 201 15 view .LVU195
 201:/Users/jonask/Music/Daisy/libDaisy/src/daisy_core.h **** 
 614              		.loc 4 201 15 is_stmt 0 view .LVU196
 615              	.LBE631:
 616              	.LBB632:
 617              	.LBB622:
 618              	.LBB620:
 619              	.LBB616:
 620              		.loc 4 204 21 view .LVU197
 621 00a4 ADF88030 		strh	r3, [sp, #128]	@ movhi
 622              	.LBE616:
 623              	.LBE620:
 624              	.LBE622:
 625              	.LBE632:
 272:time_machine_hardware.cpp ****         sai_1_handle.Init(sai_config);
 626              		.loc 1 272 9 is_stmt 1 view .LVU198
 627              	.LVL29:
 628              	.LBB633:
 629              	.LBI623:
 630              		.loc 5 109 5 view .LVU199
 631              		.loc 5 109 5 is_stmt 0 view .LVU200
 632              	.LBE633:
 633              		.loc 1 273 9 is_stmt 1 view .LVU201
 634              		.loc 1 273 26 is_stmt 0 view .LVU202
 635 00a8 FFF7FEFF 		bl	_ZN5daisy9SaiHandle4InitERKNS0_6ConfigE
 636              	.LVL30:
 274:time_machine_hardware.cpp **** 
 275:time_machine_hardware.cpp ****         I2CHandle::Config i2c_cfg;
 637              		.loc 1 275 9 is_stmt 1 view .LVU203
 638              	.LBB634:
 639              	.LBI634:
 640              		.file 6 "/Users/jonask/Music/Daisy/libDaisy/src/per/i2c.h"
   1:/Users/jonask/Music/Daisy/libDaisy/src/per/i2c.h **** #pragma once
   2:/Users/jonask/Music/Daisy/libDaisy/src/per/i2c.h **** #include "util/hal_map.h"
   3:/Users/jonask/Music/Daisy/libDaisy/src/per/i2c.h **** #include "daisy_core.h"
   4:/Users/jonask/Music/Daisy/libDaisy/src/per/i2c.h **** 
   5:/Users/jonask/Music/Daisy/libDaisy/src/per/i2c.h **** namespace daisy
   6:/Users/jonask/Music/Daisy/libDaisy/src/per/i2c.h **** {
   7:/Users/jonask/Music/Daisy/libDaisy/src/per/i2c.h **** /** A handle for interacting with an I2C peripheral. This is a dumb
   8:/Users/jonask/Music/Daisy/libDaisy/src/per/i2c.h ****  *  gateway that internally points to one of the four I2C peripherals
   9:/Users/jonask/Music/Daisy/libDaisy/src/per/i2c.h ****  *  after it was initialised. It can then be copied and passed around.
  10:/Users/jonask/Music/Daisy/libDaisy/src/per/i2c.h ****  *  Use an I2CHandle like this:
ARM GAS  /var/folders/xd/16jvbr6j24q9nvtpm0qtw3240000gn/T//cch9jPA2.s 			page 27


  11:/Users/jonask/Music/Daisy/libDaisy/src/per/i2c.h ****  *  
  12:/Users/jonask/Music/Daisy/libDaisy/src/per/i2c.h ****  *      // setup the configuration
  13:/Users/jonask/Music/Daisy/libDaisy/src/per/i2c.h ****  *      I2CHandle::Config i2c_conf;
  14:/Users/jonask/Music/Daisy/libDaisy/src/per/i2c.h ****  *      i2c_conf.periph = I2CHandle::Config::Peripheral::I2C_1;
  15:/Users/jonask/Music/Daisy/libDaisy/src/per/i2c.h ****  *      i2c_conf.speed  = I2CHandle::Config::Speed::I2C_400KHZ;
  16:/Users/jonask/Music/Daisy/libDaisy/src/per/i2c.h ****  *      i2c_conf.mode   = I2CHandle::Config::Mode::Master;
  17:/Users/jonask/Music/Daisy/libDaisy/src/per/i2c.h ****  *      i2c_conf.pin_config.scl  = {DSY_GPIOB, 8};
  18:/Users/jonask/Music/Daisy/libDaisy/src/per/i2c.h ****  *      i2c_conf.pin_config.sda  = {DSY_GPIOB, 9};
  19:/Users/jonask/Music/Daisy/libDaisy/src/per/i2c.h ****  *      // initialise the peripheral
  20:/Users/jonask/Music/Daisy/libDaisy/src/per/i2c.h ****  *      I2CHandle i2c;
  21:/Users/jonask/Music/Daisy/libDaisy/src/per/i2c.h ****  *      i2c.Init(i2c_conf);
  22:/Users/jonask/Music/Daisy/libDaisy/src/per/i2c.h ****  *      // now i2c points to the corresponding peripheral and can be used.
  23:/Users/jonask/Music/Daisy/libDaisy/src/per/i2c.h ****  *      i2c.TransmitBlocking( ... );
  24:/Users/jonask/Music/Daisy/libDaisy/src/per/i2c.h ****  */
  25:/Users/jonask/Music/Daisy/libDaisy/src/per/i2c.h **** class I2CHandle
  26:/Users/jonask/Music/Daisy/libDaisy/src/per/i2c.h **** {
  27:/Users/jonask/Music/Daisy/libDaisy/src/per/i2c.h ****   public:
  28:/Users/jonask/Music/Daisy/libDaisy/src/per/i2c.h ****     /** Contains settings for initialising an I2C interface. */
  29:/Users/jonask/Music/Daisy/libDaisy/src/per/i2c.h ****     struct Config
 641              		.loc 6 29 12 view .LVU204
 642              	.LBB635:
 643              	.LBB636:
 644              	.LBI636:
  30:/Users/jonask/Music/Daisy/libDaisy/src/per/i2c.h ****     {
  31:/Users/jonask/Music/Daisy/libDaisy/src/per/i2c.h ****         /** Specifies whether the interface will operate in master or slave mode. */
  32:/Users/jonask/Music/Daisy/libDaisy/src/per/i2c.h ****         enum class Mode
  33:/Users/jonask/Music/Daisy/libDaisy/src/per/i2c.h ****         {
  34:/Users/jonask/Music/Daisy/libDaisy/src/per/i2c.h ****             I2C_MASTER,
  35:/Users/jonask/Music/Daisy/libDaisy/src/per/i2c.h ****             I2C_SLAVE,
  36:/Users/jonask/Music/Daisy/libDaisy/src/per/i2c.h ****         };
  37:/Users/jonask/Music/Daisy/libDaisy/src/per/i2c.h **** 
  38:/Users/jonask/Music/Daisy/libDaisy/src/per/i2c.h ****         /** Specifices the internal peripheral to use (these are mapped to different pins on the ha
  39:/Users/jonask/Music/Daisy/libDaisy/src/per/i2c.h ****         enum class Peripheral
  40:/Users/jonask/Music/Daisy/libDaisy/src/per/i2c.h ****         {
  41:/Users/jonask/Music/Daisy/libDaisy/src/per/i2c.h ****             I2C_1 = 0, /**< & */
  42:/Users/jonask/Music/Daisy/libDaisy/src/per/i2c.h ****             I2C_2,     /**< & */
  43:/Users/jonask/Music/Daisy/libDaisy/src/per/i2c.h ****             I2C_3,     /**< & */
  44:/Users/jonask/Music/Daisy/libDaisy/src/per/i2c.h ****             I2C_4,     /**< & */
  45:/Users/jonask/Music/Daisy/libDaisy/src/per/i2c.h ****         };
  46:/Users/jonask/Music/Daisy/libDaisy/src/per/i2c.h **** 
  47:/Users/jonask/Music/Daisy/libDaisy/src/per/i2c.h ****         /** Rate at which the clock/data will be sent/received. The device being used will have max
  48:/Users/jonask/Music/Daisy/libDaisy/src/per/i2c.h ****          *  1MHZ Mode is currently 886kHz
  49:/Users/jonask/Music/Daisy/libDaisy/src/per/i2c.h ****          */
  50:/Users/jonask/Music/Daisy/libDaisy/src/per/i2c.h ****         enum class Speed
  51:/Users/jonask/Music/Daisy/libDaisy/src/per/i2c.h ****         {
  52:/Users/jonask/Music/Daisy/libDaisy/src/per/i2c.h ****             I2C_100KHZ, /**< & */
  53:/Users/jonask/Music/Daisy/libDaisy/src/per/i2c.h ****             I2C_400KHZ, /**< & */
  54:/Users/jonask/Music/Daisy/libDaisy/src/per/i2c.h ****             I2C_1MHZ,   /**< & */
  55:/Users/jonask/Music/Daisy/libDaisy/src/per/i2c.h ****         };
  56:/Users/jonask/Music/Daisy/libDaisy/src/per/i2c.h **** 
  57:/Users/jonask/Music/Daisy/libDaisy/src/per/i2c.h ****         Peripheral periph; /**< & */
  58:/Users/jonask/Music/Daisy/libDaisy/src/per/i2c.h ****         struct
  59:/Users/jonask/Music/Daisy/libDaisy/src/per/i2c.h ****         {
 645              		.loc 6 59 9 view .LVU205
 646              	.LBB637:
 647              	.LBI637:
 648              		.loc 4 204 15 view .LVU206
ARM GAS  /var/folders/xd/16jvbr6j24q9nvtpm0qtw3240000gn/T//cch9jPA2.s 			page 28


 649              		.loc 4 204 15 is_stmt 0 view .LVU207
 650              	.LBE637:
 651              	.LBB640:
 652              	.LBI640:
 653              		.loc 4 204 15 is_stmt 1 view .LVU208
 654              		.loc 4 204 15 is_stmt 0 view .LVU209
 655              	.LBE640:
 656              	.LBE636:
 657              	.LBE635:
 658              	.LBE634:
 276:time_machine_hardware.cpp ****         i2c_cfg.periph         = I2CHandle::Config::Peripheral::I2C_2;
 659              		.loc 1 276 9 is_stmt 1 view .LVU210
 277:time_machine_hardware.cpp ****         i2c_cfg.mode           = I2CHandle::Config::Mode::I2C_MASTER;
 660              		.loc 1 277 9 view .LVU211
 278:time_machine_hardware.cpp ****         i2c_cfg.speed          = I2CHandle::Config::Speed::I2C_400KHZ;
 661              		.loc 1 278 9 view .LVU212
 279:time_machine_hardware.cpp ****         i2c_cfg.pin_config.scl = Pin(PORTB, 10);
 662              		.loc 1 279 9 view .LVU213
 663              	.LBB648:
 664              	.LBI648:
 201:/Users/jonask/Music/Daisy/libDaisy/src/daisy_core.h **** 
 665              		.loc 4 201 15 view .LVU214
 201:/Users/jonask/Music/Daisy/libDaisy/src/daisy_core.h **** 
 666              		.loc 4 201 15 is_stmt 0 view .LVU215
 667              	.LBE648:
 280:time_machine_hardware.cpp ****         i2c_cfg.pin_config.sda = Pin(PORTB, 11);
 668              		.loc 1 280 9 is_stmt 1 view .LVU216
 669              	.LBB649:
 670              	.LBI649:
 201:/Users/jonask/Music/Daisy/libDaisy/src/daisy_core.h **** 
 671              		.loc 4 201 15 view .LVU217
 201:/Users/jonask/Music/Daisy/libDaisy/src/daisy_core.h **** 
 672              		.loc 4 201 15 is_stmt 0 view .LVU218
 673              	.LBE649:
 674              	.LBB650:
 675              	.LBB645:
 676              	.LBB643:
 677              	.LBB641:
 678              	.LBB638:
 679              		.loc 4 204 21 view .LVU219
 680 00ac A14B     		ldr	r3, .L64+8
 681              	.LBE638:
 682              	.LBE641:
 683              	.LBE643:
 684              	.LBE645:
 685              	.LBE650:
 281:time_machine_hardware.cpp ****         I2CHandle i2c2;
 282:time_machine_hardware.cpp ****         i2c2.Init(i2c_cfg);
 686              		.loc 1 282 18 view .LVU220
 687 00ae 0DA9     		add	r1, sp, #52
 688 00b0 06A8     		add	r0, sp, #24
 689              	.LBB651:
 690              	.LBB652:
 691              	.LBB653:
  60:/Users/jonask/Music/Daisy/libDaisy/src/per/i2c.h ****             Pin scl;  /**< & */
  61:/Users/jonask/Music/Daisy/libDaisy/src/per/i2c.h ****             Pin sda;  /**< & */
  62:/Users/jonask/Music/Daisy/libDaisy/src/per/i2c.h ****         } pin_config; /**< & */
ARM GAS  /var/folders/xd/16jvbr6j24q9nvtpm0qtw3240000gn/T//cch9jPA2.s 			page 29


  63:/Users/jonask/Music/Daisy/libDaisy/src/per/i2c.h **** 
  64:/Users/jonask/Music/Daisy/libDaisy/src/per/i2c.h ****         Speed speed; /**< & */
  65:/Users/jonask/Music/Daisy/libDaisy/src/per/i2c.h ****         Mode  mode;  /**< & */
  66:/Users/jonask/Music/Daisy/libDaisy/src/per/i2c.h ****         // 0x10 is chosen as a default to avoid conflicts with reserved addresses
  67:/Users/jonask/Music/Daisy/libDaisy/src/per/i2c.h ****         uint8_t address = 0x10; /**< & */
  68:/Users/jonask/Music/Daisy/libDaisy/src/per/i2c.h ****     };
  69:/Users/jonask/Music/Daisy/libDaisy/src/per/i2c.h **** 
  70:/Users/jonask/Music/Daisy/libDaisy/src/per/i2c.h ****     /** Return values for I2C functions. */
  71:/Users/jonask/Music/Daisy/libDaisy/src/per/i2c.h ****     enum class Result
  72:/Users/jonask/Music/Daisy/libDaisy/src/per/i2c.h ****     {
  73:/Users/jonask/Music/Daisy/libDaisy/src/per/i2c.h ****         OK, /**< & */
  74:/Users/jonask/Music/Daisy/libDaisy/src/per/i2c.h ****         ERR /**< & */
  75:/Users/jonask/Music/Daisy/libDaisy/src/per/i2c.h ****     };
  76:/Users/jonask/Music/Daisy/libDaisy/src/per/i2c.h **** 
  77:/Users/jonask/Music/Daisy/libDaisy/src/per/i2c.h ****     enum class Direction
  78:/Users/jonask/Music/Daisy/libDaisy/src/per/i2c.h ****     {
  79:/Users/jonask/Music/Daisy/libDaisy/src/per/i2c.h ****         TRANSMIT, /**< & */
  80:/Users/jonask/Music/Daisy/libDaisy/src/per/i2c.h ****         RECEIVE,  /**< & */
  81:/Users/jonask/Music/Daisy/libDaisy/src/per/i2c.h ****     };
  82:/Users/jonask/Music/Daisy/libDaisy/src/per/i2c.h **** 
  83:/Users/jonask/Music/Daisy/libDaisy/src/per/i2c.h ****     I2CHandle() : pimpl_(nullptr) {}
 692              		.loc 6 83 33 view .LVU221
 693 00b2 0694     		str	r4, [sp, #24]
 694              	.LBE653:
 695              	.LBE652:
 696              	.LBE651:
 697              	.LBB654:
 698              	.LBB646:
 699              	.LBB644:
 700              	.LBB642:
 701              	.LBB639:
 702              		.loc 4 204 21 view .LVU222
 703 00b4 0E93     		str	r3, [sp, #56]
 704              	.LBE639:
 705              	.LBE642:
 706              	.LBE644:
  29:/Users/jonask/Music/Daisy/libDaisy/src/per/i2c.h ****     {
 707              		.loc 6 29 12 view .LVU223
 708 00b6 1023     		movs	r3, #16
 709              	.LBE646:
 710              	.LBE654:
 277:time_machine_hardware.cpp ****         i2c_cfg.speed          = I2CHandle::Config::Speed::I2C_400KHZ;
 711              		.loc 1 277 32 view .LVU224
 712 00b8 1094     		str	r4, [sp, #64]
 283:time_machine_hardware.cpp ****         codec.Init(i2c2);
 284:time_machine_hardware.cpp **** 
 285:time_machine_hardware.cpp ****         AudioHandle::Config audio_config;
 286:time_machine_hardware.cpp ****         audio_config.blocksize  = 48;
 287:time_machine_hardware.cpp ****         audio_config.samplerate = SaiHandle::Config::SampleRate::SAI_48KHZ;
 288:time_machine_hardware.cpp ****         audio_config.postgain   = 1.f;
 289:time_machine_hardware.cpp ****         audio.Init(audio_config, sai_1_handle);
 713              		.loc 1 289 19 view .LVU225
 714 00ba 05F11004 		add	r4, r5, #16
 715              	.LBB655:
 716              	.LBB647:
  29:/Users/jonask/Music/Daisy/libDaisy/src/per/i2c.h ****     {
 717              		.loc 6 29 12 view .LVU226
ARM GAS  /var/folders/xd/16jvbr6j24q9nvtpm0qtw3240000gn/T//cch9jPA2.s 			page 30


 718 00be 8DF84430 		strb	r3, [sp, #68]
 719              	.LBE647:
 720              	.LBE655:
 281:time_machine_hardware.cpp ****         i2c2.Init(i2c_cfg);
 721              		.loc 1 281 9 is_stmt 1 view .LVU227
 722              	.LVL31:
 723              	.LBB656:
 724              	.LBI651:
 725              		.loc 6 83 5 view .LVU228
 726              		.loc 6 83 5 is_stmt 0 view .LVU229
 727              	.LBE656:
 282:time_machine_hardware.cpp ****         codec.Init(i2c2);
 728              		.loc 1 282 9 is_stmt 1 view .LVU230
 276:time_machine_hardware.cpp ****         i2c_cfg.mode           = I2CHandle::Config::Mode::I2C_MASTER;
 729              		.loc 1 276 32 is_stmt 0 view .LVU231
 730 00c2 0D96     		str	r6, [sp, #52]
 278:time_machine_hardware.cpp ****         i2c_cfg.pin_config.scl = Pin(PORTB, 10);
 731              		.loc 1 278 32 view .LVU232
 732 00c4 0F96     		str	r6, [sp, #60]
 282:time_machine_hardware.cpp ****         codec.Init(i2c2);
 733              		.loc 1 282 18 view .LVU233
 734 00c6 FFF7FEFF 		bl	_ZN5daisy9I2CHandle4InitERKNS0_6ConfigE
 735              	.LVL32:
 283:time_machine_hardware.cpp **** 
 736              		.loc 1 283 9 is_stmt 1 view .LVU234
 283:time_machine_hardware.cpp **** 
 737              		.loc 1 283 19 is_stmt 0 view .LVU235
 738 00ca 0699     		ldr	r1, [sp, #24]
 739 00cc 05F12000 		add	r0, r5, #32
 740 00d0 FFF7FEFF 		bl	_ZN5daisy7Pcm30604InitENS_9I2CHandleE
 741              	.LVL33:
 285:time_machine_hardware.cpp ****         audio_config.blocksize  = 48;
 742              		.loc 1 285 9 is_stmt 1 view .LVU236
 285:time_machine_hardware.cpp ****         audio_config.blocksize  = 48;
 743              		.loc 1 285 29 is_stmt 0 view .LVU237
 744 00d4 984B     		ldr	r3, .L64+12
 745 00d6 0DF1240C 		add	ip, sp, #36
 746 00da 3E46     		mov	r6, r7
 747 00dc 0FCB     		ldm	r3, {r0, r1, r2, r3}
 748 00de 8CE80F00 		stm	ip, {r0, r1, r2, r3}
 286:time_machine_hardware.cpp ****         audio_config.samplerate = SaiHandle::Config::SampleRate::SAI_48KHZ;
 749              		.loc 1 286 9 is_stmt 1 view .LVU238
 287:time_machine_hardware.cpp ****         audio_config.postgain   = 1.f;
 750              		.loc 1 287 9 view .LVU239
 288:time_machine_hardware.cpp ****         audio.Init(audio_config, sai_1_handle);
 751              		.loc 1 288 9 view .LVU240
 752              		.loc 1 289 9 view .LVU241
 753              		.loc 1 289 19 is_stmt 0 view .LVU242
 754 00e2 6146     		mov	r1, ip
 755 00e4 059A     		ldr	r2, [sp, #20]
 756 00e6 2046     		mov	r0, r4
 757 00e8 FFF7FEFF 		bl	_ZN5daisy11AudioHandle4InitERKNS0_6ConfigENS_9SaiHandleE
 758              	.LVL34:
 290:time_machine_hardware.cpp ****         callback_rate_ = AudioSampleRate() / AudioBlockSize();
 759              		.loc 1 290 9 is_stmt 1 view .LVU243
 760              	.LBB657:
 761              	.LBI657:
ARM GAS  /var/folders/xd/16jvbr6j24q9nvtpm0qtw3240000gn/T//cch9jPA2.s 			page 31


 291:time_machine_hardware.cpp **** 
 292:time_machine_hardware.cpp ****         /** ADC Init */
 293:time_machine_hardware.cpp ****         AdcChannelConfig adc_config[ADC_LAST + 7];
 294:time_machine_hardware.cpp **** 
 295:time_machine_hardware.cpp ****         /** Order of pins to match enum expectations */
 296:time_machine_hardware.cpp ****         Pin adc_pins[] = {
 297:time_machine_hardware.cpp ****             PIN_ADC_CTRL_1,
 298:time_machine_hardware.cpp ****             PIN_ADC_CTRL_2,
 299:time_machine_hardware.cpp ****             PIN_ADC_CTRL_3,
 300:time_machine_hardware.cpp ****             PIN_ADC_CTRL_4,
 301:time_machine_hardware.cpp ****             PIN_ADC_CTRL_8,
 302:time_machine_hardware.cpp ****             PIN_ADC_CTRL_7,
 303:time_machine_hardware.cpp ****             PIN_ADC_CTRL_5,
 304:time_machine_hardware.cpp ****             PIN_ADC_CTRL_6,
 305:time_machine_hardware.cpp ****             PIN_ADC_CTRL_9,
 306:time_machine_hardware.cpp ****             PIN_ADC_CTRL_10,
 307:time_machine_hardware.cpp ****             PIN_ADC_CTRL_11,
 308:time_machine_hardware.cpp ****             PIN_ADC_CTRL_12
 309:time_machine_hardware.cpp ****         };
 310:time_machine_hardware.cpp **** 
 311:time_machine_hardware.cpp ****         for (int i = 0; i < ADC_LAST; i++)
 312:time_machine_hardware.cpp ****         {
 313:time_machine_hardware.cpp ****             switch (i)
 314:time_machine_hardware.cpp ****             {
 315:time_machine_hardware.cpp ****                 case CV_1:
 316:time_machine_hardware.cpp ****                 case ADC_10:
 317:time_machine_hardware.cpp ****                 case ADC_11:
 318:time_machine_hardware.cpp ****                 case ADC_12:
 319:time_machine_hardware.cpp ****                     adc_config[i].InitMux(adc_pins[i], 8, MUX_A, MUX_B, MUX_C);
 320:time_machine_hardware.cpp ****                     break;
 321:time_machine_hardware.cpp **** 
 322:time_machine_hardware.cpp ****                 default:
 323:time_machine_hardware.cpp ****                     adc_config[i].InitSingle(adc_pins[i]);
 324:time_machine_hardware.cpp ****                     break;
 325:time_machine_hardware.cpp ****             }
 326:time_machine_hardware.cpp ****         }
 327:time_machine_hardware.cpp **** 
 328:time_machine_hardware.cpp ****         adc.Init(adc_config, ADC_LAST);
 329:time_machine_hardware.cpp **** 
 330:time_machine_hardware.cpp ****         /** Control Init */
 331:time_machine_hardware.cpp ****         for (size_t i = 0; i < ADC_LAST; i++)
 332:time_machine_hardware.cpp ****         {
 333:time_machine_hardware.cpp ****             switch (i) {
 334:time_machine_hardware.cpp ****                 case CV_1:
 335:time_machine_hardware.cpp ****                     for(int muxChannel = 0; muxChannel < 8; muxChannel++) {
 336:time_machine_hardware.cpp ****                         controls[i].InitBipolarCv(adc.GetMuxPtr(i, muxChannel), callback_rate_);
 337:time_machine_hardware.cpp ****                     }
 338:time_machine_hardware.cpp ****                     break;
 339:time_machine_hardware.cpp **** 
 340:time_machine_hardware.cpp ****                 case CV_2:
 341:time_machine_hardware.cpp ****                 case CV_3:
 342:time_machine_hardware.cpp ****                 case CV_4:
 343:time_machine_hardware.cpp ****                 case CV_5:
 344:time_machine_hardware.cpp ****                 case CV_6:
 345:time_machine_hardware.cpp ****                 case CV_7:
 346:time_machine_hardware.cpp ****                 case CV_8:
 347:time_machine_hardware.cpp ****                     controls[i].InitBipolarCv(adc.GetPtr(i), callback_rate_);
ARM GAS  /var/folders/xd/16jvbr6j24q9nvtpm0qtw3240000gn/T//cch9jPA2.s 			page 32


 348:time_machine_hardware.cpp ****                     break;
 349:time_machine_hardware.cpp **** 
 350:time_machine_hardware.cpp ****                 case ADC_9:
 351:time_machine_hardware.cpp ****                     controls[i].Init(adc.GetPtr(i), callback_rate_);
 352:time_machine_hardware.cpp ****                     break;
 353:time_machine_hardware.cpp **** 
 354:time_machine_hardware.cpp ****                 case ADC_10:
 355:time_machine_hardware.cpp ****                 case ADC_11:
 356:time_machine_hardware.cpp ****                 case ADC_12:
 357:time_machine_hardware.cpp ****                     for(int muxChannel = 0; muxChannel < 8; muxChannel++) {
 358:time_machine_hardware.cpp ****                         controls[i].Init(adc.GetMuxPtr(i, muxChannel), callback_rate_);
 359:time_machine_hardware.cpp ****                     }
 360:time_machine_hardware.cpp ****                     break;
 361:time_machine_hardware.cpp ****             }
 362:time_machine_hardware.cpp ****         }
 363:time_machine_hardware.cpp **** 
 364:time_machine_hardware.cpp ****         /** Fixed-function Digital I/O */
 365:time_machine_hardware.cpp ****         user_led.Init(PIN_USER_LED, GPIO::Mode::OUTPUT);
 366:time_machine_hardware.cpp **** 
 367:time_machine_hardware.cpp ****         gate_in_1.Init(B10);
 368:time_machine_hardware.cpp ****         gate_in_2.Init(B9);
 369:time_machine_hardware.cpp **** 
 370:time_machine_hardware.cpp ****         /** DAC init */
 371:time_machine_hardware.cpp ****         pimpl_->InitDac();
 372:time_machine_hardware.cpp **** 
 373:time_machine_hardware.cpp ****         /** Start any background stuff */
 374:time_machine_hardware.cpp ****         StartAdc();
 375:time_machine_hardware.cpp ****         StartDac();
 376:time_machine_hardware.cpp ****     }
 377:time_machine_hardware.cpp **** 
 378:time_machine_hardware.cpp ****     void TimeMachineHardware::StartAudio(AudioHandle::AudioCallback cb)
 379:time_machine_hardware.cpp ****     {
 380:time_machine_hardware.cpp ****         audio.Start(cb);
 381:time_machine_hardware.cpp ****     }
 382:time_machine_hardware.cpp **** 
 383:time_machine_hardware.cpp ****     void TimeMachineHardware::StartAudio(AudioHandle::InterleavingAudioCallback cb)
 384:time_machine_hardware.cpp ****     {
 385:time_machine_hardware.cpp ****         audio.Start(cb);
 386:time_machine_hardware.cpp ****     }
 387:time_machine_hardware.cpp **** 
 388:time_machine_hardware.cpp ****     void TimeMachineHardware::ChangeAudioCallback(AudioHandle::AudioCallback cb)
 389:time_machine_hardware.cpp ****     {
 390:time_machine_hardware.cpp ****         audio.ChangeCallback(cb);
 391:time_machine_hardware.cpp ****     }
 392:time_machine_hardware.cpp **** 
 393:time_machine_hardware.cpp ****     void TimeMachineHardware::ChangeAudioCallback(AudioHandle::InterleavingAudioCallback cb)
 394:time_machine_hardware.cpp ****     {
 395:time_machine_hardware.cpp ****         audio.ChangeCallback(cb);
 396:time_machine_hardware.cpp ****     }
 397:time_machine_hardware.cpp **** 
 398:time_machine_hardware.cpp ****     void TimeMachineHardware::StopAudio() { audio.Stop(); }
 399:time_machine_hardware.cpp **** 
 400:time_machine_hardware.cpp ****     void TimeMachineHardware::SetAudioBlockSize(size_t size)
 401:time_machine_hardware.cpp ****     {
 402:time_machine_hardware.cpp ****         audio.SetBlockSize(size);
 403:time_machine_hardware.cpp ****         callback_rate_ = AudioSampleRate() / AudioBlockSize();
 404:time_machine_hardware.cpp ****         for (size_t i = 0; i < ADC_LAST; i++)
ARM GAS  /var/folders/xd/16jvbr6j24q9nvtpm0qtw3240000gn/T//cch9jPA2.s 			page 33


 405:time_machine_hardware.cpp ****         {
 406:time_machine_hardware.cpp ****             controls[i].SetSampleRate(callback_rate_);
 407:time_machine_hardware.cpp ****         }
 408:time_machine_hardware.cpp ****     }
 409:time_machine_hardware.cpp **** 
 410:time_machine_hardware.cpp ****     void TimeMachineHardware::SetAudioSampleRate(float sr)
 411:time_machine_hardware.cpp ****     {
 412:time_machine_hardware.cpp ****         SaiHandle::Config::SampleRate sai_sr;
 413:time_machine_hardware.cpp ****         switch (int(sr))
 414:time_machine_hardware.cpp ****         {
 415:time_machine_hardware.cpp ****             case 8000:
 416:time_machine_hardware.cpp ****                 sai_sr = SaiHandle::Config::SampleRate::SAI_8KHZ;
 417:time_machine_hardware.cpp ****                 break;
 418:time_machine_hardware.cpp **** 
 419:time_machine_hardware.cpp ****             case 16000:
 420:time_machine_hardware.cpp ****                 sai_sr = SaiHandle::Config::SampleRate::SAI_16KHZ;
 421:time_machine_hardware.cpp ****                 break;
 422:time_machine_hardware.cpp **** 
 423:time_machine_hardware.cpp ****             case 32000:
 424:time_machine_hardware.cpp ****                 sai_sr = SaiHandle::Config::SampleRate::SAI_32KHZ;
 425:time_machine_hardware.cpp ****                 break;
 426:time_machine_hardware.cpp **** 
 427:time_machine_hardware.cpp ****             case 48000:
 428:time_machine_hardware.cpp ****                 sai_sr = SaiHandle::Config::SampleRate::SAI_48KHZ;
 429:time_machine_hardware.cpp ****                 break;
 430:time_machine_hardware.cpp **** 
 431:time_machine_hardware.cpp ****             case 96000:
 432:time_machine_hardware.cpp ****                 sai_sr = SaiHandle::Config::SampleRate::SAI_96KHZ;
 433:time_machine_hardware.cpp ****                 break;
 434:time_machine_hardware.cpp **** 
 435:time_machine_hardware.cpp ****             default:
 436:time_machine_hardware.cpp ****                 sai_sr = SaiHandle::Config::SampleRate::SAI_48KHZ;
 437:time_machine_hardware.cpp ****                 break;
 438:time_machine_hardware.cpp ****         }
 439:time_machine_hardware.cpp **** 
 440:time_machine_hardware.cpp ****         audio.SetSampleRate(sai_sr);
 441:time_machine_hardware.cpp ****         callback_rate_ = AudioSampleRate() / AudioBlockSize();
 442:time_machine_hardware.cpp ****         for (size_t i = 0; i < ADC_LAST; i++)
 443:time_machine_hardware.cpp ****         {
 444:time_machine_hardware.cpp ****             controls[i].SetSampleRate(callback_rate_);
 445:time_machine_hardware.cpp ****         }
 446:time_machine_hardware.cpp ****     }
 447:time_machine_hardware.cpp **** 
 448:time_machine_hardware.cpp ****     void TimeMachineHardware::SetAudioSampleRate(SaiHandle::Config::SampleRate sample_rate)
 449:time_machine_hardware.cpp ****     {
 450:time_machine_hardware.cpp ****         audio.SetSampleRate(sample_rate);
 451:time_machine_hardware.cpp ****         callback_rate_ = AudioSampleRate() / AudioBlockSize();
 452:time_machine_hardware.cpp ****         for (size_t i = 0; i < ADC_LAST; i++)
 453:time_machine_hardware.cpp ****         {
 454:time_machine_hardware.cpp ****             controls[i].SetSampleRate(callback_rate_);
 455:time_machine_hardware.cpp ****         }
 456:time_machine_hardware.cpp ****     }
 457:time_machine_hardware.cpp **** 
 458:time_machine_hardware.cpp ****     size_t TimeMachineHardware::AudioBlockSize()
 459:time_machine_hardware.cpp ****     {
 460:time_machine_hardware.cpp ****         return audio.GetConfig().blocksize;
 461:time_machine_hardware.cpp ****     }
ARM GAS  /var/folders/xd/16jvbr6j24q9nvtpm0qtw3240000gn/T//cch9jPA2.s 			page 34


 462:time_machine_hardware.cpp **** 
 463:time_machine_hardware.cpp ****     float TimeMachineHardware::AudioSampleRate() { return audio.GetSampleRate(); }
 762              		.loc 1 463 11 view .LVU244
 763              	.LBB658:
 764              		.loc 1 463 52 view .LVU245
 765              		.loc 1 463 78 is_stmt 0 view .LVU246
 766 00ec 2046     		mov	r0, r4
 767 00ee FFF7FEFF 		bl	_ZN5daisy11AudioHandle13GetSampleRateEv
 768              	.LVL35:
 769              	.LBE658:
 770              	.LBE657:
 771              	.LBB660:
 772              	.LBB661:
 460:time_machine_hardware.cpp ****     }
 773              		.loc 1 460 32 view .LVU247
 774 00f2 2046     		mov	r0, r4
 775              	.LBE661:
 776              	.LBE660:
 777              	.LBB663:
 778              	.LBB659:
 779              		.loc 1 463 78 view .LVU248
 780 00f4 B0EE408A 		vmov.f32	s16, s0
 781              	.LVL36:
 782              		.loc 1 463 78 view .LVU249
 783              	.LBE659:
 784              	.LBE663:
 785              	.LBB664:
 786              	.LBI660:
 458:time_machine_hardware.cpp ****     {
 787              		.loc 1 458 12 is_stmt 1 view .LVU250
 788              	.LBB662:
 460:time_machine_hardware.cpp ****     }
 789              		.loc 1 460 9 view .LVU251
 460:time_machine_hardware.cpp ****     }
 790              		.loc 1 460 32 is_stmt 0 view .LVU252
 791 00f8 FFF7FEFF 		bl	_ZNK5daisy11AudioHandle9GetConfigEv
 792              	.LVL37:
 460:time_machine_hardware.cpp ****     }
 793              		.loc 1 460 32 view .LVU253
 794              	.LBE662:
 795              	.LBE664:
 290:time_machine_hardware.cpp **** 
 796              		.loc 1 290 44 view .LVU254
 797 00fc D0ED007A 		vldr.32	s15, [r0]	@ int
 798 0100 3BA9     		add	r1, sp, #236
 799 0102 0DF5E56C 		add	ip, sp, #1832
 800 0106 F8EE677A 		vcvt.f32.u32	s15, s15
 801 010a 88EE277A 		vdiv.f32	s14, s16, s15
 290:time_machine_hardware.cpp **** 
 802              		.loc 1 290 24 view .LVU255
 803 010e 85ED867A 		vstr.32	s14, [r5, #536]
 293:time_machine_hardware.cpp **** 
 804              		.loc 1 293 9 is_stmt 1 view .LVU256
 293:time_machine_hardware.cpp **** 
 805              		.loc 1 293 49 view .LVU257
 806              	.L27:
 807              	.LVL38:
ARM GAS  /var/folders/xd/16jvbr6j24q9nvtpm0qtw3240000gn/T//cch9jPA2.s 			page 35


 808              	.LBB665:
 809              	.LBI665:
 810              		.file 7 "/Users/jonask/Music/Daisy/libDaisy/src/per/adc.h"
   1:/Users/jonask/Music/Daisy/libDaisy/src/per/adc.h **** #pragma once
   2:/Users/jonask/Music/Daisy/libDaisy/src/per/adc.h **** #ifndef DSY_ADC_H
   3:/Users/jonask/Music/Daisy/libDaisy/src/per/adc.h **** #define DSY_ADC_H /**< Macro */
   4:/Users/jonask/Music/Daisy/libDaisy/src/per/adc.h **** #include <stdint.h>
   5:/Users/jonask/Music/Daisy/libDaisy/src/per/adc.h **** #include <stdlib.h>
   6:/Users/jonask/Music/Daisy/libDaisy/src/per/adc.h **** #include "daisy_core.h"
   7:/Users/jonask/Music/Daisy/libDaisy/src/per/adc.h **** #include "per/gpio.h"
   8:/Users/jonask/Music/Daisy/libDaisy/src/per/adc.h **** 
   9:/Users/jonask/Music/Daisy/libDaisy/src/per/adc.h **** #define DSY_ADC_MAX_CHANNELS 16 /**< Maximum number of ADC channels */
  10:/Users/jonask/Music/Daisy/libDaisy/src/per/adc.h **** 
  11:/Users/jonask/Music/Daisy/libDaisy/src/per/adc.h **** namespace daisy
  12:/Users/jonask/Music/Daisy/libDaisy/src/per/adc.h **** {
  13:/Users/jonask/Music/Daisy/libDaisy/src/per/adc.h **** /** @addtogroup per_analog
  14:/Users/jonask/Music/Daisy/libDaisy/src/per/adc.h ****     @{
  15:/Users/jonask/Music/Daisy/libDaisy/src/per/adc.h **** */
  16:/Users/jonask/Music/Daisy/libDaisy/src/per/adc.h **** 
  17:/Users/jonask/Music/Daisy/libDaisy/src/per/adc.h **** /* While there may not be many configuration options here,
  18:/Users/jonask/Music/Daisy/libDaisy/src/per/adc.h **** using a struct like this allows us to add more configuration
  19:/Users/jonask/Music/Daisy/libDaisy/src/per/adc.h **** later without breaking existing functionality.
  20:/Users/jonask/Music/Daisy/libDaisy/src/per/adc.h **** */
  21:/Users/jonask/Music/Daisy/libDaisy/src/per/adc.h **** 
  22:/Users/jonask/Music/Daisy/libDaisy/src/per/adc.h **** /** @brief   Configuration Structure for an ADC Channel 
  23:/Users/jonask/Music/Daisy/libDaisy/src/per/adc.h ****  *  @details This can be used to configure a a single input, 
  24:/Users/jonask/Music/Daisy/libDaisy/src/per/adc.h ****  *           or a multiplexed input, allowing up to 8 inputs on 
  25:/Users/jonask/Music/Daisy/libDaisy/src/per/adc.h ****  *           one channel.
  26:/Users/jonask/Music/Daisy/libDaisy/src/per/adc.h ****  *  @note    Sharing data lines to multiple muxes _is_ possible, but
  27:/Users/jonask/Music/Daisy/libDaisy/src/per/adc.h ****  *           each channel sharing data lines must be set to the maximum
  28:/Users/jonask/Music/Daisy/libDaisy/src/per/adc.h ****  *           number of channels, even if some multiplexers have fewer
  29:/Users/jonask/Music/Daisy/libDaisy/src/per/adc.h ****  *           inputs connected.
  30:/Users/jonask/Music/Daisy/libDaisy/src/per/adc.h **** */
  31:/Users/jonask/Music/Daisy/libDaisy/src/per/adc.h **** struct AdcChannelConfig
 811              		.loc 7 31 8 view .LVU258
 812              	.LBB666:
 813              	.LBB667:
 814              	.LBI667:
 815              		.file 8 "/Users/jonask/Music/Daisy/libDaisy/src/per/gpio.h"
   1:/Users/jonask/Music/Daisy/libDaisy/src/per/gpio.h **** #pragma once
   2:/Users/jonask/Music/Daisy/libDaisy/src/per/gpio.h **** #ifndef DSY_GPIO_H
   3:/Users/jonask/Music/Daisy/libDaisy/src/per/gpio.h **** #define DSY_GPIO_H
   4:/Users/jonask/Music/Daisy/libDaisy/src/per/gpio.h **** #include "daisy_core.h"
   5:/Users/jonask/Music/Daisy/libDaisy/src/per/gpio.h **** 
   6:/Users/jonask/Music/Daisy/libDaisy/src/per/gpio.h **** #ifdef __cplusplus
   7:/Users/jonask/Music/Daisy/libDaisy/src/per/gpio.h **** 
   8:/Users/jonask/Music/Daisy/libDaisy/src/per/gpio.h **** namespace daisy
   9:/Users/jonask/Music/Daisy/libDaisy/src/per/gpio.h **** {
  10:/Users/jonask/Music/Daisy/libDaisy/src/per/gpio.h **** /** @brief General Purpose I/O control 
  11:/Users/jonask/Music/Daisy/libDaisy/src/per/gpio.h ****  *  @details peripheral control over a single GPIO
  12:/Users/jonask/Music/Daisy/libDaisy/src/per/gpio.h ****  *  @ingroup peripheral
  13:/Users/jonask/Music/Daisy/libDaisy/src/per/gpio.h ****  *   
  14:/Users/jonask/Music/Daisy/libDaisy/src/per/gpio.h ****  *  Button Input (with internal Pullup resistor)
  15:/Users/jonask/Music/Daisy/libDaisy/src/per/gpio.h ****  *  @include GPIO_Input.cpp 
  16:/Users/jonask/Music/Daisy/libDaisy/src/per/gpio.h ****  * 
  17:/Users/jonask/Music/Daisy/libDaisy/src/per/gpio.h ****  *  Output Example (perfect for blinking an LED)
  18:/Users/jonask/Music/Daisy/libDaisy/src/per/gpio.h ****  *  @include GPIO_Output.cpp
ARM GAS  /var/folders/xd/16jvbr6j24q9nvtpm0qtw3240000gn/T//cch9jPA2.s 			page 36


  19:/Users/jonask/Music/Daisy/libDaisy/src/per/gpio.h ****  * 
  20:/Users/jonask/Music/Daisy/libDaisy/src/per/gpio.h **** */
  21:/Users/jonask/Music/Daisy/libDaisy/src/per/gpio.h **** class GPIO
  22:/Users/jonask/Music/Daisy/libDaisy/src/per/gpio.h **** {
  23:/Users/jonask/Music/Daisy/libDaisy/src/per/gpio.h ****   public:
  24:/Users/jonask/Music/Daisy/libDaisy/src/per/gpio.h ****     /** @brief Mode of operation for the specified GPIO */
  25:/Users/jonask/Music/Daisy/libDaisy/src/per/gpio.h ****     enum class Mode
  26:/Users/jonask/Music/Daisy/libDaisy/src/per/gpio.h ****     {
  27:/Users/jonask/Music/Daisy/libDaisy/src/per/gpio.h ****         INPUT,      /**< Input for reading state of pin */
  28:/Users/jonask/Music/Daisy/libDaisy/src/per/gpio.h ****         OUTPUT,     /**< Output w/ push-pull configuration */
  29:/Users/jonask/Music/Daisy/libDaisy/src/per/gpio.h ****         OPEN_DRAIN, /**< Output w/ open-drain configuration */
  30:/Users/jonask/Music/Daisy/libDaisy/src/per/gpio.h ****         ANALOG,     /**< Analog for connection to ADC or DAC peripheral */
  31:/Users/jonask/Music/Daisy/libDaisy/src/per/gpio.h ****     };
  32:/Users/jonask/Music/Daisy/libDaisy/src/per/gpio.h **** 
  33:/Users/jonask/Music/Daisy/libDaisy/src/per/gpio.h ****     /** @brief Configures whether an internal Pull up or Pull down resistor is used. 
  34:/Users/jonask/Music/Daisy/libDaisy/src/per/gpio.h ****      *  
  35:/Users/jonask/Music/Daisy/libDaisy/src/per/gpio.h ****      * Internal Pull up/down resistors are typically 40k ohms, and will be between
  36:/Users/jonask/Music/Daisy/libDaisy/src/per/gpio.h ****      * 30k and 50k
  37:/Users/jonask/Music/Daisy/libDaisy/src/per/gpio.h ****      * 
  38:/Users/jonask/Music/Daisy/libDaisy/src/per/gpio.h ****      * When the Pin is configured in Analog mode, the pull up/down resistors are
  39:/Users/jonask/Music/Daisy/libDaisy/src/per/gpio.h ****      * disabled by hardware. 
  40:/Users/jonask/Music/Daisy/libDaisy/src/per/gpio.h ****      */
  41:/Users/jonask/Music/Daisy/libDaisy/src/per/gpio.h ****     enum class Pull
  42:/Users/jonask/Music/Daisy/libDaisy/src/per/gpio.h ****     {
  43:/Users/jonask/Music/Daisy/libDaisy/src/per/gpio.h ****         NOPULL,   /**< No pull up resistor */
  44:/Users/jonask/Music/Daisy/libDaisy/src/per/gpio.h ****         PULLUP,   /**< Internal pull up enabled */
  45:/Users/jonask/Music/Daisy/libDaisy/src/per/gpio.h ****         PULLDOWN, /**< Internal pull down enabled*/
  46:/Users/jonask/Music/Daisy/libDaisy/src/per/gpio.h ****     };
  47:/Users/jonask/Music/Daisy/libDaisy/src/per/gpio.h **** 
  48:/Users/jonask/Music/Daisy/libDaisy/src/per/gpio.h ****     /** @brief Output speed controls the drive strength, and slew rate of the pin */
  49:/Users/jonask/Music/Daisy/libDaisy/src/per/gpio.h ****     enum class Speed
  50:/Users/jonask/Music/Daisy/libDaisy/src/per/gpio.h ****     {
  51:/Users/jonask/Music/Daisy/libDaisy/src/per/gpio.h ****         LOW,
  52:/Users/jonask/Music/Daisy/libDaisy/src/per/gpio.h ****         MEDIUM,
  53:/Users/jonask/Music/Daisy/libDaisy/src/per/gpio.h ****         HIGH,
  54:/Users/jonask/Music/Daisy/libDaisy/src/per/gpio.h ****         VERY_HIGH,
  55:/Users/jonask/Music/Daisy/libDaisy/src/per/gpio.h ****     };
  56:/Users/jonask/Music/Daisy/libDaisy/src/per/gpio.h **** 
  57:/Users/jonask/Music/Daisy/libDaisy/src/per/gpio.h ****     /** @brief Configuration for a given GPIO */
  58:/Users/jonask/Music/Daisy/libDaisy/src/per/gpio.h ****     struct Config
  59:/Users/jonask/Music/Daisy/libDaisy/src/per/gpio.h ****     {
  60:/Users/jonask/Music/Daisy/libDaisy/src/per/gpio.h ****         Pin   pin;
  61:/Users/jonask/Music/Daisy/libDaisy/src/per/gpio.h ****         Mode  mode;
  62:/Users/jonask/Music/Daisy/libDaisy/src/per/gpio.h ****         Pull  pull;
  63:/Users/jonask/Music/Daisy/libDaisy/src/per/gpio.h ****         Speed speed;
  64:/Users/jonask/Music/Daisy/libDaisy/src/per/gpio.h **** 
  65:/Users/jonask/Music/Daisy/libDaisy/src/per/gpio.h ****         /** Constructor with no arguments will prepare an invalid GPIO set as
  66:/Users/jonask/Music/Daisy/libDaisy/src/per/gpio.h ****          *  an input, with no pullup. 
  67:/Users/jonask/Music/Daisy/libDaisy/src/per/gpio.h ****          */
  68:/Users/jonask/Music/Daisy/libDaisy/src/per/gpio.h ****         Config()
  69:/Users/jonask/Music/Daisy/libDaisy/src/per/gpio.h ****         : pin(), mode(Mode::INPUT), pull(Pull::NOPULL), speed(Speed::LOW)
  70:/Users/jonask/Music/Daisy/libDaisy/src/per/gpio.h ****         {
  71:/Users/jonask/Music/Daisy/libDaisy/src/per/gpio.h ****         }
  72:/Users/jonask/Music/Daisy/libDaisy/src/per/gpio.h ****     };
  73:/Users/jonask/Music/Daisy/libDaisy/src/per/gpio.h **** 
  74:/Users/jonask/Music/Daisy/libDaisy/src/per/gpio.h ****     GPIO() {}
 816              		.loc 8 74 5 view .LVU259
ARM GAS  /var/folders/xd/16jvbr6j24q9nvtpm0qtw3240000gn/T//cch9jPA2.s 			page 37


 817              	.LBB668:
 818              	.LBI668:
  68:/Users/jonask/Music/Daisy/libDaisy/src/per/gpio.h ****         : pin(), mode(Mode::INPUT), pull(Pull::NOPULL), speed(Speed::LOW)
 819              		.loc 8 68 9 view .LVU260
 820              	.LBB669:
 821              	.LBB670:
 822              	.LBI670:
 823              		.loc 4 204 15 view .LVU261
 824              	.LBE670:
  69:/Users/jonask/Music/Daisy/libDaisy/src/per/gpio.h ****         {
 825              		.loc 8 69 73 is_stmt 0 view .LVU262
 826 0112 0022     		movs	r2, #0
 827              	.LBB673:
 828              	.LBB671:
 829              		.loc 4 204 43 view .LVU263
 830 0114 0B24     		movs	r4, #11
 831 0116 FF20     		movs	r0, #255
 832 0118 A1F13C03 		sub	r3, r1, #60
 833 011c 01F8504C 		strb	r4, [r1, #-80]
 834              	.LBE671:
 835              	.LBE673:
  69:/Users/jonask/Music/Daisy/libDaisy/src/per/gpio.h ****         {
 836              		.loc 8 69 73 view .LVU264
 837 0120 41F84C2C 		str	r2, [r1, #-76]
 838              	.LBB674:
 839              	.LBB672:
 840              		.loc 4 204 43 view .LVU265
 841 0124 01F84F0C 		strb	r0, [r1, #-79]
 842              	.LVL39:
 843              		.loc 4 204 43 view .LVU266
 844              	.LBE672:
 845              	.LBE674:
  69:/Users/jonask/Music/Daisy/libDaisy/src/per/gpio.h ****         {
 846              		.loc 8 69 73 view .LVU267
 847 0128 41E91222 		strd	r2, r2, [r1, #-72]
 848              	.LVL40:
  69:/Users/jonask/Music/Daisy/libDaisy/src/per/gpio.h ****         {
 849              		.loc 8 69 73 view .LVU268
 850              	.LBE669:
 851              	.LBE668:
 852              	.LBE667:
 853              		.loc 7 31 8 is_stmt 1 view .LVU269
 854              	.L26:
 855              	.LBB675:
 856              	.LBI675:
 857              		.loc 8 74 5 view .LVU270
 858              	.LBB676:
 859              	.LBI676:
  68:/Users/jonask/Music/Daisy/libDaisy/src/per/gpio.h ****         : pin(), mode(Mode::INPUT), pull(Pull::NOPULL), speed(Speed::LOW)
 860              		.loc 8 68 9 view .LVU271
 861              	.LBB677:
 862              	.LBB678:
 863              	.LBI678:
 864              		.loc 4 204 15 view .LVU272
 865              	.LBE678:
 866              	.LBE677:
 867              	.LBE676:
ARM GAS  /var/folders/xd/16jvbr6j24q9nvtpm0qtw3240000gn/T//cch9jPA2.s 			page 38


 868              	.LBE675:
 869              		.loc 7 31 8 is_stmt 0 view .LVU273
 870 012c 1433     		adds	r3, r3, #20
 871              	.LVL41:
 872              	.LBB687:
 873              	.LBB685:
 874              	.LBB683:
  69:/Users/jonask/Music/Daisy/libDaisy/src/per/gpio.h ****         {
 875              		.loc 8 69 73 view .LVU274
 876 012e 0022     		movs	r2, #0
 877              	.LBB681:
 878              	.LBB679:
 879              		.loc 4 204 43 view .LVU275
 880 0130 0B20     		movs	r0, #11
 881 0132 FF24     		movs	r4, #255
 882              	.LBE679:
 883              	.LBE681:
 884              	.LBE683:
 885              	.LBE685:
 886              	.LBE687:
 887              		.loc 7 31 8 view .LVU276
 888 0134 8B42     		cmp	r3, r1
 889              	.LBB688:
 890              	.LBB686:
 891              	.LBB684:
  69:/Users/jonask/Music/Daisy/libDaisy/src/per/gpio.h ****         {
 892              		.loc 8 69 73 view .LVU277
 893 0136 43F8102C 		str	r2, [r3, #-16]
 894              	.LBB682:
 895              	.LBB680:
 896              		.loc 4 204 43 view .LVU278
 897 013a 03F8140C 		strb	r0, [r3, #-20]
 898 013e 03F8134C 		strb	r4, [r3, #-19]
 899              	.LVL42:
 900              		.loc 4 204 43 view .LVU279
 901              	.LBE680:
 902              	.LBE682:
  69:/Users/jonask/Music/Daisy/libDaisy/src/per/gpio.h ****         {
 903              		.loc 8 69 73 view .LVU280
 904 0142 43E90322 		strd	r2, r2, [r3, #-12]
 905              	.LVL43:
  69:/Users/jonask/Music/Daisy/libDaisy/src/per/gpio.h ****         {
 906              		.loc 8 69 73 view .LVU281
 907              	.LBE684:
 908              	.LBE686:
 909              	.LBE688:
 910              		.loc 7 31 8 is_stmt 1 view .LVU282
 911              		.loc 7 31 8 view .LVU283
 912 0146 F1D1     		bne	.L26
 913              	.LVL44:
 914              		.loc 7 31 8 is_stmt 0 view .LVU284
 915              	.LBE666:
 916              	.LBE665:
 293:time_machine_hardware.cpp **** 
 917              		.loc 1 293 49 is_stmt 1 discriminator 3 view .LVU285
 293:time_machine_hardware.cpp **** 
 918              		.loc 1 293 49 discriminator 3 view .LVU286
ARM GAS  /var/folders/xd/16jvbr6j24q9nvtpm0qtw3240000gn/T//cch9jPA2.s 			page 39


 919 0148 03F15401 		add	r1, r3, #84
 920 014c 6145     		cmp	r1, ip
 921 014e E0D1     		bne	.L27
 296:time_machine_hardware.cpp ****             PIN_ADC_CTRL_1,
 922              		.loc 1 296 9 discriminator 2 view .LVU287
 296:time_machine_hardware.cpp ****             PIN_ADC_CTRL_1,
 923              		.loc 1 296 13 is_stmt 0 discriminator 2 view .LVU288
 924 0150 0DF15C08 		add	r8, sp, #92
 925 0154 DFF8FCE1 		ldr	lr, .L64+40
 926              	.LBB689:
 311:time_machine_hardware.cpp ****         {
 927              		.loc 1 311 18 discriminator 2 view .LVU289
 928 0158 1446     		mov	r4, r2
 929              	.LBE689:
 296:time_machine_hardware.cpp ****             PIN_ADC_CTRL_1,
 930              		.loc 1 296 13 discriminator 2 view .LVU290
 931 015a C446     		mov	ip, r8
 932 015c BEE80F00 		ldmia	lr!, {r0, r1, r2, r3}
 933 0160 ACE80F00 		stmia	ip!, {r0, r1, r2, r3}
 934 0164 9EE80300 		ldm	lr, {r0, r1}
 935 0168 8CE80300 		stm	ip, {r0, r1}
 311:time_machine_hardware.cpp ****         {
 936              		.loc 1 311 9 is_stmt 1 discriminator 2 view .LVU291
 937              	.LVL45:
 938              	.LBB690:
 311:time_machine_hardware.cpp ****         {
 939              		.loc 1 311 27 discriminator 2 view .LVU292
 940 016c 16E0     		b	.L31
 941              	.LVL46:
 942              	.L28:
 319:time_machine_hardware.cpp ****                     break;
 943              		.loc 1 319 42 is_stmt 0 view .LVU293
 944 016e 0B78     		ldrb	r3, [r1]	@ zero_extendqisi2
 311:time_machine_hardware.cpp ****         {
 945              		.loc 1 311 27 view .LVU294
 946 0170 5436     		adds	r6, r6, #84
 319:time_machine_hardware.cpp ****                     break;
 947              		.loc 1 319 42 view .LVU295
 948 0172 91F801A0 		ldrb	r10, [r1, #1]	@ zero_extendqisi2
 949 0176 B9F80090 		ldrh	r9, [r9]	@ unaligned
 950 017a BEF800E0 		ldrh	lr, [lr]	@ unaligned
 951 017e 43EA0A23 		orr	r3, r3, r10, lsl #8
 952 0182 38F81410 		ldrh	r1, [r8, r4, lsl #1]
 311:time_machine_hardware.cpp ****         {
 953              		.loc 1 311 9 view .LVU296
 954 0186 0134     		adds	r4, r4, #1
 955              	.LVL47:
 319:time_machine_hardware.cpp ****                     break;
 956              		.loc 1 319 42 view .LVU297
 957 0188 CDF808C0 		str	ip, [sp, #8]
 958 018c ADF80490 		strh	r9, [sp, #4]	@ unaligned
 959 0190 ADF800E0 		strh	lr, [sp]	@ unaligned
 960 0194 FFF7FEFF 		bl	_ZN5daisy16AdcChannelConfig7InitMuxENS_3PinEjS1_S1_S1_NS0_15ConversionSpeedE
 961              	.LVL48:
 320:time_machine_hardware.cpp **** 
 962              		.loc 1 320 21 is_stmt 1 view .LVU298
 311:time_machine_hardware.cpp ****         {
ARM GAS  /var/folders/xd/16jvbr6j24q9nvtpm0qtw3240000gn/T//cch9jPA2.s 			page 40


 963              		.loc 1 311 9 view .LVU299
 311:time_machine_hardware.cpp ****         {
 964              		.loc 1 311 27 view .LVU300
 965 0198 0C2C     		cmp	r4, #12
 966 019a 17D0     		beq	.L62
 967              	.LVL49:
 968              	.L31:
 313:time_machine_hardware.cpp ****             {
 969              		.loc 1 313 13 view .LVU301
 315:time_machine_hardware.cpp ****                 case ADC_10:
 970              		.loc 1 315 17 view .LVU302
 316:time_machine_hardware.cpp ****                 case ADC_11:
 971              		.loc 1 316 17 view .LVU303
 317:time_machine_hardware.cpp ****                 case ADC_12:
 972              		.loc 1 317 17 view .LVU304
 318:time_machine_hardware.cpp ****                     adc_config[i].InitMux(adc_pins[i], 8, MUX_A, MUX_B, MUX_C);
 973              		.loc 1 318 17 view .LVU305
 319:time_machine_hardware.cpp ****                     break;
 974              		.loc 1 319 21 view .LVU306
 319:time_machine_hardware.cpp ****                     break;
 975              		.loc 1 319 42 is_stmt 0 view .LVU307
 976 019c 6749     		ldr	r1, .L64+16
 313:time_machine_hardware.cpp ****             {
 977              		.loc 1 313 13 view .LVU308
 978 019e A4F10903 		sub	r3, r4, #9
 319:time_machine_hardware.cpp ****                     break;
 979              		.loc 1 319 42 view .LVU309
 980 01a2 DFF8B491 		ldr	r9, .L64+44
 981 01a6 4FF0020C 		mov	ip, #2
 982 01aa DFF8B0E1 		ldr	lr, .L64+48
 983 01ae 0822     		movs	r2, #8
 984 01b0 3046     		mov	r0, r6
 313:time_machine_hardware.cpp ****             {
 985              		.loc 1 313 13 view .LVU310
 986 01b2 002C     		cmp	r4, #0
 987 01b4 DBD0     		beq	.L28
 988 01b6 6345     		cmp	r3, ip
 989 01b8 D9D9     		bls	.L28
 322:time_machine_hardware.cpp ****                     adc_config[i].InitSingle(adc_pins[i]);
 990              		.loc 1 322 17 is_stmt 1 view .LVU311
 323:time_machine_hardware.cpp ****                     break;
 991              		.loc 1 323 21 view .LVU312
 323:time_machine_hardware.cpp ****                     break;
 992              		.loc 1 323 45 is_stmt 0 view .LVU313
 993 01ba 38F81410 		ldrh	r1, [r8, r4, lsl #1]
 311:time_machine_hardware.cpp ****         {
 994              		.loc 1 311 9 view .LVU314
 995 01be 0134     		adds	r4, r4, #1
 996              	.LVL50:
 323:time_machine_hardware.cpp ****                     break;
 997              		.loc 1 323 45 view .LVU315
 998 01c0 0222     		movs	r2, #2
 311:time_machine_hardware.cpp ****         {
 999              		.loc 1 311 27 view .LVU316
 1000 01c2 5436     		adds	r6, r6, #84
 323:time_machine_hardware.cpp ****                     break;
 1001              		.loc 1 323 45 view .LVU317
ARM GAS  /var/folders/xd/16jvbr6j24q9nvtpm0qtw3240000gn/T//cch9jPA2.s 			page 41


 1002 01c4 FFF7FEFF 		bl	_ZN5daisy16AdcChannelConfig10InitSingleENS_3PinENS0_15ConversionSpeedE
 1003              	.LVL51:
 324:time_machine_hardware.cpp ****             }
 1004              		.loc 1 324 21 is_stmt 1 view .LVU318
 311:time_machine_hardware.cpp ****         {
 1005              		.loc 1 311 9 view .LVU319
 311:time_machine_hardware.cpp ****         {
 1006              		.loc 1 311 27 view .LVU320
 1007 01c8 0C2C     		cmp	r4, #12
 1008 01ca E7D1     		bne	.L31
 1009              	.L62:
 311:time_machine_hardware.cpp ****         {
 1010              		.loc 1 311 27 is_stmt 0 view .LVU321
 1011              	.LBE690:
 328:time_machine_hardware.cpp **** 
 1012              		.loc 1 328 9 is_stmt 1 view .LVU322
 328:time_machine_hardware.cpp **** 
 1013              		.loc 1 328 17 is_stmt 0 view .LVU323
 1014 01cc 05F11408 		add	r8, r5, #20
 1015 01d0 05F14009 		add	r9, r5, #64
 1016 01d4 3946     		mov	r1, r7
 1017 01d6 0423     		movs	r3, #4
 1018 01d8 2246     		mov	r2, r4
 1019 01da 4046     		mov	r0, r8
 1020 01dc 0026     		movs	r6, #0
 1021 01de 4F46     		mov	r7, r9
 1022 01e0 FFF7FEFF 		bl	_ZN5daisy9AdcHandle4InitEPNS_16AdcChannelConfigEjNS0_12OverSamplingE
 1023              	.LVL52:
 331:time_machine_hardware.cpp ****         {
 1024              		.loc 1 331 9 is_stmt 1 view .LVU324
 1025              	.LBB691:
 331:time_machine_hardware.cpp ****         {
 1026              		.loc 1 331 30 view .LVU325
 1027 01e4 0BE0     		b	.L42
 1028              	.LVL53:
 1029              	.L58:
 1030              	.LBB692:
 1031              	.LBB693:
 340:time_machine_hardware.cpp ****                 case CV_3:
 1032              		.loc 1 340 17 view .LVU326
 341:time_machine_hardware.cpp ****                 case CV_4:
 1033              		.loc 1 341 17 view .LVU327
 342:time_machine_hardware.cpp ****                 case CV_5:
 1034              		.loc 1 342 17 view .LVU328
 343:time_machine_hardware.cpp ****                 case CV_6:
 1035              		.loc 1 343 17 view .LVU329
 344:time_machine_hardware.cpp ****                 case CV_7:
 1036              		.loc 1 344 17 view .LVU330
 345:time_machine_hardware.cpp ****                 case CV_8:
 1037              		.loc 1 345 17 view .LVU331
 346:time_machine_hardware.cpp ****                     controls[i].InitBipolarCv(adc.GetPtr(i), callback_rate_);
 1038              		.loc 1 346 17 view .LVU332
 347:time_machine_hardware.cpp ****                     break;
 1039              		.loc 1 347 21 view .LVU333
 347:time_machine_hardware.cpp ****                     break;
 1040              		.loc 1 347 46 is_stmt 0 view .LVU334
 1041 01e6 F1B2     		uxtb	r1, r6
ARM GAS  /var/folders/xd/16jvbr6j24q9nvtpm0qtw3240000gn/T//cch9jPA2.s 			page 42


 1042 01e8 4046     		mov	r0, r8
 1043 01ea FFF7FEFF 		bl	_ZNK5daisy9AdcHandle6GetPtrEh
 1044              	.LVL54:
 1045 01ee 95ED860A 		vldr.32	s0, [r5, #536]
 1046 01f2 0146     		mov	r1, r0
 1047 01f4 3846     		mov	r0, r7
 1048 01f6 0136     		adds	r6, r6, #1
 1049              	.LVL55:
 347:time_machine_hardware.cpp ****                     break;
 1050              		.loc 1 347 46 view .LVU335
 1051 01f8 FFF7FEFF 		bl	_ZN5daisy13AnalogControl13InitBipolarCvEPtf
 1052              	.LVL56:
 348:time_machine_hardware.cpp **** 
 1053              		.loc 1 348 21 is_stmt 1 view .LVU336
 1054              	.LBE693:
 1055              	.LBE692:
 331:time_machine_hardware.cpp ****         {
 1056              		.loc 1 331 9 view .LVU337
 331:time_machine_hardware.cpp ****         {
 1057              		.loc 1 331 30 view .LVU338
 1058              	.L39:
 331:time_machine_hardware.cpp ****         {
 1059              		.loc 1 331 30 is_stmt 0 view .LVU339
 1060 01fc 2037     		adds	r7, r7, #32
 1061              	.LVL57:
 1062              	.L42:
 331:time_machine_hardware.cpp ****         {
 1063              		.loc 1 331 30 view .LVU340
 1064              	.LBE691:
 333:time_machine_hardware.cpp ****                 case CV_1:
 1065              		.loc 1 333 13 is_stmt 1 view .LVU341
 1066              	.LBB704:
 1067              	.LBB700:
 1068 01fe 082E     		cmp	r6, #8
 1069 0200 71D0     		beq	.L32
 333:time_machine_hardware.cpp ****                 case CV_1:
 1070              		.loc 1 333 13 is_stmt 0 view .LVU342
 1071 0202 55D8     		bhi	.L33
 333:time_machine_hardware.cpp ****                 case CV_1:
 1072              		.loc 1 333 13 view .LVU343
 1073 0204 731E     		subs	r3, r6, #1
 1074 0206 062B     		cmp	r3, #6
 1075 0208 EDD9     		bls	.L58
 1076              	.L34:
 1077              	.LBB696:
 1078              	.LBB694:
 335:time_machine_hardware.cpp ****                         controls[i].InitBipolarCv(adc.GetMuxPtr(i, muxChannel), callback_rate_);
 1079              		.loc 1 335 29 view .LVU344
 1080 020a 0024     		movs	r4, #0
 1081              	.LVL58:
 1082              	.L37:
 336:time_machine_hardware.cpp ****                     }
 1083              		.loc 1 336 25 is_stmt 1 discriminator 2 view .LVU345
 336:time_machine_hardware.cpp ****                     }
 1084              		.loc 1 336 50 is_stmt 0 discriminator 2 view .LVU346
 1085 020c E2B2     		uxtb	r2, r4
 1086 020e 0021     		movs	r1, #0
ARM GAS  /var/folders/xd/16jvbr6j24q9nvtpm0qtw3240000gn/T//cch9jPA2.s 			page 43


 1087 0210 4046     		mov	r0, r8
 335:time_machine_hardware.cpp ****                         controls[i].InitBipolarCv(adc.GetMuxPtr(i, muxChannel), callback_rate_);
 1088              		.loc 1 335 21 discriminator 2 view .LVU347
 1089 0212 0134     		adds	r4, r4, #1
 1090              	.LVL59:
 336:time_machine_hardware.cpp ****                     }
 1091              		.loc 1 336 50 discriminator 2 view .LVU348
 1092 0214 FFF7FEFF 		bl	_ZNK5daisy9AdcHandle9GetMuxPtrEhh
 1093              	.LVL60:
 1094 0218 95ED860A 		vldr.32	s0, [r5, #536]
 1095 021c 0146     		mov	r1, r0
 1096 021e 4846     		mov	r0, r9
 1097 0220 FFF7FEFF 		bl	_ZN5daisy13AnalogControl13InitBipolarCvEPtf
 1098              	.LVL61:
 335:time_machine_hardware.cpp ****                         controls[i].InitBipolarCv(adc.GetMuxPtr(i, muxChannel), callback_rate_);
 1099              		.loc 1 335 21 is_stmt 1 discriminator 2 view .LVU349
 335:time_machine_hardware.cpp ****                         controls[i].InitBipolarCv(adc.GetMuxPtr(i, muxChannel), callback_rate_);
 1100              		.loc 1 335 56 discriminator 2 view .LVU350
 1101 0224 082C     		cmp	r4, #8
 1102 0226 F1D1     		bne	.L37
 1103              	.LBE694:
 1104              	.LBE696:
 1105              	.LBE700:
 331:time_machine_hardware.cpp ****         {
 1106              		.loc 1 331 9 view .LVU351
 1107 0228 0136     		adds	r6, r6, #1
 1108              	.LVL62:
 331:time_machine_hardware.cpp ****         {
 1109              		.loc 1 331 30 view .LVU352
 1110 022a 0C2E     		cmp	r6, #12
 1111 022c E6D1     		bne	.L39
 1112              	.LVL63:
 1113              	.L63:
 331:time_machine_hardware.cpp ****         {
 1114              		.loc 1 331 30 is_stmt 0 view .LVU353
 1115              	.LBE704:
 365:time_machine_hardware.cpp **** 
 1116              		.loc 1 365 9 is_stmt 1 view .LVU354
 365:time_machine_hardware.cpp **** 
 1117              		.loc 1 365 22 is_stmt 0 view .LVU355
 1118 022e 0024     		movs	r4, #0
 1119 0230 434A     		ldr	r2, .L64+20
 1120 0232 05F12C00 		add	r0, r5, #44
 1121 0236 2346     		mov	r3, r4
 1122 0238 1168     		ldr	r1, [r2]
 1123 023a 0094     		str	r4, [sp]
 1124 023c 0122     		movs	r2, #1
 1125 023e FFF7FEFF 		bl	_ZN5daisy4GPIO4InitENS_3PinENS0_4ModeENS0_4PullENS0_5SpeedE
 1126              	.LVL64:
 367:time_machine_hardware.cpp ****         gate_in_2.Init(B9);
 1127              		.loc 1 367 9 is_stmt 1 view .LVU356
 367:time_machine_hardware.cpp ****         gate_in_2.Init(B9);
 1128              		.loc 1 367 23 is_stmt 0 view .LVU357
 1129 0242 404B     		ldr	r3, .L64+24
 1130 0244 05F5E070 		add	r0, r5, #448
 1131 0248 0122     		movs	r2, #1
 1132 024a 1968     		ldr	r1, [r3]
ARM GAS  /var/folders/xd/16jvbr6j24q9nvtpm0qtw3240000gn/T//cch9jPA2.s 			page 44


 1133 024c FFF7FEFF 		bl	_ZN5daisy6GateIn4InitENS_3PinEb
 1134              	.LVL65:
 368:time_machine_hardware.cpp **** 
 1135              		.loc 1 368 9 is_stmt 1 view .LVU358
 368:time_machine_hardware.cpp **** 
 1136              		.loc 1 368 23 is_stmt 0 view .LVU359
 1137 0250 3D4B     		ldr	r3, .L64+28
 1138 0252 05F5EC70 		add	r0, r5, #472
 1139 0256 0122     		movs	r2, #1
 1140 0258 1968     		ldr	r1, [r3]
 1141 025a FFF7FEFF 		bl	_ZN5daisy6GateIn4InitENS_3PinEb
 1142              	.LVL66:
 371:time_machine_hardware.cpp **** 
 1143              		.loc 1 371 9 is_stmt 1 view .LVU360
 1144              	.LBB705:
 1145              	.LBB706:
 174:time_machine_hardware.cpp ****         dac_config.bitdepth = DacHandle::BitDepth::
 1146              		.loc 1 174 29 is_stmt 0 view .LVU361
 1147 025e 0123     		movs	r3, #1
 1148              	.LBE706:
 1149              	.LBE705:
 371:time_machine_hardware.cpp **** 
 1150              		.loc 1 371 9 view .LVU362
 1151 0260 D5F81C02 		ldr	r0, [r5, #540]
 1152              	.LVL67:
 1153              	.LBB708:
 1154              	.LBI705:
 171:time_machine_hardware.cpp ****     {
 1155              		.loc 1 171 10 is_stmt 1 view .LVU363
 1156              	.LBB707:
 173:time_machine_hardware.cpp ****         dac_config.mode     = DacHandle::Mode::DMA;
 1157              		.loc 1 173 9 view .LVU364
 174:time_machine_hardware.cpp ****         dac_config.bitdepth = DacHandle::BitDepth::
 1158              		.loc 1 174 9 view .LVU365
 179:time_machine_hardware.cpp ****         dac_.Init(dac_config);
 1159              		.loc 1 179 38 is_stmt 0 view .LVU366
 1160 0264 4BF68032 		movw	r2, #48000
 180:time_machine_hardware.cpp ****     }
 1161              		.loc 1 180 18 view .LVU367
 1162 0268 12A9     		add	r1, sp, #72
 178:time_machine_hardware.cpp ****         dac_config.target_samplerate = 48000;
 1163              		.loc 1 178 38 view .LVU368
 1164 026a 1694     		str	r4, [sp, #88]
 180:time_machine_hardware.cpp ****     }
 1165              		.loc 1 180 18 view .LVU369
 1166 026c 1030     		adds	r0, r0, #16
 1167              	.LVL68:
 179:time_machine_hardware.cpp ****         dac_.Init(dac_config);
 1168              		.loc 1 179 38 view .LVU370
 1169 026e 1292     		str	r2, [sp, #72]
 175:time_machine_hardware.cpp ****             BITS_12; /**< Sets the output value to 0-4095 */
 1170              		.loc 1 175 29 view .LVU371
 1171 0270 CDE91433 		strd	r3, r3, [sp, #80]
 177:time_machine_hardware.cpp ****         dac_config.buff_state        = DacHandle::BufferState::ENABLED;
 1172              		.loc 1 177 9 is_stmt 1 view .LVU372
 177:time_machine_hardware.cpp ****         dac_config.buff_state        = DacHandle::BufferState::ENABLED;
 1173              		.loc 1 177 38 is_stmt 0 view .LVU373
ARM GAS  /var/folders/xd/16jvbr6j24q9nvtpm0qtw3240000gn/T//cch9jPA2.s 			page 45


 1174 0274 0223     		movs	r3, #2
 1175 0276 1393     		str	r3, [sp, #76]
 178:time_machine_hardware.cpp ****         dac_config.target_samplerate = 48000;
 1176              		.loc 1 178 9 is_stmt 1 view .LVU374
 179:time_machine_hardware.cpp ****         dac_.Init(dac_config);
 1177              		.loc 1 179 9 view .LVU375
 180:time_machine_hardware.cpp ****     }
 1178              		.loc 1 180 9 view .LVU376
 180:time_machine_hardware.cpp ****     }
 1179              		.loc 1 180 18 is_stmt 0 view .LVU377
 1180 0278 FFF7FEFF 		bl	_ZN5daisy9DacHandle4InitERKNS0_6ConfigE
 1181              	.LVL69:
 180:time_machine_hardware.cpp ****     }
 1182              		.loc 1 180 18 view .LVU378
 1183              	.LBE707:
 1184              	.LBE708:
 374:time_machine_hardware.cpp ****         StartDac();
 1185              		.loc 1 374 9 is_stmt 1 view .LVU379
 1186              	.LBB709:
 1187              	.LBI709:
 464:time_machine_hardware.cpp **** 
 465:time_machine_hardware.cpp ****     float TimeMachineHardware::AudioCallbackRate() { return callback_rate_; }
 466:time_machine_hardware.cpp **** 
 467:time_machine_hardware.cpp ****     void TimeMachineHardware::StartAdc() { adc.Start(); }
 1188              		.loc 1 467 10 view .LVU380
 1189              	.LBB710:
 1190              		.loc 1 467 44 view .LVU381
 1191              		.loc 1 467 53 is_stmt 0 view .LVU382
 1192 027c 4046     		mov	r0, r8
 1193 027e FFF7FEFF 		bl	_ZN5daisy9AdcHandle5StartEv
 1194              	.LVL70:
 1195              		.loc 1 467 53 view .LVU383
 1196              	.LBE710:
 1197              	.LBE709:
 375:time_machine_hardware.cpp ****     }
 1198              		.loc 1 375 9 is_stmt 1 view .LVU384
 1199              	.LBB711:
 1200              	.LBI711:
 468:time_machine_hardware.cpp **** 
 469:time_machine_hardware.cpp ****     void TimeMachineHardware::StopAdc() { adc.Stop(); }
 470:time_machine_hardware.cpp **** 
 471:time_machine_hardware.cpp ****     void TimeMachineHardware::ProcessAnalogControls()
 472:time_machine_hardware.cpp ****     {
 473:time_machine_hardware.cpp ****         for (int i = 0; i < ADC_LAST; i++)
 474:time_machine_hardware.cpp ****         {
 475:time_machine_hardware.cpp ****             controls[i].Process();
 476:time_machine_hardware.cpp ****         }
 477:time_machine_hardware.cpp ****     }
 478:time_machine_hardware.cpp **** 
 479:time_machine_hardware.cpp ****     void TimeMachineHardware::ProcessDigitalControls() {}
 480:time_machine_hardware.cpp **** 
 481:time_machine_hardware.cpp ****     float TimeMachineHardware::GetAdcValue(int idx) { return controls[idx].Value(); }
 482:time_machine_hardware.cpp **** 
 483:time_machine_hardware.cpp ****     float TimeMachineHardware::GetLevelSlider(int idx) {
 484:time_machine_hardware.cpp ****         const int muxMapping[] = {5, 7, 6, 4, 3, 0, 1, 2};
 485:time_machine_hardware.cpp **** 
 486:time_machine_hardware.cpp ****         if (idx == 0) {
ARM GAS  /var/folders/xd/16jvbr6j24q9nvtpm0qtw3240000gn/T//cch9jPA2.s 			page 46


 487:time_machine_hardware.cpp ****             return 1.0 - adc.GetMuxFloat(MISC_MUX, 3);
 488:time_machine_hardware.cpp ****         } else {
 489:time_machine_hardware.cpp ****             return 1.0 - adc.GetMuxFloat(LEVEL_MUX, muxMapping[idx - 1]);
 490:time_machine_hardware.cpp ****         }
 491:time_machine_hardware.cpp ****     }
 492:time_machine_hardware.cpp **** 
 493:time_machine_hardware.cpp ****     float TimeMachineHardware::GetLevelCV(int idx) {
 494:time_machine_hardware.cpp ****         const int muxMapping[] = {3, 2, 1, 0, 4, 5, 6, 7};
 495:time_machine_hardware.cpp **** 
 496:time_machine_hardware.cpp ****         if (idx == 0)
 497:time_machine_hardware.cpp ****         {
 498:time_machine_hardware.cpp ****             return GetAdcValue(LEVEL_DRY_CV);
 499:time_machine_hardware.cpp ****         }
 500:time_machine_hardware.cpp ****         else
 501:time_machine_hardware.cpp ****         {
 502:time_machine_hardware.cpp ****             return ((1.0 - adc.GetMuxFloat(LEVEL_CV_MUX, muxMapping[idx - 1])) * 2.0) - 1.0;
 503:time_machine_hardware.cpp ****         }
 504:time_machine_hardware.cpp ****     }
 505:time_machine_hardware.cpp **** 
 506:time_machine_hardware.cpp ****     float TimeMachineHardware::GetPanKnob(int idx) {
 507:time_machine_hardware.cpp ****         const int muxMapping[] = {5, 7, 6, 4, 1, 2, 0, 3};
 508:time_machine_hardware.cpp **** 
 509:time_machine_hardware.cpp ****         // The '1.0 - x' bit here is because our pan pots are wired backwards!
 510:time_machine_hardware.cpp ****         if (idx == 0)
 511:time_machine_hardware.cpp ****         {
 512:time_machine_hardware.cpp ****             return 1.0 - adc.GetMuxFloat(MISC_MUX, 6);
 513:time_machine_hardware.cpp ****         }
 514:time_machine_hardware.cpp ****         else
 515:time_machine_hardware.cpp ****         {
 516:time_machine_hardware.cpp ****             return 1.0 - adc.GetMuxFloat(PAN_MUX, muxMapping[idx - 1]);
 517:time_machine_hardware.cpp ****         }
 518:time_machine_hardware.cpp ****     }
 519:time_machine_hardware.cpp **** 
 520:time_machine_hardware.cpp ****     float TimeMachineHardware::GetSpreadKnob()
 521:time_machine_hardware.cpp ****     {
 522:time_machine_hardware.cpp ****         return adc.GetMuxFloat(MISC_MUX, 2);
 523:time_machine_hardware.cpp ****     }
 524:time_machine_hardware.cpp **** 
 525:time_machine_hardware.cpp ****     float TimeMachineHardware::GetTimeKnob()
 526:time_machine_hardware.cpp ****     {
 527:time_machine_hardware.cpp ****         return adc.GetMuxFloat(MISC_MUX, 4);
 528:time_machine_hardware.cpp ****     }
 529:time_machine_hardware.cpp **** 
 530:time_machine_hardware.cpp ****     float TimeMachineHardware::GetFeedbackKnob()
 531:time_machine_hardware.cpp ****     {
 532:time_machine_hardware.cpp ****         return adc.GetMuxFloat(MISC_MUX, 1);
 533:time_machine_hardware.cpp ****     }
 534:time_machine_hardware.cpp **** 
 535:time_machine_hardware.cpp ****     float TimeMachineHardware::GetHighpassKnob()
 536:time_machine_hardware.cpp ****     {
 537:time_machine_hardware.cpp ****         return adc.GetMuxFloat(MISC_MUX, 0);
 538:time_machine_hardware.cpp ****     }
 539:time_machine_hardware.cpp **** 
 540:time_machine_hardware.cpp ****     float TimeMachineHardware::GetLowpassKnob()
 541:time_machine_hardware.cpp ****     {
 542:time_machine_hardware.cpp ****         return adc.GetMuxFloat(MISC_MUX, 5);
 543:time_machine_hardware.cpp ****     }
ARM GAS  /var/folders/xd/16jvbr6j24q9nvtpm0qtw3240000gn/T//cch9jPA2.s 			page 47


 544:time_machine_hardware.cpp **** 
 545:time_machine_hardware.cpp ****     Pin TimeMachineHardware::GetPin(const PinBank bank, const int idx)
 546:time_machine_hardware.cpp ****     {
 547:time_machine_hardware.cpp ****         if(idx <= 0 || idx > 10)
 548:time_machine_hardware.cpp ****         {
 549:time_machine_hardware.cpp ****             return DUMMYPIN;
 550:time_machine_hardware.cpp ****         }
 551:time_machine_hardware.cpp ****         else
 552:time_machine_hardware.cpp ****         {
 553:time_machine_hardware.cpp ****             return kPinMap[static_cast<int>(bank)][idx - 1];
 554:time_machine_hardware.cpp ****         }
 555:time_machine_hardware.cpp ****     }
 556:time_machine_hardware.cpp **** 
 557:time_machine_hardware.cpp ****     void TimeMachineHardware::StartDac(DacHandle::DacCallback callback)
 1201              		.loc 1 557 10 view .LVU385
 1202              	.LBB712:
 558:time_machine_hardware.cpp ****     {
 559:time_machine_hardware.cpp ****         pimpl_->StartDac(callback);
 1203              		.loc 1 559 9 view .LVU386
 1204 0282 D5F81C42 		ldr	r4, [r5, #540]
 1205              	.LVL71:
 1206              	.LBB713:
 1207              	.LBI713:
 183:time_machine_hardware.cpp ****     {
 1208              		.loc 1 183 10 view .LVU387
 1209              	.LBB714:
 185:time_machine_hardware.cpp ****             dac_.Stop();
 1210              		.loc 1 185 9 view .LVU388
 1211 0286 237D     		ldrb	r3, [r4, #20]	@ zero_extendqisi2
 186:time_machine_hardware.cpp ****         dac_.Start(internal_dac_buffer_[0],
 1212              		.loc 1 186 22 is_stmt 0 view .LVU389
 1213 0288 04F11005 		add	r5, r4, #16
 1214              	.LVL72:
 185:time_machine_hardware.cpp ****             dac_.Stop();
 1215              		.loc 1 185 9 view .LVU390
 1216 028c 002B     		cmp	r3, #0
 1217 028e 48D1     		bne	.L43
 1218              	.L44:
 187:time_machine_hardware.cpp ****                    internal_dac_buffer_[1],
 1219              		.loc 1 187 9 is_stmt 1 view .LVU391
 187:time_machine_hardware.cpp ****                    internal_dac_buffer_[1],
 1220              		.loc 1 187 19 is_stmt 0 view .LVU392
 1221 0290 2846     		mov	r0, r5
 1222 0292 2E4D     		ldr	r5, .L64+32
 1223 0294 2368     		ldr	r3, [r4]
 1224 0296 D4E90112 		ldrd	r1, r2, [r4, #4]
 1225 029a 0095     		str	r5, [sp]
 1226 029c FFF7FEFF 		bl	_ZN5daisy9DacHandle5StartEPtS1_jPFvPS1_jE
 1227              	.LVL73:
 191:time_machine_hardware.cpp ****     }
 1228              		.loc 1 191 9 is_stmt 1 view .LVU393
 191:time_machine_hardware.cpp ****     }
 1229              		.loc 1 191 22 is_stmt 0 view .LVU394
 1230 02a0 0123     		movs	r3, #1
 1231 02a2 2375     		strb	r3, [r4, #20]
 1232              	.LVL74:
 191:time_machine_hardware.cpp ****     }
ARM GAS  /var/folders/xd/16jvbr6j24q9nvtpm0qtw3240000gn/T//cch9jPA2.s 			page 48


 1233              		.loc 1 191 22 view .LVU395
 1234              	.LBE714:
 1235              	.LBE713:
 1236              	.LBE712:
 1237              	.LBE711:
 376:time_machine_hardware.cpp **** 
 1238              		.loc 1 376 5 view .LVU396
 1239 02a4 0DF5DB6D 		add	sp, sp, #1752
 1240              		.cfi_remember_state
 1241              		.cfi_def_cfa_offset 40
 1242              		@ sp needed
 1243 02a8 BDEC028B 		vldm	sp!, {d8}
 1244              		.cfi_restore 80
 1245              		.cfi_restore 81
 1246              		.cfi_def_cfa_offset 32
 1247 02ac BDE8F087 		pop	{r4, r5, r6, r7, r8, r9, r10, pc}
 1248              	.LVL75:
 1249              	.L33:
 1250              		.cfi_restore_state
 1251              	.LBB718:
 1252              	.LBB701:
 333:time_machine_hardware.cpp ****                 case CV_1:
 1253              		.loc 1 333 13 view .LVU397
 1254 02b0 0C2E     		cmp	r6, #12
 1255 02b2 AAD0     		beq	.L34
 1256              	.LVL76:
 1257              	.L36:
 333:time_machine_hardware.cpp ****                 case CV_1:
 1258              		.loc 1 333 13 view .LVU398
 1259 02b4 5FFA86FA 		uxtb	r10, r6
 1260              	.LBB697:
 1261              	.LBB695:
 357:time_machine_hardware.cpp ****                         controls[i].Init(adc.GetMuxPtr(i, muxChannel), callback_rate_);
 1262              		.loc 1 357 29 view .LVU399
 1263 02b8 0024     		movs	r4, #0
 1264              	.L41:
 1265              	.LVL77:
 358:time_machine_hardware.cpp ****                     }
 1266              		.loc 1 358 25 is_stmt 1 discriminator 2 view .LVU400
 358:time_machine_hardware.cpp ****                     }
 1267              		.loc 1 358 41 is_stmt 0 discriminator 2 view .LVU401
 1268 02ba E2B2     		uxtb	r2, r4
 1269 02bc 5146     		mov	r1, r10
 1270 02be 4046     		mov	r0, r8
 357:time_machine_hardware.cpp ****                         controls[i].Init(adc.GetMuxPtr(i, muxChannel), callback_rate_);
 1271              		.loc 1 357 21 discriminator 2 view .LVU402
 1272 02c0 0134     		adds	r4, r4, #1
 1273              	.LVL78:
 358:time_machine_hardware.cpp ****                     }
 1274              		.loc 1 358 41 discriminator 2 view .LVU403
 1275 02c2 FFF7FEFF 		bl	_ZNK5daisy9AdcHandle9GetMuxPtrEhh
 1276              	.LVL79:
 1277 02c6 0023     		movs	r3, #0
 1278 02c8 0146     		mov	r1, r0
 1279 02ca DFED210A 		vldr.32	s1, .L64+36
 1280 02ce 95ED860A 		vldr.32	s0, [r5, #536]
 1281 02d2 1A46     		mov	r2, r3
ARM GAS  /var/folders/xd/16jvbr6j24q9nvtpm0qtw3240000gn/T//cch9jPA2.s 			page 49


 1282 02d4 3846     		mov	r0, r7
 1283 02d6 FFF7FEFF 		bl	_ZN5daisy13AnalogControl4InitEPtfbbf
 1284              	.LVL80:
 357:time_machine_hardware.cpp ****                         controls[i].Init(adc.GetMuxPtr(i, muxChannel), callback_rate_);
 1285              		.loc 1 357 21 is_stmt 1 discriminator 2 view .LVU404
 357:time_machine_hardware.cpp ****                         controls[i].Init(adc.GetMuxPtr(i, muxChannel), callback_rate_);
 1286              		.loc 1 357 56 discriminator 2 view .LVU405
 1287 02da 082C     		cmp	r4, #8
 1288 02dc EDD1     		bne	.L41
 1289              	.LBE695:
 1290              	.LBE697:
 1291              	.LBE701:
 331:time_machine_hardware.cpp ****         {
 1292              		.loc 1 331 9 view .LVU406
 1293 02de 0136     		adds	r6, r6, #1
 1294              	.LVL81:
 331:time_machine_hardware.cpp ****         {
 1295              		.loc 1 331 30 view .LVU407
 1296 02e0 0C2E     		cmp	r6, #12
 1297 02e2 8BD1     		bne	.L39
 1298 02e4 A3E7     		b	.L63
 1299              	.LVL82:
 1300              	.L32:
 1301              	.LBB702:
 1302              	.LBB698:
 350:time_machine_hardware.cpp ****                     controls[i].Init(adc.GetPtr(i), callback_rate_);
 1303              		.loc 1 350 17 view .LVU408
 351:time_machine_hardware.cpp ****                     break;
 1304              		.loc 1 351 21 view .LVU409
 351:time_machine_hardware.cpp ****                     break;
 1305              		.loc 1 351 37 is_stmt 0 view .LVU410
 1306 02e6 3146     		mov	r1, r6
 1307 02e8 4046     		mov	r0, r8
 1308 02ea FFF7FEFF 		bl	_ZNK5daisy9AdcHandle6GetPtrEh
 1309              	.LVL83:
 1310 02ee 0023     		movs	r3, #0
 1311 02f0 0146     		mov	r1, r0
 1312 02f2 DFED170A 		vldr.32	s1, .L64+36
 1313 02f6 1A46     		mov	r2, r3
 1314 02f8 95ED860A 		vldr.32	s0, [r5, #536]
 1315 02fc 05F5A070 		add	r0, r5, #320
 1316 0300 2037     		adds	r7, r7, #32
 1317              	.LBE698:
 1318              	.LBE702:
 331:time_machine_hardware.cpp ****         {
 1319              		.loc 1 331 9 view .LVU411
 1320 0302 0926     		movs	r6, #9
 1321              	.LVL84:
 1322              	.LBB703:
 1323              	.LBB699:
 351:time_machine_hardware.cpp ****                     break;
 1324              		.loc 1 351 37 view .LVU412
 1325 0304 FFF7FEFF 		bl	_ZN5daisy13AnalogControl4InitEPtfbbf
 1326              	.LVL85:
 352:time_machine_hardware.cpp **** 
 1327              		.loc 1 352 21 is_stmt 1 view .LVU413
 1328              	.LBE699:
ARM GAS  /var/folders/xd/16jvbr6j24q9nvtpm0qtw3240000gn/T//cch9jPA2.s 			page 50


 1329              	.LBE703:
 331:time_machine_hardware.cpp ****         {
 1330              		.loc 1 331 9 view .LVU414
 331:time_machine_hardware.cpp ****         {
 1331              		.loc 1 331 30 view .LVU415
 331:time_machine_hardware.cpp ****         {
 1332              		.loc 1 331 30 is_stmt 0 view .LVU416
 1333              	.LBE718:
 333:time_machine_hardware.cpp ****                 case CV_1:
 1334              		.loc 1 333 13 is_stmt 1 view .LVU417
 1335 0308 D4E7     		b	.L36
 1336              	.LVL86:
 1337              	.L61:
 333:time_machine_hardware.cpp ****                 case CV_1:
 1338              		.loc 1 333 13 is_stmt 0 view .LVU418
 1339 030a 0446     		mov	r4, r0
 229:time_machine_hardware.cpp ****         }
 1340              		.loc 1 229 13 is_stmt 1 view .LVU419
 232:time_machine_hardware.cpp **** 
 1341              		.loc 1 232 20 is_stmt 0 view .LVU420
 1342 030c 07A9     		add	r1, sp, #28
 1343 030e 2846     		mov	r0, r5
 1344              	.LVL87:
 229:time_machine_hardware.cpp ****         }
 1345              		.loc 1 229 32 view .LVU421
 1346 0310 8DF82260 		strb	r6, [sp, #34]
 232:time_machine_hardware.cpp **** 
 1347              		.loc 1 232 9 is_stmt 1 view .LVU422
 232:time_machine_hardware.cpp **** 
 1348              		.loc 1 232 20 is_stmt 0 view .LVU423
 1349 0314 FFF7FEFF 		bl	_ZN5daisy6System4InitERKNS0_6ConfigE
 1350              	.LVL88:
 235:time_machine_hardware.cpp ****         {
 1351              		.loc 1 235 9 is_stmt 1 view .LVU424
 241:time_machine_hardware.cpp ****         {
 1352              		.loc 1 241 9 view .LVU425
 1353              	.LBB719:
 1354 0318 072C     		cmp	r4, #7
 1355 031a 7FF491AE 		bne	.L45
 1356 031e 27AF     		add	r7, sp, #156
 1357 0320 AAE6     		b	.L25
 1358              	.LVL89:
 1359              	.L43:
 241:time_machine_hardware.cpp ****         {
 1360              		.loc 1 241 9 is_stmt 0 view .LVU426
 1361              	.LBE719:
 1362              	.LBB720:
 1363              	.LBB717:
 1364              	.LBB716:
 1365              	.LBB715:
 186:time_machine_hardware.cpp ****         dac_.Start(internal_dac_buffer_[0],
 1366              		.loc 1 186 13 is_stmt 1 view .LVU427
 186:time_machine_hardware.cpp ****         dac_.Start(internal_dac_buffer_[0],
 1367              		.loc 1 186 22 is_stmt 0 view .LVU428
 1368 0322 2846     		mov	r0, r5
 1369 0324 FFF7FEFF 		bl	_ZN5daisy9DacHandle4StopEv
 1370              	.LVL90:
ARM GAS  /var/folders/xd/16jvbr6j24q9nvtpm0qtw3240000gn/T//cch9jPA2.s 			page 51


 1371 0328 B2E7     		b	.L44
 1372              	.L65:
 1373 032a 00BF     		.align	2
 1374              	.L64:
 1375 032c 00000000 		.word	.LANCHOR0
 1376 0330 04020404 		.word	67371524
 1377 0334 010A010B 		.word	184617473
 1378 0338 00000000 		.word	.LANCHOR1
 1379 033c 00000000 		.word	_ZN5daisy8patch_sm12DaisyPatchSM2D2E
 1380 0340 00000000 		.word	.LANCHOR2
 1381 0344 00000000 		.word	.LANCHOR3
 1382 0348 00000000 		.word	.LANCHOR4
 1383 034c 00000000 		.word	_ZN3oam12time_machine19TimeMachineHardware4Impl19InternalDacCallbackEPPtj
 1384 0350 6F12033B 		.word	990057071
 1385 0354 10000000 		.word	.LANCHOR1+16
 1386 0358 00000000 		.word	_ZN5daisy8patch_sm12DaisyPatchSM2D4E
 1387 035c 00000000 		.word	_ZN5daisy8patch_sm12DaisyPatchSM2D3E
 1388              	.LBE715:
 1389              	.LBE716:
 1390              	.LBE717:
 1391              	.LBE720:
 1392              		.cfi_endproc
 1393              	.LFE3139:
 1395              		.section	.text._ZN3oam12time_machine19TimeMachineHardware10StartAudioEPFvPKPKfPPfjE,"ax",%progbits
 1396              		.align	1
 1397              		.p2align 2,,3
 1398              		.global	_ZN3oam12time_machine19TimeMachineHardware10StartAudioEPFvPKPKfPPfjE
 1399              		.syntax unified
 1400              		.thumb
 1401              		.thumb_func
 1403              	_ZN3oam12time_machine19TimeMachineHardware10StartAudioEPFvPKPKfPPfjE:
 1404              	.LVL91:
 1405              	.LFB3158:
 379:time_machine_hardware.cpp ****         audio.Start(cb);
 1406              		.loc 1 379 5 is_stmt 1 view -0
 1407              		.cfi_startproc
 1408              		@ args = 0, pretend = 0, frame = 0
 1409              		@ frame_needed = 0, uses_anonymous_args = 0
 1410              		@ link register save eliminated.
 380:time_machine_hardware.cpp ****     }
 1411              		.loc 1 380 9 view .LVU430
 380:time_machine_hardware.cpp ****     }
 1412              		.loc 1 380 20 is_stmt 0 view .LVU431
 1413 0000 1030     		adds	r0, r0, #16
 1414              	.LVL92:
 380:time_machine_hardware.cpp ****     }
 1415              		.loc 1 380 20 view .LVU432
 1416 0002 FFF7FEBF 		b	_ZN5daisy11AudioHandle5StartEPFvPKPKfPPfjE
 1417              	.LVL93:
 380:time_machine_hardware.cpp ****     }
 1418              		.loc 1 380 20 view .LVU433
 1419              		.cfi_endproc
 1420              	.LFE3158:
 1422 0006 00BF     		.section	.text._ZN3oam12time_machine19TimeMachineHardware10StartAudioEPFvPKfPfjE,"ax",%progbits
 1423              		.align	1
 1424              		.p2align 2,,3
 1425              		.global	_ZN3oam12time_machine19TimeMachineHardware10StartAudioEPFvPKfPfjE
ARM GAS  /var/folders/xd/16jvbr6j24q9nvtpm0qtw3240000gn/T//cch9jPA2.s 			page 52


 1426              		.syntax unified
 1427              		.thumb
 1428              		.thumb_func
 1430              	_ZN3oam12time_machine19TimeMachineHardware10StartAudioEPFvPKfPfjE:
 1431              	.LVL94:
 1432              	.LFB3159:
 384:time_machine_hardware.cpp ****         audio.Start(cb);
 1433              		.loc 1 384 5 is_stmt 1 view -0
 1434              		.cfi_startproc
 1435              		@ args = 0, pretend = 0, frame = 0
 1436              		@ frame_needed = 0, uses_anonymous_args = 0
 1437              		@ link register save eliminated.
 385:time_machine_hardware.cpp ****     }
 1438              		.loc 1 385 9 view .LVU435
 385:time_machine_hardware.cpp ****     }
 1439              		.loc 1 385 20 is_stmt 0 view .LVU436
 1440 0000 1030     		adds	r0, r0, #16
 1441              	.LVL95:
 385:time_machine_hardware.cpp ****     }
 1442              		.loc 1 385 20 view .LVU437
 1443 0002 FFF7FEBF 		b	_ZN5daisy11AudioHandle5StartEPFvPKfPfjE
 1444              	.LVL96:
 385:time_machine_hardware.cpp ****     }
 1445              		.loc 1 385 20 view .LVU438
 1446              		.cfi_endproc
 1447              	.LFE3159:
 1449 0006 00BF     		.section	.text._ZN3oam12time_machine19TimeMachineHardware19ChangeAudioCallbackEPFvPKPKfPPfjE,"ax",
 1450              		.align	1
 1451              		.p2align 2,,3
 1452              		.global	_ZN3oam12time_machine19TimeMachineHardware19ChangeAudioCallbackEPFvPKPKfPPfjE
 1453              		.syntax unified
 1454              		.thumb
 1455              		.thumb_func
 1457              	_ZN3oam12time_machine19TimeMachineHardware19ChangeAudioCallbackEPFvPKPKfPPfjE:
 1458              	.LVL97:
 1459              	.LFB3160:
 389:time_machine_hardware.cpp ****         audio.ChangeCallback(cb);
 1460              		.loc 1 389 5 is_stmt 1 view -0
 1461              		.cfi_startproc
 1462              		@ args = 0, pretend = 0, frame = 0
 1463              		@ frame_needed = 0, uses_anonymous_args = 0
 1464              		@ link register save eliminated.
 390:time_machine_hardware.cpp ****     }
 1465              		.loc 1 390 9 view .LVU440
 390:time_machine_hardware.cpp ****     }
 1466              		.loc 1 390 29 is_stmt 0 view .LVU441
 1467 0000 1030     		adds	r0, r0, #16
 1468              	.LVL98:
 390:time_machine_hardware.cpp ****     }
 1469              		.loc 1 390 29 view .LVU442
 1470 0002 FFF7FEBF 		b	_ZN5daisy11AudioHandle14ChangeCallbackEPFvPKPKfPPfjE
 1471              	.LVL99:
 390:time_machine_hardware.cpp ****     }
 1472              		.loc 1 390 29 view .LVU443
 1473              		.cfi_endproc
 1474              	.LFE3160:
 1476 0006 00BF     		.section	.text._ZN3oam12time_machine19TimeMachineHardware19ChangeAudioCallbackEPFvPKfPfjE,"ax",%pr
ARM GAS  /var/folders/xd/16jvbr6j24q9nvtpm0qtw3240000gn/T//cch9jPA2.s 			page 53


 1477              		.align	1
 1478              		.p2align 2,,3
 1479              		.global	_ZN3oam12time_machine19TimeMachineHardware19ChangeAudioCallbackEPFvPKfPfjE
 1480              		.syntax unified
 1481              		.thumb
 1482              		.thumb_func
 1484              	_ZN3oam12time_machine19TimeMachineHardware19ChangeAudioCallbackEPFvPKfPfjE:
 1485              	.LVL100:
 1486              	.LFB3161:
 394:time_machine_hardware.cpp ****         audio.ChangeCallback(cb);
 1487              		.loc 1 394 5 is_stmt 1 view -0
 1488              		.cfi_startproc
 1489              		@ args = 0, pretend = 0, frame = 0
 1490              		@ frame_needed = 0, uses_anonymous_args = 0
 1491              		@ link register save eliminated.
 395:time_machine_hardware.cpp ****     }
 1492              		.loc 1 395 9 view .LVU445
 395:time_machine_hardware.cpp ****     }
 1493              		.loc 1 395 29 is_stmt 0 view .LVU446
 1494 0000 1030     		adds	r0, r0, #16
 1495              	.LVL101:
 395:time_machine_hardware.cpp ****     }
 1496              		.loc 1 395 29 view .LVU447
 1497 0002 FFF7FEBF 		b	_ZN5daisy11AudioHandle14ChangeCallbackEPFvPKfPfjE
 1498              	.LVL102:
 395:time_machine_hardware.cpp ****     }
 1499              		.loc 1 395 29 view .LVU448
 1500              		.cfi_endproc
 1501              	.LFE3161:
 1503 0006 00BF     		.section	.text._ZN3oam12time_machine19TimeMachineHardware9StopAudioEv,"ax",%progbits
 1504              		.align	1
 1505              		.p2align 2,,3
 1506              		.global	_ZN3oam12time_machine19TimeMachineHardware9StopAudioEv
 1507              		.syntax unified
 1508              		.thumb
 1509              		.thumb_func
 1511              	_ZN3oam12time_machine19TimeMachineHardware9StopAudioEv:
 1512              	.LVL103:
 1513              	.LFB3162:
 398:time_machine_hardware.cpp **** 
 1514              		.loc 1 398 43 is_stmt 1 view -0
 1515              		.cfi_startproc
 1516              		@ args = 0, pretend = 0, frame = 0
 1517              		@ frame_needed = 0, uses_anonymous_args = 0
 1518              		@ link register save eliminated.
 398:time_machine_hardware.cpp **** 
 1519              		.loc 1 398 45 view .LVU450
 398:time_machine_hardware.cpp **** 
 1520              		.loc 1 398 55 is_stmt 0 view .LVU451
 1521 0000 1030     		adds	r0, r0, #16
 1522              	.LVL104:
 398:time_machine_hardware.cpp **** 
 1523              		.loc 1 398 55 view .LVU452
 1524 0002 FFF7FEBF 		b	_ZN5daisy11AudioHandle4StopEv
 1525              	.LVL105:
 398:time_machine_hardware.cpp **** 
 1526              		.loc 1 398 55 view .LVU453
ARM GAS  /var/folders/xd/16jvbr6j24q9nvtpm0qtw3240000gn/T//cch9jPA2.s 			page 54


 1527              		.cfi_endproc
 1528              	.LFE3162:
 1530 0006 00BF     		.section	.text._ZN3oam12time_machine19TimeMachineHardware17SetAudioBlockSizeEj,"ax",%progbits
 1531              		.align	1
 1532              		.p2align 2,,3
 1533              		.global	_ZN3oam12time_machine19TimeMachineHardware17SetAudioBlockSizeEj
 1534              		.syntax unified
 1535              		.thumb
 1536              		.thumb_func
 1538              	_ZN3oam12time_machine19TimeMachineHardware17SetAudioBlockSizeEj:
 1539              	.LVL106:
 1540              	.LFB3163:
 401:time_machine_hardware.cpp ****         audio.SetBlockSize(size);
 1541              		.loc 1 401 5 is_stmt 1 view -0
 1542              		.cfi_startproc
 1543              		@ args = 0, pretend = 0, frame = 0
 1544              		@ frame_needed = 0, uses_anonymous_args = 0
 402:time_machine_hardware.cpp ****         callback_rate_ = AudioSampleRate() / AudioBlockSize();
 1545              		.loc 1 402 9 view .LVU455
 401:time_machine_hardware.cpp ****         audio.SetBlockSize(size);
 1546              		.loc 1 401 5 is_stmt 0 view .LVU456
 1547 0000 F8B5     		push	{r3, r4, r5, r6, r7, lr}
 1548              		.cfi_def_cfa_offset 24
 1549              		.cfi_offset 3, -24
 1550              		.cfi_offset 4, -20
 1551              		.cfi_offset 5, -16
 1552              		.cfi_offset 6, -12
 1553              		.cfi_offset 7, -8
 1554              		.cfi_offset 14, -4
 402:time_machine_hardware.cpp ****         callback_rate_ = AudioSampleRate() / AudioBlockSize();
 1555              		.loc 1 402 27 view .LVU457
 1556 0002 00F11007 		add	r7, r0, #16
 401:time_machine_hardware.cpp ****         audio.SetBlockSize(size);
 1557              		.loc 1 401 5 view .LVU458
 1558 0006 0546     		mov	r5, r0
 1559 0008 00F14004 		add	r4, r0, #64
 1560 000c 00F5E076 		add	r6, r0, #448
 402:time_machine_hardware.cpp ****         callback_rate_ = AudioSampleRate() / AudioBlockSize();
 1561              		.loc 1 402 27 view .LVU459
 1562 0010 3846     		mov	r0, r7
 1563              	.LVL107:
 401:time_machine_hardware.cpp ****         audio.SetBlockSize(size);
 1564              		.loc 1 401 5 view .LVU460
 1565 0012 2DED028B 		vpush.64	{d8}
 1566              		.cfi_def_cfa_offset 32
 1567              		.cfi_offset 80, -32
 1568              		.cfi_offset 81, -28
 402:time_machine_hardware.cpp ****         callback_rate_ = AudioSampleRate() / AudioBlockSize();
 1569              		.loc 1 402 27 view .LVU461
 1570 0016 FFF7FEFF 		bl	_ZN5daisy11AudioHandle12SetBlockSizeEj
 1571              	.LVL108:
 403:time_machine_hardware.cpp ****         for (size_t i = 0; i < ADC_LAST; i++)
 1572              		.loc 1 403 9 is_stmt 1 view .LVU462
 1573              	.LBB721:
 1574              	.LBI721:
 463:time_machine_hardware.cpp **** 
 1575              		.loc 1 463 11 view .LVU463
ARM GAS  /var/folders/xd/16jvbr6j24q9nvtpm0qtw3240000gn/T//cch9jPA2.s 			page 55


 1576              	.LBB722:
 463:time_machine_hardware.cpp **** 
 1577              		.loc 1 463 52 view .LVU464
 463:time_machine_hardware.cpp **** 
 1578              		.loc 1 463 78 is_stmt 0 view .LVU465
 1579 001a 3846     		mov	r0, r7
 1580 001c FFF7FEFF 		bl	_ZN5daisy11AudioHandle13GetSampleRateEv
 1581              	.LVL109:
 1582              	.LBE722:
 1583              	.LBE721:
 1584              	.LBB724:
 1585              	.LBB725:
 460:time_machine_hardware.cpp ****     }
 1586              		.loc 1 460 32 view .LVU466
 1587 0020 3846     		mov	r0, r7
 1588              	.LBE725:
 1589              	.LBE724:
 1590              	.LBB727:
 1591              	.LBB723:
 463:time_machine_hardware.cpp **** 
 1592              		.loc 1 463 78 view .LVU467
 1593 0022 B0EE408A 		vmov.f32	s16, s0
 1594              	.LVL110:
 463:time_machine_hardware.cpp **** 
 1595              		.loc 1 463 78 view .LVU468
 1596              	.LBE723:
 1597              	.LBE727:
 1598              	.LBB728:
 1599              	.LBI724:
 458:time_machine_hardware.cpp ****     {
 1600              		.loc 1 458 12 is_stmt 1 view .LVU469
 1601              	.LBB726:
 460:time_machine_hardware.cpp ****     }
 1602              		.loc 1 460 9 view .LVU470
 460:time_machine_hardware.cpp ****     }
 1603              		.loc 1 460 32 is_stmt 0 view .LVU471
 1604 0026 FFF7FEFF 		bl	_ZNK5daisy11AudioHandle9GetConfigEv
 1605              	.LVL111:
 460:time_machine_hardware.cpp ****     }
 1606              		.loc 1 460 32 view .LVU472
 1607              	.LBE726:
 1608              	.LBE728:
 403:time_machine_hardware.cpp ****         for (size_t i = 0; i < ADC_LAST; i++)
 1609              		.loc 1 403 44 view .LVU473
 1610 002a D0ED007A 		vldr.32	s15, [r0]	@ int
 1611 002e F8EE677A 		vcvt.f32.u32	s15, s15
 1612 0032 88EE270A 		vdiv.f32	s0, s16, s15
 403:time_machine_hardware.cpp ****         for (size_t i = 0; i < ADC_LAST; i++)
 1613              		.loc 1 403 24 view .LVU474
 1614 0036 85ED860A 		vstr.32	s0, [r5, #536]
 404:time_machine_hardware.cpp ****         {
 1615              		.loc 1 404 9 is_stmt 1 view .LVU475
 1616              	.LVL112:
 1617              	.LBB729:
 404:time_machine_hardware.cpp ****         {
 1618              		.loc 1 404 30 view .LVU476
 1619 003a 01E0     		b	.L73
ARM GAS  /var/folders/xd/16jvbr6j24q9nvtpm0qtw3240000gn/T//cch9jPA2.s 			page 56


 1620              	.LVL113:
 1621              	.L75:
 406:time_machine_hardware.cpp ****         }
 1622              		.loc 1 406 38 is_stmt 0 view .LVU477
 1623 003c 95ED860A 		vldr.32	s0, [r5, #536]
 1624              	.L73:
 406:time_machine_hardware.cpp ****         }
 1625              		.loc 1 406 13 is_stmt 1 discriminator 2 view .LVU478
 406:time_machine_hardware.cpp ****         }
 1626              		.loc 1 406 38 is_stmt 0 discriminator 2 view .LVU479
 1627 0040 2046     		mov	r0, r4
 404:time_machine_hardware.cpp ****         {
 1628              		.loc 1 404 30 discriminator 2 view .LVU480
 1629 0042 2034     		adds	r4, r4, #32
 406:time_machine_hardware.cpp ****         }
 1630              		.loc 1 406 38 discriminator 2 view .LVU481
 1631 0044 FFF7FEFF 		bl	_ZN5daisy13AnalogControl13SetSampleRateEf
 1632              	.LVL114:
 404:time_machine_hardware.cpp ****         {
 1633              		.loc 1 404 9 is_stmt 1 discriminator 2 view .LVU482
 404:time_machine_hardware.cpp ****         {
 1634              		.loc 1 404 30 discriminator 2 view .LVU483
 1635 0048 B442     		cmp	r4, r6
 1636 004a F7D1     		bne	.L75
 1637              	.LBE729:
 408:time_machine_hardware.cpp **** 
 1638              		.loc 1 408 5 is_stmt 0 view .LVU484
 1639 004c BDEC028B 		vldm	sp!, {d8}
 1640              		.cfi_restore 80
 1641              		.cfi_restore 81
 1642              		.cfi_def_cfa_offset 24
 1643 0050 F8BD     		pop	{r3, r4, r5, r6, r7, pc}
 408:time_machine_hardware.cpp **** 
 1644              		.loc 1 408 5 view .LVU485
 1645              		.cfi_endproc
 1646              	.LFE3163:
 1648 0052 00BF     		.section	.text._ZN3oam12time_machine19TimeMachineHardware18SetAudioSampleRateEf,"ax",%progbits
 1649              		.align	1
 1650              		.p2align 2,,3
 1651              		.global	_ZN3oam12time_machine19TimeMachineHardware18SetAudioSampleRateEf
 1652              		.syntax unified
 1653              		.thumb
 1654              		.thumb_func
 1656              	_ZN3oam12time_machine19TimeMachineHardware18SetAudioSampleRateEf:
 1657              	.LVL115:
 1658              	.LFB3164:
 411:time_machine_hardware.cpp ****         SaiHandle::Config::SampleRate sai_sr;
 1659              		.loc 1 411 5 is_stmt 1 view -0
 1660              		.cfi_startproc
 1661              		@ args = 0, pretend = 0, frame = 0
 1662              		@ frame_needed = 0, uses_anonymous_args = 0
 412:time_machine_hardware.cpp ****         switch (int(sr))
 1663              		.loc 1 412 9 view .LVU487
 413:time_machine_hardware.cpp ****         {
 1664              		.loc 1 413 9 view .LVU488
 413:time_machine_hardware.cpp ****         {
 1665              		.loc 1 413 17 is_stmt 0 view .LVU489
ARM GAS  /var/folders/xd/16jvbr6j24q9nvtpm0qtw3240000gn/T//cch9jPA2.s 			page 57


 1666 0000 FDEEC07A 		vcvt.s32.f32	s15, s0
 411:time_machine_hardware.cpp ****         SaiHandle::Config::SampleRate sai_sr;
 1667              		.loc 1 411 5 view .LVU490
 1668 0004 F8B5     		push	{r3, r4, r5, r6, r7, lr}
 1669              		.cfi_def_cfa_offset 24
 1670              		.cfi_offset 3, -24
 1671              		.cfi_offset 4, -20
 1672              		.cfi_offset 5, -16
 1673              		.cfi_offset 6, -12
 1674              		.cfi_offset 7, -8
 1675              		.cfi_offset 14, -4
 413:time_machine_hardware.cpp ****         {
 1676              		.loc 1 413 17 view .LVU491
 1677 0006 17EE901A 		vmov	r1, s15	@ int
 411:time_machine_hardware.cpp ****         SaiHandle::Config::SampleRate sai_sr;
 1678              		.loc 1 411 5 view .LVU492
 1679 000a 0546     		mov	r5, r0
 413:time_machine_hardware.cpp ****         {
 1680              		.loc 1 413 9 view .LVU493
 1681 000c B1F5FA4F 		cmp	r1, #32000
 411:time_machine_hardware.cpp ****         SaiHandle::Config::SampleRate sai_sr;
 1682              		.loc 1 411 5 view .LVU494
 1683 0010 2DED028B 		vpush.64	{d8}
 1684              		.cfi_def_cfa_offset 32
 1685              		.cfi_offset 80, -32
 1686              		.cfi_offset 81, -28
 413:time_machine_hardware.cpp ****         {
 1687              		.loc 1 413 9 view .LVU495
 1688 0014 35D0     		beq	.L81
 1689 0016 2CDC     		bgt	.L78
 1690 0018 B1F5FA5F 		cmp	r1, #8000
 1691 001c 2FD0     		beq	.L82
 1692 001e B1F57A5F 		cmp	r1, #16000
 1693 0022 14BF     		ite	ne
 1694 0024 0321     		movne	r1, #3
 1695 0026 0121     		moveq	r1, #1
 1696              	.L77:
 1697              	.LVL116:
 440:time_machine_hardware.cpp ****         callback_rate_ = AudioSampleRate() / AudioBlockSize();
 1698              		.loc 1 440 9 is_stmt 1 view .LVU496
 440:time_machine_hardware.cpp ****         callback_rate_ = AudioSampleRate() / AudioBlockSize();
 1699              		.loc 1 440 28 is_stmt 0 view .LVU497
 1700 0028 05F11007 		add	r7, r5, #16
 1701 002c 05F14004 		add	r4, r5, #64
 1702 0030 05F5E076 		add	r6, r5, #448
 1703 0034 3846     		mov	r0, r7
 1704              	.LVL117:
 440:time_machine_hardware.cpp ****         callback_rate_ = AudioSampleRate() / AudioBlockSize();
 1705              		.loc 1 440 28 view .LVU498
 1706 0036 FFF7FEFF 		bl	_ZN5daisy11AudioHandle13SetSampleRateENS_9SaiHandle6Config10SampleRateE
 1707              	.LVL118:
 441:time_machine_hardware.cpp ****         for (size_t i = 0; i < ADC_LAST; i++)
 1708              		.loc 1 441 9 is_stmt 1 view .LVU499
 1709              	.LBB730:
 1710              	.LBI730:
 463:time_machine_hardware.cpp **** 
 1711              		.loc 1 463 11 view .LVU500
ARM GAS  /var/folders/xd/16jvbr6j24q9nvtpm0qtw3240000gn/T//cch9jPA2.s 			page 58


 1712              	.LBB731:
 463:time_machine_hardware.cpp **** 
 1713              		.loc 1 463 52 view .LVU501
 463:time_machine_hardware.cpp **** 
 1714              		.loc 1 463 78 is_stmt 0 view .LVU502
 1715 003a 3846     		mov	r0, r7
 1716 003c FFF7FEFF 		bl	_ZN5daisy11AudioHandle13GetSampleRateEv
 1717              	.LVL119:
 1718              	.LBE731:
 1719              	.LBE730:
 1720              	.LBB733:
 1721              	.LBB734:
 460:time_machine_hardware.cpp ****     }
 1722              		.loc 1 460 32 view .LVU503
 1723 0040 3846     		mov	r0, r7
 1724              	.LBE734:
 1725              	.LBE733:
 1726              	.LBB736:
 1727              	.LBB732:
 463:time_machine_hardware.cpp **** 
 1728              		.loc 1 463 78 view .LVU504
 1729 0042 B0EE408A 		vmov.f32	s16, s0
 1730              	.LVL120:
 463:time_machine_hardware.cpp **** 
 1731              		.loc 1 463 78 view .LVU505
 1732              	.LBE732:
 1733              	.LBE736:
 1734              	.LBB737:
 1735              	.LBI733:
 458:time_machine_hardware.cpp ****     {
 1736              		.loc 1 458 12 is_stmt 1 view .LVU506
 1737              	.LBB735:
 460:time_machine_hardware.cpp ****     }
 1738              		.loc 1 460 9 view .LVU507
 460:time_machine_hardware.cpp ****     }
 1739              		.loc 1 460 32 is_stmt 0 view .LVU508
 1740 0046 FFF7FEFF 		bl	_ZNK5daisy11AudioHandle9GetConfigEv
 1741              	.LVL121:
 460:time_machine_hardware.cpp ****     }
 1742              		.loc 1 460 32 view .LVU509
 1743              	.LBE735:
 1744              	.LBE737:
 441:time_machine_hardware.cpp ****         for (size_t i = 0; i < ADC_LAST; i++)
 1745              		.loc 1 441 44 view .LVU510
 1746 004a D0ED007A 		vldr.32	s15, [r0]	@ int
 1747 004e F8EE677A 		vcvt.f32.u32	s15, s15
 1748 0052 88EE270A 		vdiv.f32	s0, s16, s15
 441:time_machine_hardware.cpp ****         for (size_t i = 0; i < ADC_LAST; i++)
 1749              		.loc 1 441 24 view .LVU511
 1750 0056 85ED860A 		vstr.32	s0, [r5, #536]
 442:time_machine_hardware.cpp ****         {
 1751              		.loc 1 442 9 is_stmt 1 view .LVU512
 1752              	.LVL122:
 1753              	.LBB738:
 442:time_machine_hardware.cpp ****         {
 1754              		.loc 1 442 30 view .LVU513
 1755 005a 01E0     		b	.L80
ARM GAS  /var/folders/xd/16jvbr6j24q9nvtpm0qtw3240000gn/T//cch9jPA2.s 			page 59


 1756              	.LVL123:
 1757              	.L86:
 444:time_machine_hardware.cpp ****         }
 1758              		.loc 1 444 38 is_stmt 0 view .LVU514
 1759 005c 95ED860A 		vldr.32	s0, [r5, #536]
 1760              	.L80:
 444:time_machine_hardware.cpp ****         }
 1761              		.loc 1 444 13 is_stmt 1 discriminator 2 view .LVU515
 444:time_machine_hardware.cpp ****         }
 1762              		.loc 1 444 38 is_stmt 0 discriminator 2 view .LVU516
 1763 0060 2046     		mov	r0, r4
 442:time_machine_hardware.cpp ****         {
 1764              		.loc 1 442 30 discriminator 2 view .LVU517
 1765 0062 2034     		adds	r4, r4, #32
 444:time_machine_hardware.cpp ****         }
 1766              		.loc 1 444 38 discriminator 2 view .LVU518
 1767 0064 FFF7FEFF 		bl	_ZN5daisy13AnalogControl13SetSampleRateEf
 1768              	.LVL124:
 442:time_machine_hardware.cpp ****         {
 1769              		.loc 1 442 9 is_stmt 1 discriminator 2 view .LVU519
 442:time_machine_hardware.cpp ****         {
 1770              		.loc 1 442 30 discriminator 2 view .LVU520
 1771 0068 B442     		cmp	r4, r6
 1772 006a F7D1     		bne	.L86
 1773              	.LBE738:
 446:time_machine_hardware.cpp **** 
 1774              		.loc 1 446 5 is_stmt 0 view .LVU521
 1775 006c BDEC028B 		vldm	sp!, {d8}
 1776              		.cfi_remember_state
 1777              		.cfi_restore 80
 1778              		.cfi_restore 81
 1779              		.cfi_def_cfa_offset 24
 1780 0070 F8BD     		pop	{r3, r4, r5, r6, r7, pc}
 1781              	.LVL125:
 1782              	.L78:
 1783              		.cfi_restore_state
 413:time_machine_hardware.cpp ****         {
 1784              		.loc 1 413 9 view .LVU522
 1785 0072 054B     		ldr	r3, .L87
 432:time_machine_hardware.cpp ****                 break;
 1786              		.loc 1 432 24 view .LVU523
 1787 0074 9942     		cmp	r1, r3
 1788 0076 14BF     		ite	ne
 1789 0078 0321     		movne	r1, #3
 1790 007a 0421     		moveq	r1, #4
 1791 007c D4E7     		b	.L77
 1792              	.L82:
 416:time_machine_hardware.cpp ****                 break;
 1793              		.loc 1 416 24 view .LVU524
 1794 007e 0021     		movs	r1, #0
 1795 0080 D2E7     		b	.L77
 1796              	.L81:
 424:time_machine_hardware.cpp ****                 break;
 1797              		.loc 1 424 24 view .LVU525
 1798 0082 0221     		movs	r1, #2
 1799 0084 D0E7     		b	.L77
 1800              	.L88:
ARM GAS  /var/folders/xd/16jvbr6j24q9nvtpm0qtw3240000gn/T//cch9jPA2.s 			page 60


 1801 0086 00BF     		.align	2
 1802              	.L87:
 1803 0088 00770100 		.word	96000
 1804              		.cfi_endproc
 1805              	.LFE3164:
 1807              		.section	.text._ZN3oam12time_machine19TimeMachineHardware18SetAudioSampleRateEN5daisy9SaiHandle6Co
 1808              		.align	1
 1809              		.p2align 2,,3
 1810              		.global	_ZN3oam12time_machine19TimeMachineHardware18SetAudioSampleRateEN5daisy9SaiHandle6Config10S
 1811              		.syntax unified
 1812              		.thumb
 1813              		.thumb_func
 1815              	_ZN3oam12time_machine19TimeMachineHardware18SetAudioSampleRateEN5daisy9SaiHandle6Config10SampleRate
 1816              	.LVL126:
 1817              	.LFB3165:
 449:time_machine_hardware.cpp ****         audio.SetSampleRate(sample_rate);
 1818              		.loc 1 449 5 is_stmt 1 view -0
 1819              		.cfi_startproc
 1820              		@ args = 0, pretend = 0, frame = 0
 1821              		@ frame_needed = 0, uses_anonymous_args = 0
 450:time_machine_hardware.cpp ****         callback_rate_ = AudioSampleRate() / AudioBlockSize();
 1822              		.loc 1 450 9 view .LVU527
 449:time_machine_hardware.cpp ****         audio.SetSampleRate(sample_rate);
 1823              		.loc 1 449 5 is_stmt 0 view .LVU528
 1824 0000 F8B5     		push	{r3, r4, r5, r6, r7, lr}
 1825              		.cfi_def_cfa_offset 24
 1826              		.cfi_offset 3, -24
 1827              		.cfi_offset 4, -20
 1828              		.cfi_offset 5, -16
 1829              		.cfi_offset 6, -12
 1830              		.cfi_offset 7, -8
 1831              		.cfi_offset 14, -4
 450:time_machine_hardware.cpp ****         callback_rate_ = AudioSampleRate() / AudioBlockSize();
 1832              		.loc 1 450 28 view .LVU529
 1833 0002 00F11007 		add	r7, r0, #16
 449:time_machine_hardware.cpp ****         audio.SetSampleRate(sample_rate);
 1834              		.loc 1 449 5 view .LVU530
 1835 0006 0546     		mov	r5, r0
 1836 0008 00F14004 		add	r4, r0, #64
 1837 000c 00F5E076 		add	r6, r0, #448
 450:time_machine_hardware.cpp ****         callback_rate_ = AudioSampleRate() / AudioBlockSize();
 1838              		.loc 1 450 28 view .LVU531
 1839 0010 3846     		mov	r0, r7
 1840              	.LVL127:
 449:time_machine_hardware.cpp ****         audio.SetSampleRate(sample_rate);
 1841              		.loc 1 449 5 view .LVU532
 1842 0012 2DED028B 		vpush.64	{d8}
 1843              		.cfi_def_cfa_offset 32
 1844              		.cfi_offset 80, -32
 1845              		.cfi_offset 81, -28
 450:time_machine_hardware.cpp ****         callback_rate_ = AudioSampleRate() / AudioBlockSize();
 1846              		.loc 1 450 28 view .LVU533
 1847 0016 FFF7FEFF 		bl	_ZN5daisy11AudioHandle13SetSampleRateENS_9SaiHandle6Config10SampleRateE
 1848              	.LVL128:
 451:time_machine_hardware.cpp ****         for (size_t i = 0; i < ADC_LAST; i++)
 1849              		.loc 1 451 9 is_stmt 1 view .LVU534
 1850              	.LBB739:
ARM GAS  /var/folders/xd/16jvbr6j24q9nvtpm0qtw3240000gn/T//cch9jPA2.s 			page 61


 1851              	.LBI739:
 463:time_machine_hardware.cpp **** 
 1852              		.loc 1 463 11 view .LVU535
 1853              	.LBB740:
 463:time_machine_hardware.cpp **** 
 1854              		.loc 1 463 52 view .LVU536
 463:time_machine_hardware.cpp **** 
 1855              		.loc 1 463 78 is_stmt 0 view .LVU537
 1856 001a 3846     		mov	r0, r7
 1857 001c FFF7FEFF 		bl	_ZN5daisy11AudioHandle13GetSampleRateEv
 1858              	.LVL129:
 1859              	.LBE740:
 1860              	.LBE739:
 1861              	.LBB742:
 1862              	.LBB743:
 460:time_machine_hardware.cpp ****     }
 1863              		.loc 1 460 32 view .LVU538
 1864 0020 3846     		mov	r0, r7
 1865              	.LBE743:
 1866              	.LBE742:
 1867              	.LBB745:
 1868              	.LBB741:
 463:time_machine_hardware.cpp **** 
 1869              		.loc 1 463 78 view .LVU539
 1870 0022 B0EE408A 		vmov.f32	s16, s0
 1871              	.LVL130:
 463:time_machine_hardware.cpp **** 
 1872              		.loc 1 463 78 view .LVU540
 1873              	.LBE741:
 1874              	.LBE745:
 1875              	.LBB746:
 1876              	.LBI742:
 458:time_machine_hardware.cpp ****     {
 1877              		.loc 1 458 12 is_stmt 1 view .LVU541
 1878              	.LBB744:
 460:time_machine_hardware.cpp ****     }
 1879              		.loc 1 460 9 view .LVU542
 460:time_machine_hardware.cpp ****     }
 1880              		.loc 1 460 32 is_stmt 0 view .LVU543
 1881 0026 FFF7FEFF 		bl	_ZNK5daisy11AudioHandle9GetConfigEv
 1882              	.LVL131:
 460:time_machine_hardware.cpp ****     }
 1883              		.loc 1 460 32 view .LVU544
 1884              	.LBE744:
 1885              	.LBE746:
 451:time_machine_hardware.cpp ****         for (size_t i = 0; i < ADC_LAST; i++)
 1886              		.loc 1 451 44 view .LVU545
 1887 002a D0ED007A 		vldr.32	s15, [r0]	@ int
 1888 002e F8EE677A 		vcvt.f32.u32	s15, s15
 1889 0032 88EE270A 		vdiv.f32	s0, s16, s15
 451:time_machine_hardware.cpp ****         for (size_t i = 0; i < ADC_LAST; i++)
 1890              		.loc 1 451 24 view .LVU546
 1891 0036 85ED860A 		vstr.32	s0, [r5, #536]
 452:time_machine_hardware.cpp ****         {
 1892              		.loc 1 452 9 is_stmt 1 view .LVU547
 1893              	.LVL132:
 1894              	.LBB747:
ARM GAS  /var/folders/xd/16jvbr6j24q9nvtpm0qtw3240000gn/T//cch9jPA2.s 			page 62


 452:time_machine_hardware.cpp ****         {
 1895              		.loc 1 452 30 view .LVU548
 1896 003a 01E0     		b	.L91
 1897              	.LVL133:
 1898              	.L93:
 454:time_machine_hardware.cpp ****         }
 1899              		.loc 1 454 38 is_stmt 0 view .LVU549
 1900 003c 95ED860A 		vldr.32	s0, [r5, #536]
 1901              	.L91:
 454:time_machine_hardware.cpp ****         }
 1902              		.loc 1 454 13 is_stmt 1 discriminator 2 view .LVU550
 454:time_machine_hardware.cpp ****         }
 1903              		.loc 1 454 38 is_stmt 0 discriminator 2 view .LVU551
 1904 0040 2046     		mov	r0, r4
 452:time_machine_hardware.cpp ****         {
 1905              		.loc 1 452 30 discriminator 2 view .LVU552
 1906 0042 2034     		adds	r4, r4, #32
 454:time_machine_hardware.cpp ****         }
 1907              		.loc 1 454 38 discriminator 2 view .LVU553
 1908 0044 FFF7FEFF 		bl	_ZN5daisy13AnalogControl13SetSampleRateEf
 1909              	.LVL134:
 452:time_machine_hardware.cpp ****         {
 1910              		.loc 1 452 9 is_stmt 1 discriminator 2 view .LVU554
 452:time_machine_hardware.cpp ****         {
 1911              		.loc 1 452 30 discriminator 2 view .LVU555
 1912 0048 B442     		cmp	r4, r6
 1913 004a F7D1     		bne	.L93
 1914              	.LBE747:
 456:time_machine_hardware.cpp **** 
 1915              		.loc 1 456 5 is_stmt 0 view .LVU556
 1916 004c BDEC028B 		vldm	sp!, {d8}
 1917              		.cfi_restore 80
 1918              		.cfi_restore 81
 1919              		.cfi_def_cfa_offset 24
 1920 0050 F8BD     		pop	{r3, r4, r5, r6, r7, pc}
 456:time_machine_hardware.cpp **** 
 1921              		.loc 1 456 5 view .LVU557
 1922              		.cfi_endproc
 1923              	.LFE3165:
 1925 0052 00BF     		.section	.text._ZN3oam12time_machine19TimeMachineHardware14AudioBlockSizeEv,"ax",%progbits
 1926              		.align	1
 1927              		.p2align 2,,3
 1928              		.global	_ZN3oam12time_machine19TimeMachineHardware14AudioBlockSizeEv
 1929              		.syntax unified
 1930              		.thumb
 1931              		.thumb_func
 1933              	_ZN3oam12time_machine19TimeMachineHardware14AudioBlockSizeEv:
 1934              	.LVL135:
 1935              	.LFB3166:
 459:time_machine_hardware.cpp ****         return audio.GetConfig().blocksize;
 1936              		.loc 1 459 5 is_stmt 1 view -0
 1937              		.cfi_startproc
 1938              		@ args = 0, pretend = 0, frame = 0
 1939              		@ frame_needed = 0, uses_anonymous_args = 0
 460:time_machine_hardware.cpp ****     }
 1940              		.loc 1 460 9 view .LVU559
 459:time_machine_hardware.cpp ****         return audio.GetConfig().blocksize;
ARM GAS  /var/folders/xd/16jvbr6j24q9nvtpm0qtw3240000gn/T//cch9jPA2.s 			page 63


 1941              		.loc 1 459 5 is_stmt 0 view .LVU560
 1942 0000 08B5     		push	{r3, lr}
 1943              		.cfi_def_cfa_offset 8
 1944              		.cfi_offset 3, -8
 1945              		.cfi_offset 14, -4
 460:time_machine_hardware.cpp ****     }
 1946              		.loc 1 460 32 view .LVU561
 1947 0002 1030     		adds	r0, r0, #16
 1948              	.LVL136:
 460:time_machine_hardware.cpp ****     }
 1949              		.loc 1 460 32 view .LVU562
 1950 0004 FFF7FEFF 		bl	_ZNK5daisy11AudioHandle9GetConfigEv
 1951              	.LVL137:
 461:time_machine_hardware.cpp **** 
 1952              		.loc 1 461 5 view .LVU563
 1953 0008 0068     		ldr	r0, [r0]
 1954 000a 08BD     		pop	{r3, pc}
 1955              		.cfi_endproc
 1956              	.LFE3166:
 1958              		.section	.text._ZN3oam12time_machine19TimeMachineHardware15AudioSampleRateEv,"ax",%progbits
 1959              		.align	1
 1960              		.p2align 2,,3
 1961              		.global	_ZN3oam12time_machine19TimeMachineHardware15AudioSampleRateEv
 1962              		.syntax unified
 1963              		.thumb
 1964              		.thumb_func
 1966              	_ZN3oam12time_machine19TimeMachineHardware15AudioSampleRateEv:
 1967              	.LVL138:
 1968              	.LFB3167:
 463:time_machine_hardware.cpp **** 
 1969              		.loc 1 463 50 is_stmt 1 view -0
 1970              		.cfi_startproc
 1971              		@ args = 0, pretend = 0, frame = 0
 1972              		@ frame_needed = 0, uses_anonymous_args = 0
 1973              		@ link register save eliminated.
 463:time_machine_hardware.cpp **** 
 1974              		.loc 1 463 52 view .LVU565
 463:time_machine_hardware.cpp **** 
 1975              		.loc 1 463 78 is_stmt 0 view .LVU566
 1976 0000 1030     		adds	r0, r0, #16
 1977              	.LVL139:
 463:time_machine_hardware.cpp **** 
 1978              		.loc 1 463 78 view .LVU567
 1979 0002 FFF7FEBF 		b	_ZN5daisy11AudioHandle13GetSampleRateEv
 1980              	.LVL140:
 463:time_machine_hardware.cpp **** 
 1981              		.loc 1 463 78 view .LVU568
 1982              		.cfi_endproc
 1983              	.LFE3167:
 1985 0006 00BF     		.section	.text._ZN3oam12time_machine19TimeMachineHardware17AudioCallbackRateEv,"ax",%progbits
 1986              		.align	1
 1987              		.p2align 2,,3
 1988              		.global	_ZN3oam12time_machine19TimeMachineHardware17AudioCallbackRateEv
 1989              		.syntax unified
 1990              		.thumb
 1991              		.thumb_func
 1993              	_ZN3oam12time_machine19TimeMachineHardware17AudioCallbackRateEv:
ARM GAS  /var/folders/xd/16jvbr6j24q9nvtpm0qtw3240000gn/T//cch9jPA2.s 			page 64


 1994              	.LVL141:
 1995              	.LFB3168:
 465:time_machine_hardware.cpp **** 
 1996              		.loc 1 465 52 is_stmt 1 view -0
 1997              		.cfi_startproc
 1998              		@ args = 0, pretend = 0, frame = 0
 1999              		@ frame_needed = 0, uses_anonymous_args = 0
 2000              		@ link register save eliminated.
 465:time_machine_hardware.cpp **** 
 2001              		.loc 1 465 54 view .LVU570
 465:time_machine_hardware.cpp **** 
 2002              		.loc 1 465 77 is_stmt 0 view .LVU571
 2003 0000 90ED860A 		vldr.32	s0, [r0, #536]
 2004 0004 7047     		bx	lr
 2005              		.cfi_endproc
 2006              	.LFE3168:
 2008 0006 00BF     		.section	.text._ZN3oam12time_machine19TimeMachineHardware8StartAdcEv,"ax",%progbits
 2009              		.align	1
 2010              		.p2align 2,,3
 2011              		.global	_ZN3oam12time_machine19TimeMachineHardware8StartAdcEv
 2012              		.syntax unified
 2013              		.thumb
 2014              		.thumb_func
 2016              	_ZN3oam12time_machine19TimeMachineHardware8StartAdcEv:
 2017              	.LVL142:
 2018              	.LFB3169:
 467:time_machine_hardware.cpp **** 
 2019              		.loc 1 467 42 is_stmt 1 view -0
 2020              		.cfi_startproc
 2021              		@ args = 0, pretend = 0, frame = 0
 2022              		@ frame_needed = 0, uses_anonymous_args = 0
 2023              		@ link register save eliminated.
 467:time_machine_hardware.cpp **** 
 2024              		.loc 1 467 44 view .LVU573
 467:time_machine_hardware.cpp **** 
 2025              		.loc 1 467 53 is_stmt 0 view .LVU574
 2026 0000 1430     		adds	r0, r0, #20
 2027              	.LVL143:
 467:time_machine_hardware.cpp **** 
 2028              		.loc 1 467 53 view .LVU575
 2029 0002 FFF7FEBF 		b	_ZN5daisy9AdcHandle5StartEv
 2030              	.LVL144:
 467:time_machine_hardware.cpp **** 
 2031              		.loc 1 467 53 view .LVU576
 2032              		.cfi_endproc
 2033              	.LFE3169:
 2035 0006 00BF     		.section	.text._ZN3oam12time_machine19TimeMachineHardware7StopAdcEv,"ax",%progbits
 2036              		.align	1
 2037              		.p2align 2,,3
 2038              		.global	_ZN3oam12time_machine19TimeMachineHardware7StopAdcEv
 2039              		.syntax unified
 2040              		.thumb
 2041              		.thumb_func
 2043              	_ZN3oam12time_machine19TimeMachineHardware7StopAdcEv:
 2044              	.LVL145:
 2045              	.LFB3170:
 469:time_machine_hardware.cpp **** 
ARM GAS  /var/folders/xd/16jvbr6j24q9nvtpm0qtw3240000gn/T//cch9jPA2.s 			page 65


 2046              		.loc 1 469 41 is_stmt 1 view -0
 2047              		.cfi_startproc
 2048              		@ args = 0, pretend = 0, frame = 0
 2049              		@ frame_needed = 0, uses_anonymous_args = 0
 2050              		@ link register save eliminated.
 469:time_machine_hardware.cpp **** 
 2051              		.loc 1 469 43 view .LVU578
 469:time_machine_hardware.cpp **** 
 2052              		.loc 1 469 51 is_stmt 0 view .LVU579
 2053 0000 1430     		adds	r0, r0, #20
 2054              	.LVL146:
 469:time_machine_hardware.cpp **** 
 2055              		.loc 1 469 51 view .LVU580
 2056 0002 FFF7FEBF 		b	_ZN5daisy9AdcHandle4StopEv
 2057              	.LVL147:
 469:time_machine_hardware.cpp **** 
 2058              		.loc 1 469 51 view .LVU581
 2059              		.cfi_endproc
 2060              	.LFE3170:
 2062 0006 00BF     		.section	.text._ZN3oam12time_machine19TimeMachineHardware21ProcessAnalogControlsEv,"ax",%progbits
 2063              		.align	1
 2064              		.p2align 2,,3
 2065              		.global	_ZN3oam12time_machine19TimeMachineHardware21ProcessAnalogControlsEv
 2066              		.syntax unified
 2067              		.thumb
 2068              		.thumb_func
 2070              	_ZN3oam12time_machine19TimeMachineHardware21ProcessAnalogControlsEv:
 2071              	.LVL148:
 2072              	.LFB3171:
 472:time_machine_hardware.cpp ****         for (int i = 0; i < ADC_LAST; i++)
 2073              		.loc 1 472 5 is_stmt 1 view -0
 2074              		.cfi_startproc
 2075              		@ args = 0, pretend = 0, frame = 0
 2076              		@ frame_needed = 0, uses_anonymous_args = 0
 473:time_machine_hardware.cpp ****         {
 2077              		.loc 1 473 9 view .LVU583
 2078              	.LBB748:
 473:time_machine_hardware.cpp ****         {
 2079              		.loc 1 473 27 view .LVU584
 2080              	.LBE748:
 472:time_machine_hardware.cpp ****         for (int i = 0; i < ADC_LAST; i++)
 2081              		.loc 1 472 5 is_stmt 0 view .LVU585
 2082 0000 38B5     		push	{r3, r4, r5, lr}
 2083              		.cfi_def_cfa_offset 16
 2084              		.cfi_offset 3, -16
 2085              		.cfi_offset 4, -12
 2086              		.cfi_offset 5, -8
 2087              		.cfi_offset 14, -4
 2088 0002 00F14004 		add	r4, r0, #64
 2089 0006 00F5E075 		add	r5, r0, #448
 2090              	.LVL149:
 2091              	.L101:
 2092              	.LBB749:
 475:time_machine_hardware.cpp ****         }
 2093              		.loc 1 475 13 is_stmt 1 discriminator 2 view .LVU586
 475:time_machine_hardware.cpp ****         }
 2094              		.loc 1 475 32 is_stmt 0 discriminator 2 view .LVU587
ARM GAS  /var/folders/xd/16jvbr6j24q9nvtpm0qtw3240000gn/T//cch9jPA2.s 			page 66


 2095 000a 2046     		mov	r0, r4
 473:time_machine_hardware.cpp ****         {
 2096              		.loc 1 473 27 discriminator 2 view .LVU588
 2097 000c 2034     		adds	r4, r4, #32
 475:time_machine_hardware.cpp ****         }
 2098              		.loc 1 475 32 discriminator 2 view .LVU589
 2099 000e FFF7FEFF 		bl	_ZN5daisy13AnalogControl7ProcessEv
 2100              	.LVL150:
 473:time_machine_hardware.cpp ****         {
 2101              		.loc 1 473 9 is_stmt 1 discriminator 2 view .LVU590
 473:time_machine_hardware.cpp ****         {
 2102              		.loc 1 473 27 discriminator 2 view .LVU591
 2103 0012 AC42     		cmp	r4, r5
 2104 0014 F9D1     		bne	.L101
 2105              	.LBE749:
 477:time_machine_hardware.cpp **** 
 2106              		.loc 1 477 5 is_stmt 0 view .LVU592
 2107 0016 38BD     		pop	{r3, r4, r5, pc}
 477:time_machine_hardware.cpp **** 
 2108              		.loc 1 477 5 view .LVU593
 2109              		.cfi_endproc
 2110              	.LFE3171:
 2112              		.section	.text._ZN3oam12time_machine19TimeMachineHardware22ProcessDigitalControlsEv,"ax",%progbits
 2113              		.align	1
 2114              		.p2align 2,,3
 2115              		.global	_ZN3oam12time_machine19TimeMachineHardware22ProcessDigitalControlsEv
 2116              		.syntax unified
 2117              		.thumb
 2118              		.thumb_func
 2120              	_ZN3oam12time_machine19TimeMachineHardware22ProcessDigitalControlsEv:
 2121              	.LVL151:
 2122              	.LFB3172:
 479:time_machine_hardware.cpp **** 
 2123              		.loc 1 479 56 is_stmt 1 view -0
 2124              		.cfi_startproc
 2125              		@ args = 0, pretend = 0, frame = 0
 2126              		@ frame_needed = 0, uses_anonymous_args = 0
 2127              		@ link register save eliminated.
 479:time_machine_hardware.cpp **** 
 2128              		.loc 1 479 57 is_stmt 0 view .LVU595
 2129 0000 7047     		bx	lr
 2130              		.cfi_endproc
 2131              	.LFE3172:
 2133 0002 00BF     		.section	.text._ZN3oam12time_machine19TimeMachineHardware11GetAdcValueEi,"ax",%progbits
 2134              		.align	1
 2135              		.p2align 2,,3
 2136              		.global	_ZN3oam12time_machine19TimeMachineHardware11GetAdcValueEi
 2137              		.syntax unified
 2138              		.thumb
 2139              		.thumb_func
 2141              	_ZN3oam12time_machine19TimeMachineHardware11GetAdcValueEi:
 2142              	.LVL152:
 2143              	.LFB3173:
 481:time_machine_hardware.cpp **** 
 2144              		.loc 1 481 53 is_stmt 1 view -0
 2145              		.cfi_startproc
 2146              		@ args = 0, pretend = 0, frame = 0
ARM GAS  /var/folders/xd/16jvbr6j24q9nvtpm0qtw3240000gn/T//cch9jPA2.s 			page 67


 2147              		@ frame_needed = 0, uses_anonymous_args = 0
 2148              		@ link register save eliminated.
 481:time_machine_hardware.cpp **** 
 2149              		.loc 1 481 55 view .LVU597
 2150              	.LBB750:
 2151              	.LBI750:
 2152              		.file 9 "/Users/jonask/Music/Daisy/libDaisy/src/hid/ctrl.h"
   1:/Users/jonask/Music/Daisy/libDaisy/src/hid/ctrl.h **** #pragma once
   2:/Users/jonask/Music/Daisy/libDaisy/src/hid/ctrl.h **** #ifndef DSY_KNOB_H
   3:/Users/jonask/Music/Daisy/libDaisy/src/hid/ctrl.h **** #define DSY_KNOB_H /**< & */
   4:/Users/jonask/Music/Daisy/libDaisy/src/hid/ctrl.h **** #include <stdint.h>
   5:/Users/jonask/Music/Daisy/libDaisy/src/hid/ctrl.h **** 
   6:/Users/jonask/Music/Daisy/libDaisy/src/hid/ctrl.h **** #ifdef __cplusplus
   7:/Users/jonask/Music/Daisy/libDaisy/src/hid/ctrl.h **** namespace daisy
   8:/Users/jonask/Music/Daisy/libDaisy/src/hid/ctrl.h **** {
   9:/Users/jonask/Music/Daisy/libDaisy/src/hid/ctrl.h **** /**
  10:/Users/jonask/Music/Daisy/libDaisy/src/hid/ctrl.h ****     @brief Hardware Interface for control inputs \n
  11:/Users/jonask/Music/Daisy/libDaisy/src/hid/ctrl.h ****     Primarily designed for ADC input controls such as \n
  12:/Users/jonask/Music/Daisy/libDaisy/src/hid/ctrl.h ****     potentiometers, and control voltage. \n
  13:/Users/jonask/Music/Daisy/libDaisy/src/hid/ctrl.h ****     @author Stephen Hensley
  14:/Users/jonask/Music/Daisy/libDaisy/src/hid/ctrl.h ****     @date November 2019
  15:/Users/jonask/Music/Daisy/libDaisy/src/hid/ctrl.h ****     @ingroup controls
  16:/Users/jonask/Music/Daisy/libDaisy/src/hid/ctrl.h **** */
  17:/Users/jonask/Music/Daisy/libDaisy/src/hid/ctrl.h **** class AnalogControl
  18:/Users/jonask/Music/Daisy/libDaisy/src/hid/ctrl.h **** {
  19:/Users/jonask/Music/Daisy/libDaisy/src/hid/ctrl.h ****   public:
  20:/Users/jonask/Music/Daisy/libDaisy/src/hid/ctrl.h ****     /** Constructor */
  21:/Users/jonask/Music/Daisy/libDaisy/src/hid/ctrl.h ****     AnalogControl() {}
  22:/Users/jonask/Music/Daisy/libDaisy/src/hid/ctrl.h ****     /** destructor */
  23:/Users/jonask/Music/Daisy/libDaisy/src/hid/ctrl.h ****     ~AnalogControl() {}
  24:/Users/jonask/Music/Daisy/libDaisy/src/hid/ctrl.h **** 
  25:/Users/jonask/Music/Daisy/libDaisy/src/hid/ctrl.h ****     /**
  26:/Users/jonask/Music/Daisy/libDaisy/src/hid/ctrl.h ****     Initializes the control
  27:/Users/jonask/Music/Daisy/libDaisy/src/hid/ctrl.h ****     \param *adcptr is a pointer to the raw adc read value -- This can be acquired with dsy_adc_get_
  28:/Users/jonask/Music/Daisy/libDaisy/src/hid/ctrl.h ****     \param sr is the samplerate in Hz that the Process function will be called at.
  29:/Users/jonask/Music/Daisy/libDaisy/src/hid/ctrl.h ****     \param flip determines whether the input is flipped (i.e. 1.f - input) or not before being proc
  30:/Users/jonask/Music/Daisy/libDaisy/src/hid/ctrl.h ****     \param invert determines whether the input is inverted (i.e. -1.f * input) or note before being
  31:/Users/jonask/Music/Daisy/libDaisy/src/hid/ctrl.h ****     \param slew_seconds is the slew time in seconds that it takes for the control to change to a ne
  32:/Users/jonask/Music/Daisy/libDaisy/src/hid/ctrl.h ****     */
  33:/Users/jonask/Music/Daisy/libDaisy/src/hid/ctrl.h ****     void Init(uint16_t *adcptr,
  34:/Users/jonask/Music/Daisy/libDaisy/src/hid/ctrl.h ****               float     sr,
  35:/Users/jonask/Music/Daisy/libDaisy/src/hid/ctrl.h ****               bool      flip         = false,
  36:/Users/jonask/Music/Daisy/libDaisy/src/hid/ctrl.h ****               bool      invert       = false,
  37:/Users/jonask/Music/Daisy/libDaisy/src/hid/ctrl.h ****               float     slew_seconds = 0.002f);
  38:/Users/jonask/Music/Daisy/libDaisy/src/hid/ctrl.h **** 
  39:/Users/jonask/Music/Daisy/libDaisy/src/hid/ctrl.h ****     /**
  40:/Users/jonask/Music/Daisy/libDaisy/src/hid/ctrl.h ****     This Initializes the AnalogControl for a -5V to 5V inverted input
  41:/Users/jonask/Music/Daisy/libDaisy/src/hid/ctrl.h ****     All of the Init details are the same otherwise
  42:/Users/jonask/Music/Daisy/libDaisy/src/hid/ctrl.h ****     \param *adcptr Pointer to analog digital converter
  43:/Users/jonask/Music/Daisy/libDaisy/src/hid/ctrl.h ****     \param sr Audio engine sample rate
  44:/Users/jonask/Music/Daisy/libDaisy/src/hid/ctrl.h ****     */
  45:/Users/jonask/Music/Daisy/libDaisy/src/hid/ctrl.h ****     void InitBipolarCv(uint16_t *adcptr, float sr);
  46:/Users/jonask/Music/Daisy/libDaisy/src/hid/ctrl.h **** 
  47:/Users/jonask/Music/Daisy/libDaisy/src/hid/ctrl.h ****     /**
  48:/Users/jonask/Music/Daisy/libDaisy/src/hid/ctrl.h ****     Filters, and transforms a raw ADC read into a normalized range.
  49:/Users/jonask/Music/Daisy/libDaisy/src/hid/ctrl.h ****     this should be called at the rate of specified by samplerate at Init time.
  50:/Users/jonask/Music/Daisy/libDaisy/src/hid/ctrl.h ****     Default Initializations will return 0.0 -> 1.0
ARM GAS  /var/folders/xd/16jvbr6j24q9nvtpm0qtw3240000gn/T//cch9jPA2.s 			page 68


  51:/Users/jonask/Music/Daisy/libDaisy/src/hid/ctrl.h ****     Bi-polar CV inputs will return -1.0 -> 1.0
  52:/Users/jonask/Music/Daisy/libDaisy/src/hid/ctrl.h ****     */
  53:/Users/jonask/Music/Daisy/libDaisy/src/hid/ctrl.h ****     float Process();
  54:/Users/jonask/Music/Daisy/libDaisy/src/hid/ctrl.h **** 
  55:/Users/jonask/Music/Daisy/libDaisy/src/hid/ctrl.h ****     /** Returns the current stored value, without reprocessing */
  56:/Users/jonask/Music/Daisy/libDaisy/src/hid/ctrl.h ****     inline float Value() const { return val_; }
 2153              		.loc 9 56 18 view .LVU598
 2154              	.LBB751:
 2155              		.loc 9 56 34 view .LVU599
 2156              		.loc 9 56 41 is_stmt 0 view .LVU600
 2157 0000 00EB4111 		add	r1, r0, r1, lsl #5
 2158              	.LVL153:
 2159              		.loc 9 56 41 view .LVU601
 2160              	.LBE751:
 2161              	.LBE750:
 481:time_machine_hardware.cpp **** 
 2162              		.loc 1 481 85 view .LVU602
 2163 0004 91ED130A 		vldr.32	s0, [r1, #76]
 2164 0008 7047     		bx	lr
 2165              		.cfi_endproc
 2166              	.LFE3173:
 2168 000a 00BF     		.section	.text._ZN3oam12time_machine19TimeMachineHardware14GetLevelSliderEi,"ax",%progbits
 2169              		.align	1
 2170              		.p2align 2,,3
 2171              		.global	_ZN3oam12time_machine19TimeMachineHardware14GetLevelSliderEi
 2172              		.syntax unified
 2173              		.thumb
 2174              		.thumb_func
 2176              	_ZN3oam12time_machine19TimeMachineHardware14GetLevelSliderEi:
 2177              	.LVL154:
 2178              	.LFB3174:
 483:time_machine_hardware.cpp ****         const int muxMapping[] = {5, 7, 6, 4, 3, 0, 1, 2};
 2179              		.loc 1 483 56 is_stmt 1 view -0
 2180              		.cfi_startproc
 2181              		@ args = 0, pretend = 0, frame = 32
 2182              		@ frame_needed = 0, uses_anonymous_args = 0
 484:time_machine_hardware.cpp **** 
 2183              		.loc 1 484 9 view .LVU604
 483:time_machine_hardware.cpp ****         const int muxMapping[] = {5, 7, 6, 4, 3, 0, 1, 2};
 2184              		.loc 1 483 56 is_stmt 0 view .LVU605
 2185 0000 30B5     		push	{r4, r5, lr}
 2186              		.cfi_def_cfa_offset 12
 2187              		.cfi_offset 4, -12
 2188              		.cfi_offset 5, -8
 2189              		.cfi_offset 14, -4
 484:time_machine_hardware.cpp **** 
 2190              		.loc 1 484 19 view .LVU606
 2191 0002 154C     		ldr	r4, .L110
 483:time_machine_hardware.cpp ****         const int muxMapping[] = {5, 7, 6, 4, 3, 0, 1, 2};
 2192              		.loc 1 483 56 view .LVU607
 2193 0004 89B0     		sub	sp, sp, #36
 2194              		.cfi_def_cfa_offset 48
 483:time_machine_hardware.cpp ****         const int muxMapping[] = {5, 7, 6, 4, 3, 0, 1, 2};
 2195              		.loc 1 483 56 view .LVU608
 2196 0006 0546     		mov	r5, r0
 486:time_machine_hardware.cpp ****             return 1.0 - adc.GetMuxFloat(MISC_MUX, 3);
 2197              		.loc 1 486 9 view .LVU609
ARM GAS  /var/folders/xd/16jvbr6j24q9nvtpm0qtw3240000gn/T//cch9jPA2.s 			page 69


 2198 0008 8E46     		mov	lr, r1
 484:time_machine_hardware.cpp **** 
 2199              		.loc 1 484 19 view .LVU610
 2200 000a EC46     		mov	ip, sp
 2201 000c 0FCC     		ldmia	r4!, {r0, r1, r2, r3}
 2202              	.LVL155:
 484:time_machine_hardware.cpp **** 
 2203              		.loc 1 484 19 view .LVU611
 2204 000e ACE80F00 		stmia	ip!, {r0, r1, r2, r3}
 2205 0012 94E80F00 		ldm	r4, {r0, r1, r2, r3}
 2206 0016 8CE80F00 		stm	ip, {r0, r1, r2, r3}
 486:time_machine_hardware.cpp ****             return 1.0 - adc.GetMuxFloat(MISC_MUX, 3);
 2207              		.loc 1 486 9 is_stmt 1 view .LVU612
 2208 001a BEF1000F 		cmp	lr, #0
 2209 001e 0BD1     		bne	.L107
 487:time_machine_hardware.cpp ****         } else {
 2210              		.loc 1 487 13 view .LVU613
 487:time_machine_hardware.cpp ****         } else {
 2211              		.loc 1 487 41 is_stmt 0 view .LVU614
 2212 0020 0322     		movs	r2, #3
 2213 0022 0B21     		movs	r1, #11
 2214 0024 05F11400 		add	r0, r5, #20
 2215 0028 FFF7FEFF 		bl	_ZNK5daisy9AdcHandle11GetMuxFloatEhh
 2216              	.LVL156:
 487:time_machine_hardware.cpp ****         } else {
 2217              		.loc 1 487 41 view .LVU615
 2218 002c F7EE007A 		vmov.f32	s15, #1.0e+0
 2219 0030 37EEC00A 		vsub.f32	s0, s15, s0
 491:time_machine_hardware.cpp **** 
 2220              		.loc 1 491 5 view .LVU616
 2221 0034 09B0     		add	sp, sp, #36
 2222              		.cfi_remember_state
 2223              		.cfi_def_cfa_offset 12
 2224              		@ sp needed
 2225 0036 30BD     		pop	{r4, r5, pc}
 2226              	.LVL157:
 2227              	.L107:
 2228              		.cfi_restore_state
 489:time_machine_hardware.cpp ****         }
 2229              		.loc 1 489 13 is_stmt 1 view .LVU617
 489:time_machine_hardware.cpp ****         }
 2230              		.loc 1 489 71 is_stmt 0 view .LVU618
 2231 0038 08AB     		add	r3, sp, #32
 489:time_machine_hardware.cpp ****         }
 2232              		.loc 1 489 41 view .LVU619
 2233 003a 0A21     		movs	r1, #10
 2234 003c 05F11400 		add	r0, r5, #20
 489:time_machine_hardware.cpp ****         }
 2235              		.loc 1 489 71 view .LVU620
 2236 0040 03EB8E0E 		add	lr, r3, lr, lsl #2
 2237              	.LVL158:
 489:time_machine_hardware.cpp ****         }
 2238              		.loc 1 489 41 view .LVU621
 2239 0044 1EF8242C 		ldrb	r2, [lr, #-36]	@ zero_extendqisi2
 2240 0048 FFF7FEFF 		bl	_ZNK5daisy9AdcHandle11GetMuxFloatEhh
 2241              	.LVL159:
 2242 004c F7EE007A 		vmov.f32	s15, #1.0e+0
ARM GAS  /var/folders/xd/16jvbr6j24q9nvtpm0qtw3240000gn/T//cch9jPA2.s 			page 70


 2243 0050 37EEC00A 		vsub.f32	s0, s15, s0
 491:time_machine_hardware.cpp **** 
 2244              		.loc 1 491 5 view .LVU622
 2245 0054 09B0     		add	sp, sp, #36
 2246              		.cfi_def_cfa_offset 12
 2247              		@ sp needed
 2248 0056 30BD     		pop	{r4, r5, pc}
 2249              	.LVL160:
 2250              	.L111:
 491:time_machine_hardware.cpp **** 
 2251              		.loc 1 491 5 view .LVU623
 2252              		.align	2
 2253              	.L110:
 2254 0058 28000000 		.word	.LANCHOR1+40
 2255              		.cfi_endproc
 2256              	.LFE3174:
 2258              		.section	.text._ZN3oam12time_machine19TimeMachineHardware10GetLevelCVEi,"ax",%progbits
 2259              		.align	1
 2260              		.p2align 2,,3
 2261              		.global	_ZN3oam12time_machine19TimeMachineHardware10GetLevelCVEi
 2262              		.syntax unified
 2263              		.thumb
 2264              		.thumb_func
 2266              	_ZN3oam12time_machine19TimeMachineHardware10GetLevelCVEi:
 2267              	.LVL161:
 2268              	.LFB3175:
 493:time_machine_hardware.cpp ****         const int muxMapping[] = {3, 2, 1, 0, 4, 5, 6, 7};
 2269              		.loc 1 493 52 is_stmt 1 view -0
 2270              		.cfi_startproc
 2271              		@ args = 0, pretend = 0, frame = 32
 2272              		@ frame_needed = 0, uses_anonymous_args = 0
 494:time_machine_hardware.cpp **** 
 2273              		.loc 1 494 9 view .LVU625
 493:time_machine_hardware.cpp ****         const int muxMapping[] = {3, 2, 1, 0, 4, 5, 6, 7};
 2274              		.loc 1 493 52 is_stmt 0 view .LVU626
 2275 0000 30B5     		push	{r4, r5, lr}
 2276              		.cfi_def_cfa_offset 12
 2277              		.cfi_offset 4, -12
 2278              		.cfi_offset 5, -8
 2279              		.cfi_offset 14, -4
 494:time_machine_hardware.cpp **** 
 2280              		.loc 1 494 19 view .LVU627
 2281 0002 164C     		ldr	r4, .L116
 493:time_machine_hardware.cpp ****         const int muxMapping[] = {3, 2, 1, 0, 4, 5, 6, 7};
 2282              		.loc 1 493 52 view .LVU628
 2283 0004 89B0     		sub	sp, sp, #36
 2284              		.cfi_def_cfa_offset 48
 493:time_machine_hardware.cpp ****         const int muxMapping[] = {3, 2, 1, 0, 4, 5, 6, 7};
 2285              		.loc 1 493 52 view .LVU629
 2286 0006 0546     		mov	r5, r0
 496:time_machine_hardware.cpp ****         {
 2287              		.loc 1 496 9 view .LVU630
 2288 0008 8E46     		mov	lr, r1
 494:time_machine_hardware.cpp **** 
 2289              		.loc 1 494 19 view .LVU631
 2290 000a EC46     		mov	ip, sp
 2291 000c 0FCC     		ldmia	r4!, {r0, r1, r2, r3}
ARM GAS  /var/folders/xd/16jvbr6j24q9nvtpm0qtw3240000gn/T//cch9jPA2.s 			page 71


 2292              	.LVL162:
 494:time_machine_hardware.cpp **** 
 2293              		.loc 1 494 19 view .LVU632
 2294 000e ACE80F00 		stmia	ip!, {r0, r1, r2, r3}
 2295 0012 94E80F00 		ldm	r4, {r0, r1, r2, r3}
 2296 0016 8CE80F00 		stm	ip, {r0, r1, r2, r3}
 496:time_machine_hardware.cpp ****         {
 2297              		.loc 1 496 9 is_stmt 1 view .LVU633
 2298 001a BEF1000F 		cmp	lr, #0
 2299 001e 03D1     		bne	.L113
 498:time_machine_hardware.cpp ****         }
 2300              		.loc 1 498 13 view .LVU634
 2301              	.LVL163:
 2302              	.LBB752:
 2303              	.LBI752:
 481:time_machine_hardware.cpp **** 
 2304              		.loc 1 481 11 view .LVU635
 2305              	.LBE752:
 481:time_machine_hardware.cpp **** 
 2306              		.loc 1 481 55 view .LVU636
 2307              	.LBB755:
 2308              	.LBB753:
 2309              	.LBI753:
 2310              		.loc 9 56 18 view .LVU637
 2311              	.LBB754:
 2312              		.loc 9 56 34 view .LVU638
 2313              		.loc 9 56 41 is_stmt 0 view .LVU639
 2314 0020 95ED1B0A 		vldr.32	s0, [r5, #108]
 2315              	.LVL164:
 2316              		.loc 9 56 41 view .LVU640
 2317              	.LBE754:
 2318              	.LBE753:
 2319              	.LBE755:
 504:time_machine_hardware.cpp **** 
 2320              		.loc 1 504 5 view .LVU641
 2321 0024 09B0     		add	sp, sp, #36
 2322              		.cfi_remember_state
 2323              		.cfi_def_cfa_offset 12
 2324              		@ sp needed
 2325 0026 30BD     		pop	{r4, r5, pc}
 2326              	.LVL165:
 2327              	.L113:
 2328              		.cfi_restore_state
 502:time_machine_hardware.cpp ****         }
 2329              		.loc 1 502 13 is_stmt 1 view .LVU642
 502:time_machine_hardware.cpp ****         }
 2330              		.loc 1 502 76 is_stmt 0 view .LVU643
 2331 0028 08AB     		add	r3, sp, #32
 502:time_machine_hardware.cpp ****         }
 2332              		.loc 1 502 43 view .LVU644
 2333 002a 0021     		movs	r1, #0
 2334 002c 05F11400 		add	r0, r5, #20
 502:time_machine_hardware.cpp ****         }
 2335              		.loc 1 502 76 view .LVU645
 2336 0030 03EB8E0E 		add	lr, r3, lr, lsl #2
 2337              	.LVL166:
 502:time_machine_hardware.cpp ****         }
ARM GAS  /var/folders/xd/16jvbr6j24q9nvtpm0qtw3240000gn/T//cch9jPA2.s 			page 72


 2338              		.loc 1 502 43 view .LVU646
 2339 0034 1EF8242C 		ldrb	r2, [lr, #-36]	@ zero_extendqisi2
 2340 0038 FFF7FEFF 		bl	_ZNK5daisy9AdcHandle11GetMuxFloatEhh
 2341              	.LVL167:
 502:time_machine_hardware.cpp ****         }
 2342              		.loc 1 502 26 view .LVU647
 2343 003c B7EE007B 		vmov.f64	d7, #1.0e+0
 502:time_machine_hardware.cpp ****         }
 2344              		.loc 1 502 43 view .LVU648
 2345 0040 B7EEC06A 		vcvt.f64.f32	d6, s0
 502:time_machine_hardware.cpp ****         }
 2346              		.loc 1 502 87 view .LVU649
 2347 0044 B0EE005B 		vmov.f64	d5, #2.0e+0
 2348 0048 BFEE000B 		vmov.f64	d0, #-1.0e+0
 502:time_machine_hardware.cpp ****         }
 2349              		.loc 1 502 26 view .LVU650
 2350 004c 37EE467B 		vsub.f64	d7, d7, d6
 502:time_machine_hardware.cpp ****         }
 2351              		.loc 1 502 87 view .LVU651
 2352 0050 A7EE050B 		vfma.f64	d0, d7, d5
 502:time_machine_hardware.cpp ****         }
 2353              		.loc 1 502 89 view .LVU652
 2354 0054 B7EEC00B 		vcvt.f32.f64	s0, d0
 504:time_machine_hardware.cpp **** 
 2355              		.loc 1 504 5 view .LVU653
 2356 0058 09B0     		add	sp, sp, #36
 2357              		.cfi_def_cfa_offset 12
 2358              		@ sp needed
 2359 005a 30BD     		pop	{r4, r5, pc}
 2360              	.LVL168:
 2361              	.L117:
 504:time_machine_hardware.cpp **** 
 2362              		.loc 1 504 5 view .LVU654
 2363              		.align	2
 2364              	.L116:
 2365 005c 48000000 		.word	.LANCHOR1+72
 2366              		.cfi_endproc
 2367              	.LFE3175:
 2369              		.section	.text._ZN3oam12time_machine19TimeMachineHardware10GetPanKnobEi,"ax",%progbits
 2370              		.align	1
 2371              		.p2align 2,,3
 2372              		.global	_ZN3oam12time_machine19TimeMachineHardware10GetPanKnobEi
 2373              		.syntax unified
 2374              		.thumb
 2375              		.thumb_func
 2377              	_ZN3oam12time_machine19TimeMachineHardware10GetPanKnobEi:
 2378              	.LVL169:
 2379              	.LFB3176:
 506:time_machine_hardware.cpp ****         const int muxMapping[] = {5, 7, 6, 4, 1, 2, 0, 3};
 2380              		.loc 1 506 52 is_stmt 1 view -0
 2381              		.cfi_startproc
 2382              		@ args = 0, pretend = 0, frame = 32
 2383              		@ frame_needed = 0, uses_anonymous_args = 0
 507:time_machine_hardware.cpp **** 
 2384              		.loc 1 507 9 view .LVU656
 506:time_machine_hardware.cpp ****         const int muxMapping[] = {5, 7, 6, 4, 1, 2, 0, 3};
 2385              		.loc 1 506 52 is_stmt 0 view .LVU657
ARM GAS  /var/folders/xd/16jvbr6j24q9nvtpm0qtw3240000gn/T//cch9jPA2.s 			page 73


 2386 0000 30B5     		push	{r4, r5, lr}
 2387              		.cfi_def_cfa_offset 12
 2388              		.cfi_offset 4, -12
 2389              		.cfi_offset 5, -8
 2390              		.cfi_offset 14, -4
 507:time_machine_hardware.cpp **** 
 2391              		.loc 1 507 19 view .LVU658
 2392 0002 154C     		ldr	r4, .L122
 506:time_machine_hardware.cpp ****         const int muxMapping[] = {5, 7, 6, 4, 1, 2, 0, 3};
 2393              		.loc 1 506 52 view .LVU659
 2394 0004 89B0     		sub	sp, sp, #36
 2395              		.cfi_def_cfa_offset 48
 506:time_machine_hardware.cpp ****         const int muxMapping[] = {5, 7, 6, 4, 1, 2, 0, 3};
 2396              		.loc 1 506 52 view .LVU660
 2397 0006 0546     		mov	r5, r0
 510:time_machine_hardware.cpp ****         {
 2398              		.loc 1 510 9 view .LVU661
 2399 0008 8E46     		mov	lr, r1
 507:time_machine_hardware.cpp **** 
 2400              		.loc 1 507 19 view .LVU662
 2401 000a EC46     		mov	ip, sp
 2402 000c 0FCC     		ldmia	r4!, {r0, r1, r2, r3}
 2403              	.LVL170:
 507:time_machine_hardware.cpp **** 
 2404              		.loc 1 507 19 view .LVU663
 2405 000e ACE80F00 		stmia	ip!, {r0, r1, r2, r3}
 2406 0012 94E80F00 		ldm	r4, {r0, r1, r2, r3}
 2407 0016 8CE80F00 		stm	ip, {r0, r1, r2, r3}
 510:time_machine_hardware.cpp ****         {
 2408              		.loc 1 510 9 is_stmt 1 view .LVU664
 2409 001a BEF1000F 		cmp	lr, #0
 2410 001e 0BD1     		bne	.L119
 512:time_machine_hardware.cpp ****         }
 2411              		.loc 1 512 13 view .LVU665
 512:time_machine_hardware.cpp ****         }
 2412              		.loc 1 512 41 is_stmt 0 view .LVU666
 2413 0020 0622     		movs	r2, #6
 2414 0022 0B21     		movs	r1, #11
 2415 0024 05F11400 		add	r0, r5, #20
 2416 0028 FFF7FEFF 		bl	_ZNK5daisy9AdcHandle11GetMuxFloatEhh
 2417              	.LVL171:
 512:time_machine_hardware.cpp ****         }
 2418              		.loc 1 512 41 view .LVU667
 2419 002c F7EE007A 		vmov.f32	s15, #1.0e+0
 2420 0030 37EEC00A 		vsub.f32	s0, s15, s0
 518:time_machine_hardware.cpp **** 
 2421              		.loc 1 518 5 view .LVU668
 2422 0034 09B0     		add	sp, sp, #36
 2423              		.cfi_remember_state
 2424              		.cfi_def_cfa_offset 12
 2425              		@ sp needed
 2426 0036 30BD     		pop	{r4, r5, pc}
 2427              	.LVL172:
 2428              	.L119:
 2429              		.cfi_restore_state
 516:time_machine_hardware.cpp ****         }
 2430              		.loc 1 516 13 is_stmt 1 view .LVU669
ARM GAS  /var/folders/xd/16jvbr6j24q9nvtpm0qtw3240000gn/T//cch9jPA2.s 			page 74


 516:time_machine_hardware.cpp ****         }
 2431              		.loc 1 516 69 is_stmt 0 view .LVU670
 2432 0038 08AB     		add	r3, sp, #32
 516:time_machine_hardware.cpp ****         }
 2433              		.loc 1 516 41 view .LVU671
 2434 003a 0921     		movs	r1, #9
 2435 003c 05F11400 		add	r0, r5, #20
 516:time_machine_hardware.cpp ****         }
 2436              		.loc 1 516 69 view .LVU672
 2437 0040 03EB8E0E 		add	lr, r3, lr, lsl #2
 2438              	.LVL173:
 516:time_machine_hardware.cpp ****         }
 2439              		.loc 1 516 41 view .LVU673
 2440 0044 1EF8242C 		ldrb	r2, [lr, #-36]	@ zero_extendqisi2
 2441 0048 FFF7FEFF 		bl	_ZNK5daisy9AdcHandle11GetMuxFloatEhh
 2442              	.LVL174:
 2443 004c F7EE007A 		vmov.f32	s15, #1.0e+0
 2444 0050 37EEC00A 		vsub.f32	s0, s15, s0
 518:time_machine_hardware.cpp **** 
 2445              		.loc 1 518 5 view .LVU674
 2446 0054 09B0     		add	sp, sp, #36
 2447              		.cfi_def_cfa_offset 12
 2448              		@ sp needed
 2449 0056 30BD     		pop	{r4, r5, pc}
 2450              	.LVL175:
 2451              	.L123:
 518:time_machine_hardware.cpp **** 
 2452              		.loc 1 518 5 view .LVU675
 2453              		.align	2
 2454              	.L122:
 2455 0058 68000000 		.word	.LANCHOR1+104
 2456              		.cfi_endproc
 2457              	.LFE3176:
 2459              		.section	.text._ZN3oam12time_machine19TimeMachineHardware13GetSpreadKnobEv,"ax",%progbits
 2460              		.align	1
 2461              		.p2align 2,,3
 2462              		.global	_ZN3oam12time_machine19TimeMachineHardware13GetSpreadKnobEv
 2463              		.syntax unified
 2464              		.thumb
 2465              		.thumb_func
 2467              	_ZN3oam12time_machine19TimeMachineHardware13GetSpreadKnobEv:
 2468              	.LVL176:
 2469              	.LFB3177:
 521:time_machine_hardware.cpp ****         return adc.GetMuxFloat(MISC_MUX, 2);
 2470              		.loc 1 521 5 is_stmt 1 view -0
 2471              		.cfi_startproc
 2472              		@ args = 0, pretend = 0, frame = 0
 2473              		@ frame_needed = 0, uses_anonymous_args = 0
 2474              		@ link register save eliminated.
 522:time_machine_hardware.cpp ****     }
 2475              		.loc 1 522 9 view .LVU677
 522:time_machine_hardware.cpp ****     }
 2476              		.loc 1 522 31 is_stmt 0 view .LVU678
 2477 0000 0222     		movs	r2, #2
 2478 0002 0B21     		movs	r1, #11
 2479 0004 1430     		adds	r0, r0, #20
 2480              	.LVL177:
ARM GAS  /var/folders/xd/16jvbr6j24q9nvtpm0qtw3240000gn/T//cch9jPA2.s 			page 75


 522:time_machine_hardware.cpp ****     }
 2481              		.loc 1 522 31 view .LVU679
 2482 0006 FFF7FEBF 		b	_ZNK5daisy9AdcHandle11GetMuxFloatEhh
 2483              	.LVL178:
 522:time_machine_hardware.cpp ****     }
 2484              		.loc 1 522 31 view .LVU680
 2485              		.cfi_endproc
 2486              	.LFE3177:
 2488 000a 00BF     		.section	.text._ZN3oam12time_machine19TimeMachineHardware11GetTimeKnobEv,"ax",%progbits
 2489              		.align	1
 2490              		.p2align 2,,3
 2491              		.global	_ZN3oam12time_machine19TimeMachineHardware11GetTimeKnobEv
 2492              		.syntax unified
 2493              		.thumb
 2494              		.thumb_func
 2496              	_ZN3oam12time_machine19TimeMachineHardware11GetTimeKnobEv:
 2497              	.LVL179:
 2498              	.LFB3178:
 526:time_machine_hardware.cpp ****         return adc.GetMuxFloat(MISC_MUX, 4);
 2499              		.loc 1 526 5 is_stmt 1 view -0
 2500              		.cfi_startproc
 2501              		@ args = 0, pretend = 0, frame = 0
 2502              		@ frame_needed = 0, uses_anonymous_args = 0
 2503              		@ link register save eliminated.
 527:time_machine_hardware.cpp ****     }
 2504              		.loc 1 527 9 view .LVU682
 527:time_machine_hardware.cpp ****     }
 2505              		.loc 1 527 31 is_stmt 0 view .LVU683
 2506 0000 0422     		movs	r2, #4
 2507 0002 0B21     		movs	r1, #11
 2508 0004 1430     		adds	r0, r0, #20
 2509              	.LVL180:
 527:time_machine_hardware.cpp ****     }
 2510              		.loc 1 527 31 view .LVU684
 2511 0006 FFF7FEBF 		b	_ZNK5daisy9AdcHandle11GetMuxFloatEhh
 2512              	.LVL181:
 527:time_machine_hardware.cpp ****     }
 2513              		.loc 1 527 31 view .LVU685
 2514              		.cfi_endproc
 2515              	.LFE3178:
 2517 000a 00BF     		.section	.text._ZN3oam12time_machine19TimeMachineHardware15GetFeedbackKnobEv,"ax",%progbits
 2518              		.align	1
 2519              		.p2align 2,,3
 2520              		.global	_ZN3oam12time_machine19TimeMachineHardware15GetFeedbackKnobEv
 2521              		.syntax unified
 2522              		.thumb
 2523              		.thumb_func
 2525              	_ZN3oam12time_machine19TimeMachineHardware15GetFeedbackKnobEv:
 2526              	.LVL182:
 2527              	.LFB3179:
 531:time_machine_hardware.cpp ****         return adc.GetMuxFloat(MISC_MUX, 1);
 2528              		.loc 1 531 5 is_stmt 1 view -0
 2529              		.cfi_startproc
 2530              		@ args = 0, pretend = 0, frame = 0
 2531              		@ frame_needed = 0, uses_anonymous_args = 0
 2532              		@ link register save eliminated.
 532:time_machine_hardware.cpp ****     }
ARM GAS  /var/folders/xd/16jvbr6j24q9nvtpm0qtw3240000gn/T//cch9jPA2.s 			page 76


 2533              		.loc 1 532 9 view .LVU687
 532:time_machine_hardware.cpp ****     }
 2534              		.loc 1 532 31 is_stmt 0 view .LVU688
 2535 0000 0122     		movs	r2, #1
 2536 0002 0B21     		movs	r1, #11
 2537 0004 1430     		adds	r0, r0, #20
 2538              	.LVL183:
 532:time_machine_hardware.cpp ****     }
 2539              		.loc 1 532 31 view .LVU689
 2540 0006 FFF7FEBF 		b	_ZNK5daisy9AdcHandle11GetMuxFloatEhh
 2541              	.LVL184:
 532:time_machine_hardware.cpp ****     }
 2542              		.loc 1 532 31 view .LVU690
 2543              		.cfi_endproc
 2544              	.LFE3179:
 2546 000a 00BF     		.section	.text._ZN3oam12time_machine19TimeMachineHardware15GetHighpassKnobEv,"ax",%progbits
 2547              		.align	1
 2548              		.p2align 2,,3
 2549              		.global	_ZN3oam12time_machine19TimeMachineHardware15GetHighpassKnobEv
 2550              		.syntax unified
 2551              		.thumb
 2552              		.thumb_func
 2554              	_ZN3oam12time_machine19TimeMachineHardware15GetHighpassKnobEv:
 2555              	.LVL185:
 2556              	.LFB3180:
 536:time_machine_hardware.cpp ****         return adc.GetMuxFloat(MISC_MUX, 0);
 2557              		.loc 1 536 5 is_stmt 1 view -0
 2558              		.cfi_startproc
 2559              		@ args = 0, pretend = 0, frame = 0
 2560              		@ frame_needed = 0, uses_anonymous_args = 0
 2561              		@ link register save eliminated.
 537:time_machine_hardware.cpp ****     }
 2562              		.loc 1 537 9 view .LVU692
 537:time_machine_hardware.cpp ****     }
 2563              		.loc 1 537 31 is_stmt 0 view .LVU693
 2564 0000 0022     		movs	r2, #0
 2565 0002 0B21     		movs	r1, #11
 2566 0004 1430     		adds	r0, r0, #20
 2567              	.LVL186:
 537:time_machine_hardware.cpp ****     }
 2568              		.loc 1 537 31 view .LVU694
 2569 0006 FFF7FEBF 		b	_ZNK5daisy9AdcHandle11GetMuxFloatEhh
 2570              	.LVL187:
 537:time_machine_hardware.cpp ****     }
 2571              		.loc 1 537 31 view .LVU695
 2572              		.cfi_endproc
 2573              	.LFE3180:
 2575 000a 00BF     		.section	.text._ZN3oam12time_machine19TimeMachineHardware14GetLowpassKnobEv,"ax",%progbits
 2576              		.align	1
 2577              		.p2align 2,,3
 2578              		.global	_ZN3oam12time_machine19TimeMachineHardware14GetLowpassKnobEv
 2579              		.syntax unified
 2580              		.thumb
 2581              		.thumb_func
 2583              	_ZN3oam12time_machine19TimeMachineHardware14GetLowpassKnobEv:
 2584              	.LVL188:
 2585              	.LFB3181:
ARM GAS  /var/folders/xd/16jvbr6j24q9nvtpm0qtw3240000gn/T//cch9jPA2.s 			page 77


 541:time_machine_hardware.cpp ****         return adc.GetMuxFloat(MISC_MUX, 5);
 2586              		.loc 1 541 5 is_stmt 1 view -0
 2587              		.cfi_startproc
 2588              		@ args = 0, pretend = 0, frame = 0
 2589              		@ frame_needed = 0, uses_anonymous_args = 0
 2590              		@ link register save eliminated.
 542:time_machine_hardware.cpp ****     }
 2591              		.loc 1 542 9 view .LVU697
 542:time_machine_hardware.cpp ****     }
 2592              		.loc 1 542 31 is_stmt 0 view .LVU698
 2593 0000 0522     		movs	r2, #5
 2594 0002 0B21     		movs	r1, #11
 2595 0004 1430     		adds	r0, r0, #20
 2596              	.LVL189:
 542:time_machine_hardware.cpp ****     }
 2597              		.loc 1 542 31 view .LVU699
 2598 0006 FFF7FEBF 		b	_ZNK5daisy9AdcHandle11GetMuxFloatEhh
 2599              	.LVL190:
 542:time_machine_hardware.cpp ****     }
 2600              		.loc 1 542 31 view .LVU700
 2601              		.cfi_endproc
 2602              	.LFE3181:
 2604 000a 00BF     		.section	.text._ZN3oam12time_machine19TimeMachineHardware6GetPinENS1_7PinBankEi,"ax",%progbits
 2605              		.align	1
 2606              		.p2align 2,,3
 2607              		.global	_ZN3oam12time_machine19TimeMachineHardware6GetPinENS1_7PinBankEi
 2608              		.syntax unified
 2609              		.thumb
 2610              		.thumb_func
 2612              	_ZN3oam12time_machine19TimeMachineHardware6GetPinENS1_7PinBankEi:
 2613              	.LVL191:
 2614              	.LFB3182:
 546:time_machine_hardware.cpp ****         if(idx <= 0 || idx > 10)
 2615              		.loc 1 546 5 is_stmt 1 view -0
 2616              		.cfi_startproc
 2617              		@ args = 0, pretend = 0, frame = 8
 2618              		@ frame_needed = 0, uses_anonymous_args = 0
 2619              		@ link register save eliminated.
 547:time_machine_hardware.cpp ****         {
 2620              		.loc 1 547 9 view .LVU702
 547:time_machine_hardware.cpp ****         {
 2621              		.loc 1 547 21 is_stmt 0 view .LVU703
 2622 0000 013A     		subs	r2, r2, #1
 2623              	.LVL192:
 546:time_machine_hardware.cpp ****         if(idx <= 0 || idx > 10)
 2624              		.loc 1 546 5 view .LVU704
 2625 0002 82B0     		sub	sp, sp, #8
 2626              		.cfi_def_cfa_offset 8
 547:time_machine_hardware.cpp ****         {
 2627              		.loc 1 547 9 view .LVU705
 2628 0004 092A     		cmp	r2, #9
 2629 0006 10D9     		bls	.L130
 549:time_machine_hardware.cpp ****         }
 2630              		.loc 1 549 13 is_stmt 1 view .LVU706
 549:time_machine_hardware.cpp ****         }
 2631              		.loc 1 549 20 is_stmt 0 view .LVU707
 2632 0008 0B22     		movs	r2, #11
ARM GAS  /var/folders/xd/16jvbr6j24q9nvtpm0qtw3240000gn/T//cch9jPA2.s 			page 78


 2633              	.LVL193:
 549:time_machine_hardware.cpp ****         }
 2634              		.loc 1 549 20 view .LVU708
 2635 000a 0023     		movs	r3, #0
 2636 000c 8DF80420 		strb	r2, [sp, #4]
 2637 0010 8DF80530 		strb	r3, [sp, #5]
 2638              	.LVL194:
 2639              	.L131:
 555:time_machine_hardware.cpp **** 
 2640              		.loc 1 555 5 view .LVU709
 2641 0014 9DF80420 		ldrb	r2, [sp, #4]	@ zero_extendqisi2
 2642 0018 0020     		movs	r0, #0
 2643              	.LVL195:
 555:time_machine_hardware.cpp **** 
 2644              		.loc 1 555 5 view .LVU710
 2645 001a 9DF80530 		ldrb	r3, [sp, #5]	@ zero_extendqisi2
 2646 001e 62F30700 		bfi	r0, r2, #0, #8
 2647 0022 63F30F20 		bfi	r0, r3, #8, #8
 2648 0026 02B0     		add	sp, sp, #8
 2649              		.cfi_remember_state
 2650              		.cfi_def_cfa_offset 0
 2651              		@ sp needed
 2652 0028 7047     		bx	lr
 2653              	.LVL196:
 2654              	.L130:
 2655              		.cfi_restore_state
 553:time_machine_hardware.cpp ****         }
 2656              		.loc 1 553 13 is_stmt 1 view .LVU711
 553:time_machine_hardware.cpp ****         }
 2657              		.loc 1 553 59 is_stmt 0 view .LVU712
 2658 002a 01EB8101 		add	r1, r1, r1, lsl #2
 2659              	.LVL197:
 553:time_machine_hardware.cpp ****         }
 2660              		.loc 1 553 59 view .LVU713
 2661 002e 044B     		ldr	r3, .L133
 2662 0030 02EB4102 		add	r2, r2, r1, lsl #1
 2663 0034 33F81230 		ldrh	r3, [r3, r2, lsl #1]
 2664 0038 ADF80430 		strh	r3, [sp, #4]	@ movhi
 2665 003c EAE7     		b	.L131
 2666              	.L134:
 2667 003e 00BF     		.align	2
 2668              	.L133:
 2669 0040 00000000 		.word	.LANCHOR5
 2670              		.cfi_endproc
 2671              	.LFE3182:
 2673              		.section	.text._ZN3oam12time_machine19TimeMachineHardware8StartDacEPFvPPtjE,"ax",%progbits
 2674              		.align	1
 2675              		.p2align 2,,3
 2676              		.global	_ZN3oam12time_machine19TimeMachineHardware8StartDacEPFvPPtjE
 2677              		.syntax unified
 2678              		.thumb
 2679              		.thumb_func
 2681              	_ZN3oam12time_machine19TimeMachineHardware8StartDacEPFvPPtjE:
 2682              	.LVL198:
 2683              	.LFB3183:
 558:time_machine_hardware.cpp ****         pimpl_->StartDac(callback);
 2684              		.loc 1 558 5 is_stmt 1 view -0
ARM GAS  /var/folders/xd/16jvbr6j24q9nvtpm0qtw3240000gn/T//cch9jPA2.s 			page 79


 2685              		.cfi_startproc
 2686              		@ args = 0, pretend = 0, frame = 0
 2687              		@ frame_needed = 0, uses_anonymous_args = 0
 2688              		.loc 1 559 9 view .LVU715
 558:time_machine_hardware.cpp ****         pimpl_->StartDac(callback);
 2689              		.loc 1 558 5 is_stmt 0 view .LVU716
 2690 0000 70B5     		push	{r4, r5, r6, lr}
 2691              		.cfi_def_cfa_offset 16
 2692              		.cfi_offset 4, -16
 2693              		.cfi_offset 5, -12
 2694              		.cfi_offset 6, -8
 2695              		.cfi_offset 14, -4
 2696              		.loc 1 559 9 view .LVU717
 2697 0002 D0F81C42 		ldr	r4, [r0, #540]
 2698              	.LVL199:
 558:time_machine_hardware.cpp ****         pimpl_->StartDac(callback);
 2699              		.loc 1 558 5 view .LVU718
 2700 0006 82B0     		sub	sp, sp, #8
 2701              		.cfi_def_cfa_offset 24
 558:time_machine_hardware.cpp ****         pimpl_->StartDac(callback);
 2702              		.loc 1 558 5 view .LVU719
 2703 0008 0D46     		mov	r5, r1
 2704              	.LVL200:
 2705              	.LBB758:
 2706              	.LBI758:
 183:time_machine_hardware.cpp ****     {
 2707              		.loc 1 183 10 is_stmt 1 view .LVU720
 2708              	.LBB759:
 185:time_machine_hardware.cpp ****             dac_.Stop();
 2709              		.loc 1 185 9 view .LVU721
 2710 000a 237D     		ldrb	r3, [r4, #20]	@ zero_extendqisi2
 186:time_machine_hardware.cpp ****         dac_.Start(internal_dac_buffer_[0],
 2711              		.loc 1 186 22 is_stmt 0 view .LVU722
 2712 000c 04F11006 		add	r6, r4, #16
 185:time_machine_hardware.cpp ****             dac_.Stop();
 2713              		.loc 1 185 9 view .LVU723
 2714 0010 5BB9     		cbnz	r3, .L136
 187:time_machine_hardware.cpp ****                    internal_dac_buffer_[1],
 2715              		.loc 1 187 9 is_stmt 1 view .LVU724
 187:time_machine_hardware.cpp ****                    internal_dac_buffer_[1],
 2716              		.loc 1 187 19 is_stmt 0 view .LVU725
 2717 0012 2368     		ldr	r3, [r4]
 2718 0014 D4E90112 		ldrd	r1, r2, [r4, #4]
 2719              	.LVL201:
 187:time_machine_hardware.cpp ****                    internal_dac_buffer_[1],
 2720              		.loc 1 187 19 view .LVU726
 2721 0018 7DB1     		cbz	r5, .L140
 2722              	.LVL202:
 2723              	.L138:
 187:time_machine_hardware.cpp ****                    internal_dac_buffer_[1],
 2724              		.loc 1 187 19 view .LVU727
 2725 001a 3046     		mov	r0, r6
 2726 001c 0095     		str	r5, [sp]
 2727 001e FFF7FEFF 		bl	_ZN5daisy9DacHandle5StartEPtS1_jPFvPS1_jE
 2728              	.LVL203:
 191:time_machine_hardware.cpp ****     }
 2729              		.loc 1 191 9 is_stmt 1 view .LVU728
ARM GAS  /var/folders/xd/16jvbr6j24q9nvtpm0qtw3240000gn/T//cch9jPA2.s 			page 80


 191:time_machine_hardware.cpp ****     }
 2730              		.loc 1 191 22 is_stmt 0 view .LVU729
 2731 0022 0123     		movs	r3, #1
 2732 0024 2375     		strb	r3, [r4, #20]
 2733              	.LVL204:
 191:time_machine_hardware.cpp ****     }
 2734              		.loc 1 191 22 view .LVU730
 2735              	.LBE759:
 2736              	.LBE758:
 560:time_machine_hardware.cpp ****     }
 2737              		.loc 1 560 5 view .LVU731
 2738 0026 02B0     		add	sp, sp, #8
 2739              		.cfi_remember_state
 2740              		.cfi_def_cfa_offset 16
 2741              		@ sp needed
 2742 0028 70BD     		pop	{r4, r5, r6, pc}
 2743              	.LVL205:
 2744              	.L136:
 2745              		.cfi_restore_state
 2746              	.LBB761:
 2747              	.LBB760:
 186:time_machine_hardware.cpp ****         dac_.Start(internal_dac_buffer_[0],
 2748              		.loc 1 186 13 is_stmt 1 view .LVU732
 186:time_machine_hardware.cpp ****         dac_.Start(internal_dac_buffer_[0],
 2749              		.loc 1 186 22 is_stmt 0 view .LVU733
 2750 002a 3046     		mov	r0, r6
 2751              	.LVL206:
 186:time_machine_hardware.cpp ****         dac_.Start(internal_dac_buffer_[0],
 2752              		.loc 1 186 22 view .LVU734
 2753 002c FFF7FEFF 		bl	_ZN5daisy9DacHandle4StopEv
 2754              	.LVL207:
 187:time_machine_hardware.cpp ****                    internal_dac_buffer_[1],
 2755              		.loc 1 187 9 is_stmt 1 view .LVU735
 187:time_machine_hardware.cpp ****                    internal_dac_buffer_[1],
 2756              		.loc 1 187 19 is_stmt 0 view .LVU736
 2757 0030 2368     		ldr	r3, [r4]
 2758 0032 D4E90112 		ldrd	r1, r2, [r4, #4]
 2759 0036 002D     		cmp	r5, #0
 2760 0038 EFD1     		bne	.L138
 2761              	.L140:
 187:time_machine_hardware.cpp ****                    internal_dac_buffer_[1],
 2762              		.loc 1 187 19 view .LVU737
 2763 003a 014D     		ldr	r5, .L141
 2764              	.LVL208:
 187:time_machine_hardware.cpp ****                    internal_dac_buffer_[1],
 2765              		.loc 1 187 19 view .LVU738
 2766 003c EDE7     		b	.L138
 2767              	.L142:
 2768 003e 00BF     		.align	2
 2769              	.L141:
 2770 0040 00000000 		.word	_ZN3oam12time_machine19TimeMachineHardware4Impl19InternalDacCallbackEPPtj
 2771              	.LBE760:
 2772              	.LBE761:
 2773              		.cfi_endproc
 2774              	.LFE3183:
 2776              		.section	.text._ZN3oam12time_machine19TimeMachineHardware7StopDacEv,"ax",%progbits
 2777              		.align	1
ARM GAS  /var/folders/xd/16jvbr6j24q9nvtpm0qtw3240000gn/T//cch9jPA2.s 			page 81


 2778              		.p2align 2,,3
 2779              		.global	_ZN3oam12time_machine19TimeMachineHardware7StopDacEv
 2780              		.syntax unified
 2781              		.thumb
 2782              		.thumb_func
 2784              	_ZN3oam12time_machine19TimeMachineHardware7StopDacEv:
 2785              	.LVL209:
 2786              	.LFB3184:
 561:time_machine_hardware.cpp **** 
 562:time_machine_hardware.cpp ****     void TimeMachineHardware::StopDac() { pimpl_->StopDac(); }
 2787              		.loc 1 562 41 is_stmt 1 view -0
 2788              		.cfi_startproc
 2789              		@ args = 0, pretend = 0, frame = 0
 2790              		@ frame_needed = 0, uses_anonymous_args = 0
 2791              		.loc 1 562 43 view .LVU740
 2792              		.loc 1 562 41 is_stmt 0 view .LVU741
 2793 0000 10B5     		push	{r4, lr}
 2794              		.cfi_def_cfa_offset 8
 2795              		.cfi_offset 4, -8
 2796              		.cfi_offset 14, -4
 2797              		.loc 1 562 43 view .LVU742
 2798 0002 D0F81C42 		ldr	r4, [r0, #540]
 2799              	.LVL210:
 2800              	.LBB762:
 2801              	.LBI762:
 194:time_machine_hardware.cpp ****     {
 2802              		.loc 1 194 10 is_stmt 1 view .LVU743
 2803              	.LBB763:
 196:time_machine_hardware.cpp ****         dac_running_ = false;
 2804              		.loc 1 196 9 view .LVU744
 196:time_machine_hardware.cpp ****         dac_running_ = false;
 2805              		.loc 1 196 18 is_stmt 0 view .LVU745
 2806 0006 04F11000 		add	r0, r4, #16
 2807              	.LVL211:
 196:time_machine_hardware.cpp ****         dac_running_ = false;
 2808              		.loc 1 196 18 view .LVU746
 2809 000a FFF7FEFF 		bl	_ZN5daisy9DacHandle4StopEv
 2810              	.LVL212:
 197:time_machine_hardware.cpp ****     }
 2811              		.loc 1 197 9 is_stmt 1 view .LVU747
 197:time_machine_hardware.cpp ****     }
 2812              		.loc 1 197 22 is_stmt 0 view .LVU748
 2813 000e 0023     		movs	r3, #0
 2814 0010 2375     		strb	r3, [r4, #20]
 2815              	.LVL213:
 197:time_machine_hardware.cpp ****     }
 2816              		.loc 1 197 22 view .LVU749
 2817              	.LBE763:
 2818              	.LBE762:
 2819              		.loc 1 562 62 view .LVU750
 2820 0012 10BD     		pop	{r4, pc}
 2821              		.cfi_endproc
 2822              	.LFE3184:
 2824              		.section	.text._ZN3oam12time_machine19TimeMachineHardware10WriteCvOutEif,"ax",%progbits
 2825              		.align	1
 2826              		.p2align 2,,3
 2827              		.global	_ZN3oam12time_machine19TimeMachineHardware10WriteCvOutEif
ARM GAS  /var/folders/xd/16jvbr6j24q9nvtpm0qtw3240000gn/T//cch9jPA2.s 			page 82


 2828              		.syntax unified
 2829              		.thumb
 2830              		.thumb_func
 2832              	_ZN3oam12time_machine19TimeMachineHardware10WriteCvOutEif:
 2833              	.LVL214:
 2834              	.LFB3185:
 563:time_machine_hardware.cpp **** 
 564:time_machine_hardware.cpp ****     void TimeMachineHardware::WriteCvOut(const int channel, float voltage)
 565:time_machine_hardware.cpp ****     {
 2835              		.loc 1 565 5 is_stmt 1 view -0
 2836              		.cfi_startproc
 2837              		@ args = 0, pretend = 0, frame = 0
 2838              		@ frame_needed = 0, uses_anonymous_args = 0
 2839              		@ link register save eliminated.
 566:time_machine_hardware.cpp ****         pimpl_->WriteCvOut(channel, voltage);
 2840              		.loc 1 566 9 view .LVU752
 2841              	.LBB774:
 2842              	.LBB775:
 151:time_machine_hardware.cpp ****                 dac_output_[0] = VoltageToCode(voltage);
 2843              		.loc 1 151 13 is_stmt 0 view .LVU753
 2844 0000 0129     		cmp	r1, #1
 2845              	.LBE775:
 2846              	.LBE774:
 2847              		.loc 1 566 9 view .LVU754
 2848 0002 D0F81C22 		ldr	r2, [r0, #540]
 2849              	.LVL215:
 2850              	.LBB790:
 2851              	.LBI774:
 149:time_machine_hardware.cpp ****         {
 2852              		.loc 1 149 21 is_stmt 1 view .LVU755
 2853              	.LBB788:
 151:time_machine_hardware.cpp ****                 dac_output_[0] = VoltageToCode(voltage);
 2854              		.loc 1 151 13 view .LVU756
 2855 0006 1CD9     		bls	.L154
 2856              	.L146:
 153:time_machine_hardware.cpp ****                 dac_output_[1] = VoltageToCode(voltage);
 2857              		.loc 1 153 13 view .LVU757
 2858 0008 31F00201 		bics	r1, r1, #2
 2859              	.LVL216:
 153:time_machine_hardware.cpp ****                 dac_output_[1] = VoltageToCode(voltage);
 2860              		.loc 1 153 13 is_stmt 0 view .LVU758
 2861 000c 0DD1     		bne	.L145
 2862              	.LVL217:
 2863              	.LBB776:
 2864              	.LBI776:
 149:time_machine_hardware.cpp ****         {
 2865              		.loc 1 149 21 is_stmt 1 view .LVU759
 2866              	.LBB777:
 154:time_machine_hardware.cpp ****         }
 2867              		.loc 1 154 17 view .LVU760
 2868              	.LBB778:
 2869              	.LBI778:
 139:time_machine_hardware.cpp ****         {
 2870              		.loc 1 139 32 view .LVU761
 2871              	.LBB779:
 141:time_machine_hardware.cpp ****             if(pre > 4095.f)
 2872              		.loc 1 141 13 view .LVU762
ARM GAS  /var/folders/xd/16jvbr6j24q9nvtpm0qtw3240000gn/T//cch9jPA2.s 			page 83


 141:time_machine_hardware.cpp ****             if(pre > 4095.f)
 2873              		.loc 1 141 19 is_stmt 0 view .LVU763
 2874 000e 9FED1B7A 		vldr.32	s14, .L156
 142:time_machine_hardware.cpp ****                 pre = 4095.f;
 2875              		.loc 1 142 13 view .LVU764
 2876 0012 DFED1B7A 		vldr.32	s15, .L156+4
 141:time_machine_hardware.cpp ****             if(pre > 4095.f)
 2877              		.loc 1 141 19 view .LVU765
 2878 0016 20EE070A 		vmul.f32	s0, s0, s14
 2879              	.LVL218:
 142:time_machine_hardware.cpp ****                 pre = 4095.f;
 2880              		.loc 1 142 13 is_stmt 1 view .LVU766
 2881 001a B4EEE70A 		vcmpe.f32	s0, s15
 2882 001e F1EE10FA 		vmrs	APSR_nzcv, FPSCR
 2883 0022 03DD     		ble	.L155
 2884 0024 40F6FF71 		movw	r1, #4095
 2885              	.LVL219:
 2886              	.L149:
 146:time_machine_hardware.cpp ****         }
 2887              		.loc 1 146 13 view .LVU767
 146:time_machine_hardware.cpp ****         }
 2888              		.loc 1 146 13 is_stmt 0 view .LVU768
 2889              	.LBE779:
 2890              	.LBE778:
 154:time_machine_hardware.cpp ****         }
 2891              		.loc 1 154 32 view .LVU769
 2892 0028 D181     		strh	r1, [r2, #14]	@ movhi
 2893              	.LVL220:
 2894              	.L145:
 154:time_machine_hardware.cpp ****         }
 2895              		.loc 1 154 32 view .LVU770
 2896              	.LBE777:
 2897              	.LBE776:
 2898              	.LBE788:
 2899              	.LBE790:
 567:time_machine_hardware.cpp ****     }
 2900              		.loc 1 567 5 view .LVU771
 2901 002a 7047     		bx	lr
 2902              	.LVL221:
 2903              	.L155:
 2904              	.LBB791:
 2905              	.LBB789:
 2906              	.LBB783:
 2907              	.LBB782:
 2908              	.LBB781:
 2909              	.LBB780:
 144:time_machine_hardware.cpp ****                 pre = 0.f;
 2910              		.loc 1 144 18 is_stmt 1 view .LVU772
 2911 002c B5EEC00A 		vcmpe.f32	s0, #0
 2912 0030 F1EE10FA 		vmrs	APSR_nzcv, FPSCR
 2913 0034 F8D4     		bmi	.L149
 146:time_machine_hardware.cpp ****         }
 2914              		.loc 1 146 30 is_stmt 0 view .LVU773
 2915 0036 BCEEC00A 		vcvt.u32.f32	s0, s0
 2916              	.LVL222:
 146:time_machine_hardware.cpp ****         }
 2917              		.loc 1 146 30 view .LVU774
ARM GAS  /var/folders/xd/16jvbr6j24q9nvtpm0qtw3240000gn/T//cch9jPA2.s 			page 84


 2918 003a 10EE103A 		vmov	r3, s0	@ int
 2919 003e 99B2     		uxth	r1, r3
 2920 0040 F2E7     		b	.L149
 2921              	.LVL223:
 2922              	.L154:
 146:time_machine_hardware.cpp ****         }
 2923              		.loc 1 146 30 view .LVU775
 2924              	.LBE780:
 2925              	.LBE781:
 2926              	.LBE782:
 2927              	.LBE783:
 152:time_machine_hardware.cpp ****             if(channel == 0 || channel == 2)
 2928              		.loc 1 152 17 is_stmt 1 view .LVU776
 2929              	.LBB784:
 2930              	.LBI784:
 139:time_machine_hardware.cpp ****         {
 2931              		.loc 1 139 32 view .LVU777
 2932              	.LBB785:
 141:time_machine_hardware.cpp ****             if(pre > 4095.f)
 2933              		.loc 1 141 13 view .LVU778
 141:time_machine_hardware.cpp ****             if(pre > 4095.f)
 2934              		.loc 1 141 19 is_stmt 0 view .LVU779
 2935 0042 DFED0E7A 		vldr.32	s15, .L156
 142:time_machine_hardware.cpp ****                 pre = 4095.f;
 2936              		.loc 1 142 13 view .LVU780
 2937 0046 9FED0E7A 		vldr.32	s14, .L156+4
 141:time_machine_hardware.cpp ****             if(pre > 4095.f)
 2938              		.loc 1 141 19 view .LVU781
 2939 004a 60EE277A 		vmul.f32	s15, s0, s15
 2940              	.LVL224:
 142:time_machine_hardware.cpp ****                 pre = 4095.f;
 2941              		.loc 1 142 13 is_stmt 1 view .LVU782
 2942 004e F4EEC77A 		vcmpe.f32	s15, s14
 2943 0052 F1EE10FA 		vmrs	APSR_nzcv, FPSCR
 2944 0056 0ADC     		bgt	.L150
 144:time_machine_hardware.cpp ****                 pre = 0.f;
 2945              		.loc 1 144 18 view .LVU783
 2946 0058 F5EEC07A 		vcmpe.f32	s15, #0
 2947 005c F1EE10FA 		vmrs	APSR_nzcv, FPSCR
 2948 0060 09D4     		bmi	.L151
 146:time_machine_hardware.cpp ****         }
 2949              		.loc 1 146 30 is_stmt 0 view .LVU784
 2950 0062 FCEEE77A 		vcvt.u32.f32	s15, s15
 2951              	.LVL225:
 146:time_machine_hardware.cpp ****         }
 2952              		.loc 1 146 30 view .LVU785
 2953 0066 17EE903A 		vmov	r3, s15	@ int
 2954 006a 9BB2     		uxth	r3, r3
 2955 006c 01E0     		b	.L147
 2956              	.LVL226:
 2957              	.L150:
 146:time_machine_hardware.cpp ****         }
 2958              		.loc 1 146 30 view .LVU786
 2959 006e 40F6FF73 		movw	r3, #4095
 2960              	.LVL227:
 2961              	.L147:
 146:time_machine_hardware.cpp ****         }
ARM GAS  /var/folders/xd/16jvbr6j24q9nvtpm0qtw3240000gn/T//cch9jPA2.s 			page 85


 2962              		.loc 1 146 13 is_stmt 1 view .LVU787
 146:time_machine_hardware.cpp ****         }
 2963              		.loc 1 146 13 is_stmt 0 view .LVU788
 2964              	.LBE785:
 2965              	.LBE784:
 152:time_machine_hardware.cpp ****             if(channel == 0 || channel == 2)
 2966              		.loc 1 152 32 view .LVU789
 2967 0072 9381     		strh	r3, [r2, #12]	@ movhi
 2968 0074 C8E7     		b	.L146
 2969              	.LVL228:
 2970              	.L151:
 2971              	.LBB787:
 2972              	.LBB786:
 152:time_machine_hardware.cpp ****             if(channel == 0 || channel == 2)
 2973              		.loc 1 152 32 view .LVU790
 2974 0076 0023     		movs	r3, #0
 2975 0078 FBE7     		b	.L147
 2976              	.L157:
 2977 007a 00BF     		.align	2
 2978              	.L156:
 2979 007c 00C04C44 		.word	1145880576
 2980 0080 00F07F45 		.word	1166012416
 2981              	.LBE786:
 2982              	.LBE787:
 2983              	.LBE789:
 2984              	.LBE791:
 2985              		.cfi_endproc
 2986              	.LFE3185:
 2988              		.section	.text._ZN3oam12time_machine19TimeMachineHardware6SetLedEb,"ax",%progbits
 2989              		.align	1
 2990              		.p2align 2,,3
 2991              		.global	_ZN3oam12time_machine19TimeMachineHardware6SetLedEb
 2992              		.syntax unified
 2993              		.thumb
 2994              		.thumb_func
 2996              	_ZN3oam12time_machine19TimeMachineHardware6SetLedEb:
 2997              	.LVL229:
 2998              	.LFB3186:
 568:time_machine_hardware.cpp **** 
 569:time_machine_hardware.cpp ****     void TimeMachineHardware::SetLed(bool state) {  user_led.Write(state); }
 2999              		.loc 1 569 50 is_stmt 1 view -0
 3000              		.cfi_startproc
 3001              		@ args = 0, pretend = 0, frame = 0
 3002              		@ frame_needed = 0, uses_anonymous_args = 0
 3003              		@ link register save eliminated.
 3004              		.loc 1 569 53 view .LVU792
 3005              		.loc 1 569 67 is_stmt 0 view .LVU793
 3006 0000 2C30     		adds	r0, r0, #44
 3007              	.LVL230:
 3008              		.loc 1 569 67 view .LVU794
 3009 0002 FFF7FEBF 		b	_ZN5daisy4GPIO5WriteEb
 3010              	.LVL231:
 3011              		.loc 1 569 67 view .LVU795
 3012              		.cfi_endproc
 3013              	.LFE3186:
 3015 0006 00BF     		.section	.text._ZN3oam12time_machine19TimeMachineHardware13ValidateSDRAMEv,"ax",%progbits
 3016              		.align	1
ARM GAS  /var/folders/xd/16jvbr6j24q9nvtpm0qtw3240000gn/T//cch9jPA2.s 			page 86


 3017              		.p2align 2,,3
 3018              		.global	_ZN3oam12time_machine19TimeMachineHardware13ValidateSDRAMEv
 3019              		.syntax unified
 3020              		.thumb
 3021              		.thumb_func
 3023              	_ZN3oam12time_machine19TimeMachineHardware13ValidateSDRAMEv:
 3024              	.LVL232:
 3025              	.LFB3187:
 570:time_machine_hardware.cpp **** 
 571:time_machine_hardware.cpp ****     bool TimeMachineHardware::ValidateSDRAM()
 572:time_machine_hardware.cpp ****     {
 3026              		.loc 1 572 5 is_stmt 1 view -0
 3027              		.cfi_startproc
 3028              		@ args = 0, pretend = 0, frame = 0
 3029              		@ frame_needed = 0, uses_anonymous_args = 0
 573:time_machine_hardware.cpp ****         uint32_t *sdramptr      = (uint32_t *)0xc0000000;
 3030              		.loc 1 573 9 view .LVU797
 574:time_machine_hardware.cpp ****         uint32_t  size_in_words = 16777216;
 3031              		.loc 1 574 9 view .LVU798
 575:time_machine_hardware.cpp ****         uint32_t  testval       = 0xdeadbeef;
 3032              		.loc 1 575 9 view .LVU799
 576:time_machine_hardware.cpp ****         uint32_t  num_failed    = 0;
 3033              		.loc 1 576 9 view .LVU800
 577:time_machine_hardware.cpp **** 
 578:time_machine_hardware.cpp ****         /** Write test val */
 579:time_machine_hardware.cpp ****         for (uint32_t i = 0; i < size_in_words; i++)
 3034              		.loc 1 579 9 view .LVU801
 3035              	.LBB792:
 3036              		.loc 1 579 32 view .LVU802
 3037              	.LBE792:
 572:time_machine_hardware.cpp ****         uint32_t *sdramptr      = (uint32_t *)0xc0000000;
 3038              		.loc 1 572 5 is_stmt 0 view .LVU803
 3039 0000 4FF04043 		mov	r3, #-1073741824
 3040 0004 10B5     		push	{r4, lr}
 3041              		.cfi_def_cfa_offset 8
 3042              		.cfi_offset 4, -8
 3043              		.cfi_offset 14, -4
 3044              	.LVL233:
 3045              	.L160:
 3046              	.LBB794:
 3047              	.LBB793:
 580:time_machine_hardware.cpp ****         {
 581:time_machine_hardware.cpp ****             uint32_t *word = sdramptr + i;
 3048              		.loc 1 581 13 is_stmt 1 discriminator 2 view .LVU804
 582:time_machine_hardware.cpp ****             *word          = testval;
 3049              		.loc 1 582 13 discriminator 2 view .LVU805
 3050              		.loc 1 582 28 is_stmt 0 discriminator 2 view .LVU806
 3051 0006 134A     		ldr	r2, .L172
 3052 0008 43F8042B 		str	r2, [r3], #4
 3053              	.LVL234:
 3054              		.loc 1 582 28 discriminator 2 view .LVU807
 3055              	.LBE793:
 579:time_machine_hardware.cpp ****         {
 3056              		.loc 1 579 9 is_stmt 1 discriminator 2 view .LVU808
 579:time_machine_hardware.cpp ****         {
 3057              		.loc 1 579 32 discriminator 2 view .LVU809
 3058 000c B3F1444F 		cmp	r3, #-1006632960
ARM GAS  /var/folders/xd/16jvbr6j24q9nvtpm0qtw3240000gn/T//cch9jPA2.s 			page 87


 3059 0010 F9D1     		bne	.L160
 3060 0012 4FF04043 		mov	r3, #-1073741824
 3061              	.LVL235:
 579:time_machine_hardware.cpp ****         {
 3062              		.loc 1 579 32 is_stmt 0 discriminator 2 view .LVU810
 3063              	.LBE794:
 576:time_machine_hardware.cpp **** 
 3064              		.loc 1 576 19 view .LVU811
 3065 0016 0024     		movs	r4, #0
 3066              	.LVL236:
 3067              	.L162:
 3068              	.LBB795:
 3069              	.LBB796:
 583:time_machine_hardware.cpp ****         }
 584:time_machine_hardware.cpp **** 
 585:time_machine_hardware.cpp ****         /** Compare written */
 586:time_machine_hardware.cpp ****         for (uint32_t i = 0; i < size_in_words; i++)
 587:time_machine_hardware.cpp ****         {
 588:time_machine_hardware.cpp ****             uint32_t *word = sdramptr + i;
 3070              		.loc 1 588 13 is_stmt 1 view .LVU812
 589:time_machine_hardware.cpp ****             if (*word != testval)
 3071              		.loc 1 589 13 view .LVU813
 590:time_machine_hardware.cpp ****             {
 591:time_machine_hardware.cpp ****                 num_failed++;
 3072              		.loc 1 591 17 view .LVU814
 589:time_machine_hardware.cpp ****             if (*word != testval)
 3073              		.loc 1 589 13 is_stmt 0 view .LVU815
 3074 0018 1968     		ldr	r1, [r3]
 3075              	.LBE796:
 586:time_machine_hardware.cpp ****         {
 3076              		.loc 1 586 32 view .LVU816
 3077 001a 0433     		adds	r3, r3, #4
 3078              	.LVL237:
 3079              	.LBB797:
 589:time_machine_hardware.cpp ****             if (*word != testval)
 3080              		.loc 1 589 13 view .LVU817
 3081 001c 0D4A     		ldr	r2, .L172
 3082 001e 9142     		cmp	r1, r2
 3083              		.loc 1 591 27 view .LVU818
 3084 0020 18BF     		it	ne
 3085 0022 0134     		addne	r4, r4, #1
 3086              	.LVL238:
 3087              		.loc 1 591 27 view .LVU819
 3088              	.LBE797:
 586:time_machine_hardware.cpp ****         {
 3089              		.loc 1 586 9 is_stmt 1 view .LVU820
 586:time_machine_hardware.cpp ****         {
 3090              		.loc 1 586 32 view .LVU821
 3091 0024 B3F1444F 		cmp	r3, #-1006632960
 3092 0028 F6D1     		bne	.L162
 3093              	.LBE795:
 3094              	.LBB798:
 3095              	.LBB799:
 592:time_machine_hardware.cpp ****             }
 593:time_machine_hardware.cpp ****         }
 594:time_machine_hardware.cpp **** 
 595:time_machine_hardware.cpp ****         /** Write Zeroes */
ARM GAS  /var/folders/xd/16jvbr6j24q9nvtpm0qtw3240000gn/T//cch9jPA2.s 			page 88


 596:time_machine_hardware.cpp ****         for (uint32_t i = 0; i < size_in_words; i++)
 597:time_machine_hardware.cpp ****         {
 598:time_machine_hardware.cpp ****             uint32_t *word = sdramptr + i;
 599:time_machine_hardware.cpp ****             *word = 0x00000000;
 3096              		.loc 1 599 19 is_stmt 0 view .LVU822
 3097 002a 4FF08062 		mov	r2, #67108864
 3098 002e 0021     		movs	r1, #0
 3099 0030 4FF04040 		mov	r0, #-1073741824
 3100              	.LVL239:
 3101              		.loc 1 599 19 view .LVU823
 3102 0034 FFF7FEFF 		bl	memset
 3103              	.LVL240:
 3104              		.loc 1 599 19 view .LVU824
 3105 0038 4FF04043 		mov	r3, #-1073741824
 3106              	.L164:
 3107              		.loc 1 599 19 view .LVU825
 3108              	.LBE799:
 3109              	.LBE798:
 3110              	.LBB800:
 3111              	.LBB801:
 600:time_machine_hardware.cpp ****         }
 601:time_machine_hardware.cpp **** 
 602:time_machine_hardware.cpp ****         /** Compare Cleared */
 603:time_machine_hardware.cpp ****         for (uint32_t i = 0; i < size_in_words; i++)
 604:time_machine_hardware.cpp ****         {
 605:time_machine_hardware.cpp ****             uint32_t *word = sdramptr + i;
 3112              		.loc 1 605 13 is_stmt 1 view .LVU826
 3113              	.LVL241:
 606:time_machine_hardware.cpp ****             if (*word != 0) {
 3114              		.loc 1 606 13 view .LVU827
 607:time_machine_hardware.cpp ****                 num_failed++;
 3115              		.loc 1 607 17 view .LVU828
 606:time_machine_hardware.cpp ****             if (*word != 0) {
 3116              		.loc 1 606 13 is_stmt 0 view .LVU829
 3117 003c 1A68     		ldr	r2, [r3]
 3118              	.LBE801:
 603:time_machine_hardware.cpp ****         {
 3119              		.loc 1 603 32 view .LVU830
 3120 003e 0433     		adds	r3, r3, #4
 3121              	.LVL242:
 3122              	.LBB802:
 606:time_machine_hardware.cpp ****             if (*word != 0) {
 3123              		.loc 1 606 13 view .LVU831
 3124 0040 02B1     		cbz	r2, .L163
 3125              		.loc 1 607 27 view .LVU832
 3126 0042 0134     		adds	r4, r4, #1
 3127              	.LVL243:
 3128              	.L163:
 3129              		.loc 1 607 27 view .LVU833
 3130              	.LBE802:
 603:time_machine_hardware.cpp ****         {
 3131              		.loc 1 603 9 is_stmt 1 discriminator 2 view .LVU834
 603:time_machine_hardware.cpp ****         {
 3132              		.loc 1 603 32 discriminator 2 view .LVU835
 3133 0044 B3F1444F 		cmp	r3, #-1006632960
 3134 0048 F8D1     		bne	.L164
 603:time_machine_hardware.cpp ****         {
ARM GAS  /var/folders/xd/16jvbr6j24q9nvtpm0qtw3240000gn/T//cch9jPA2.s 			page 89


 3135              		.loc 1 603 32 is_stmt 0 discriminator 2 view .LVU836
 3136              	.LBE800:
 608:time_machine_hardware.cpp ****             }
 609:time_machine_hardware.cpp ****         }
 610:time_machine_hardware.cpp **** 
 611:time_machine_hardware.cpp ****         return num_failed == 0;
 3137              		.loc 1 611 9 is_stmt 1 view .LVU837
 612:time_machine_hardware.cpp ****     }
 3138              		.loc 1 612 5 is_stmt 0 view .LVU838
 3139 004a B4FA84F0 		clz	r0, r4
 3140 004e 4009     		lsrs	r0, r0, #5
 3141 0050 10BD     		pop	{r4, pc}
 3142              	.LVL244:
 3143              	.L173:
 3144              		.loc 1 612 5 view .LVU839
 3145 0052 00BF     		.align	2
 3146              	.L172:
 3147 0054 EFBEADDE 		.word	-559038737
 3148              		.cfi_endproc
 3149              	.LFE3187:
 3151              		.section	.text._ZN3oam12time_machine19TimeMachineHardware12ValidateQSPIEb,"ax",%progbits
 3152              		.align	1
 3153              		.p2align 2,,3
 3154              		.global	_ZN3oam12time_machine19TimeMachineHardware12ValidateQSPIEb
 3155              		.syntax unified
 3156              		.thumb
 3157              		.thumb_func
 3159              	_ZN3oam12time_machine19TimeMachineHardware12ValidateQSPIEb:
 3160              	.LVL245:
 3161              	.LFB3188:
 613:time_machine_hardware.cpp **** 
 614:time_machine_hardware.cpp ****     bool TimeMachineHardware::ValidateQSPI(bool quick)
 615:time_machine_hardware.cpp ****     {
 3162              		.loc 1 615 5 is_stmt 1 view -0
 3163              		.cfi_startproc
 3164              		@ args = 0, pretend = 0, frame = 0
 3165              		@ frame_needed = 0, uses_anonymous_args = 0
 616:time_machine_hardware.cpp ****         uint32_t start;
 3166              		.loc 1 616 9 view .LVU841
 617:time_machine_hardware.cpp ****         uint32_t size;
 3167              		.loc 1 617 9 view .LVU842
 618:time_machine_hardware.cpp ****         if (quick)
 3168              		.loc 1 618 9 view .LVU843
 615:time_machine_hardware.cpp ****         uint32_t start;
 3169              		.loc 1 615 5 is_stmt 0 view .LVU844
 3170 0000 2DE9F041 		push	{r4, r5, r6, r7, r8, lr}
 3171              		.cfi_def_cfa_offset 24
 3172              		.cfi_offset 4, -24
 3173              		.cfi_offset 5, -20
 3174              		.cfi_offset 6, -16
 3175              		.cfi_offset 7, -12
 3176              		.cfi_offset 8, -8
 3177              		.cfi_offset 14, -4
 3178              		.loc 1 618 9 view .LVU845
 3179 0004 B1BB     		cbnz	r1, .L179
 3180 0006 4FF40002 		mov	r2, #8388608
 619:time_machine_hardware.cpp ****         {
ARM GAS  /var/folders/xd/16jvbr6j24q9nvtpm0qtw3240000gn/T//cch9jPA2.s 			page 90


 620:time_machine_hardware.cpp ****             start = 0x400000;
 621:time_machine_hardware.cpp ****             size  = 0x4000;
 622:time_machine_hardware.cpp ****         }
 623:time_machine_hardware.cpp ****         else
 624:time_machine_hardware.cpp ****         {
 625:time_machine_hardware.cpp ****             start = 0;
 3181              		.loc 1 625 19 view .LVU846
 3182 000a 0F46     		mov	r7, r1
 626:time_machine_hardware.cpp ****             size  = 0x800000;
 3183              		.loc 1 626 19 view .LVU847
 3184 000c 1446     		mov	r4, r2
 3185              	.L175:
 3186              	.LVL246:
 627:time_machine_hardware.cpp ****         }
 628:time_machine_hardware.cpp ****         // Erase the section to be tested
 629:time_machine_hardware.cpp ****         qspi.Erase(start, start + size);
 3187              		.loc 1 629 9 is_stmt 1 view .LVU848
 3188              		.loc 1 629 19 is_stmt 0 view .LVU849
 3189 000e 00F10C08 		add	r8, r0, #12
 3190 0012 3946     		mov	r1, r7
 3191              	.LVL247:
 3192              		.loc 1 629 19 view .LVU850
 3193 0014 4046     		mov	r0, r8
 3194              	.LVL248:
 3195              		.loc 1 629 19 view .LVU851
 3196 0016 FFF7FEFF 		bl	_ZN5daisy10QSPIHandle5EraseEmm
 3197              	.LVL249:
 630:time_machine_hardware.cpp **** 
 631:time_machine_hardware.cpp ****         // Create some test data
 632:time_machine_hardware.cpp ****         std::vector<uint8_t> test;
 3198              		.loc 1 632 9 is_stmt 1 view .LVU852
 3199              	.LBB895:
 3200              	.LBI895:
 3201              		.file 10 "/Library/DaisyToolchain/0.1.3-ARM/arm/arm-none-eabi/include/c++/10.3.1/bits/stl_vector.h
   1:/Library/DaisyToolchain/0.1.3-ARM/arm/arm-none-eabi/include/c++/10.3.1/bits/stl_vector.h **** // Vector implementation -*- C++ -*-
   2:/Library/DaisyToolchain/0.1.3-ARM/arm/arm-none-eabi/include/c++/10.3.1/bits/stl_vector.h **** 
   3:/Library/DaisyToolchain/0.1.3-ARM/arm/arm-none-eabi/include/c++/10.3.1/bits/stl_vector.h **** // Copyright (C) 2001-2020 Free Software Foundation, Inc.
   4:/Library/DaisyToolchain/0.1.3-ARM/arm/arm-none-eabi/include/c++/10.3.1/bits/stl_vector.h **** //
   5:/Library/DaisyToolchain/0.1.3-ARM/arm/arm-none-eabi/include/c++/10.3.1/bits/stl_vector.h **** // This file is part of the GNU ISO C++ Library.  This library is free
   6:/Library/DaisyToolchain/0.1.3-ARM/arm/arm-none-eabi/include/c++/10.3.1/bits/stl_vector.h **** // software; you can redistribute it and/or modify it under the
   7:/Library/DaisyToolchain/0.1.3-ARM/arm/arm-none-eabi/include/c++/10.3.1/bits/stl_vector.h **** // terms of the GNU General Public License as published by the
   8:/Library/DaisyToolchain/0.1.3-ARM/arm/arm-none-eabi/include/c++/10.3.1/bits/stl_vector.h **** // Free Software Foundation; either version 3, or (at your option)
   9:/Library/DaisyToolchain/0.1.3-ARM/arm/arm-none-eabi/include/c++/10.3.1/bits/stl_vector.h **** // any later version.
  10:/Library/DaisyToolchain/0.1.3-ARM/arm/arm-none-eabi/include/c++/10.3.1/bits/stl_vector.h **** 
  11:/Library/DaisyToolchain/0.1.3-ARM/arm/arm-none-eabi/include/c++/10.3.1/bits/stl_vector.h **** // This library is distributed in the hope that it will be useful,
  12:/Library/DaisyToolchain/0.1.3-ARM/arm/arm-none-eabi/include/c++/10.3.1/bits/stl_vector.h **** // but WITHOUT ANY WARRANTY; without even the implied warranty of
  13:/Library/DaisyToolchain/0.1.3-ARM/arm/arm-none-eabi/include/c++/10.3.1/bits/stl_vector.h **** // MERCHANTABILITY or FITNESS FOR A PARTICULAR PURPOSE.  See the
  14:/Library/DaisyToolchain/0.1.3-ARM/arm/arm-none-eabi/include/c++/10.3.1/bits/stl_vector.h **** // GNU General Public License for more details.
  15:/Library/DaisyToolchain/0.1.3-ARM/arm/arm-none-eabi/include/c++/10.3.1/bits/stl_vector.h **** 
  16:/Library/DaisyToolchain/0.1.3-ARM/arm/arm-none-eabi/include/c++/10.3.1/bits/stl_vector.h **** // Under Section 7 of GPL version 3, you are granted additional
  17:/Library/DaisyToolchain/0.1.3-ARM/arm/arm-none-eabi/include/c++/10.3.1/bits/stl_vector.h **** // permissions described in the GCC Runtime Library Exception, version
  18:/Library/DaisyToolchain/0.1.3-ARM/arm/arm-none-eabi/include/c++/10.3.1/bits/stl_vector.h **** // 3.1, as published by the Free Software Foundation.
  19:/Library/DaisyToolchain/0.1.3-ARM/arm/arm-none-eabi/include/c++/10.3.1/bits/stl_vector.h **** 
  20:/Library/DaisyToolchain/0.1.3-ARM/arm/arm-none-eabi/include/c++/10.3.1/bits/stl_vector.h **** // You should have received a copy of the GNU General Public License and
  21:/Library/DaisyToolchain/0.1.3-ARM/arm/arm-none-eabi/include/c++/10.3.1/bits/stl_vector.h **** // a copy of the GCC Runtime Library Exception along with this program;
  22:/Library/DaisyToolchain/0.1.3-ARM/arm/arm-none-eabi/include/c++/10.3.1/bits/stl_vector.h **** // see the files COPYING3 and COPYING.RUNTIME respectively.  If not, see
  23:/Library/DaisyToolchain/0.1.3-ARM/arm/arm-none-eabi/include/c++/10.3.1/bits/stl_vector.h **** // <http://www.gnu.org/licenses/>.
ARM GAS  /var/folders/xd/16jvbr6j24q9nvtpm0qtw3240000gn/T//cch9jPA2.s 			page 91


  24:/Library/DaisyToolchain/0.1.3-ARM/arm/arm-none-eabi/include/c++/10.3.1/bits/stl_vector.h **** 
  25:/Library/DaisyToolchain/0.1.3-ARM/arm/arm-none-eabi/include/c++/10.3.1/bits/stl_vector.h **** /*
  26:/Library/DaisyToolchain/0.1.3-ARM/arm/arm-none-eabi/include/c++/10.3.1/bits/stl_vector.h ****  *
  27:/Library/DaisyToolchain/0.1.3-ARM/arm/arm-none-eabi/include/c++/10.3.1/bits/stl_vector.h ****  * Copyright (c) 1994
  28:/Library/DaisyToolchain/0.1.3-ARM/arm/arm-none-eabi/include/c++/10.3.1/bits/stl_vector.h ****  * Hewlett-Packard Company
  29:/Library/DaisyToolchain/0.1.3-ARM/arm/arm-none-eabi/include/c++/10.3.1/bits/stl_vector.h ****  *
  30:/Library/DaisyToolchain/0.1.3-ARM/arm/arm-none-eabi/include/c++/10.3.1/bits/stl_vector.h ****  * Permission to use, copy, modify, distribute and sell this software
  31:/Library/DaisyToolchain/0.1.3-ARM/arm/arm-none-eabi/include/c++/10.3.1/bits/stl_vector.h ****  * and its documentation for any purpose is hereby granted without fee,
  32:/Library/DaisyToolchain/0.1.3-ARM/arm/arm-none-eabi/include/c++/10.3.1/bits/stl_vector.h ****  * provided that the above copyright notice appear in all copies and
  33:/Library/DaisyToolchain/0.1.3-ARM/arm/arm-none-eabi/include/c++/10.3.1/bits/stl_vector.h ****  * that both that copyright notice and this permission notice appear
  34:/Library/DaisyToolchain/0.1.3-ARM/arm/arm-none-eabi/include/c++/10.3.1/bits/stl_vector.h ****  * in supporting documentation.  Hewlett-Packard Company makes no
  35:/Library/DaisyToolchain/0.1.3-ARM/arm/arm-none-eabi/include/c++/10.3.1/bits/stl_vector.h ****  * representations about the suitability of this software for any
  36:/Library/DaisyToolchain/0.1.3-ARM/arm/arm-none-eabi/include/c++/10.3.1/bits/stl_vector.h ****  * purpose.  It is provided "as is" without express or implied warranty.
  37:/Library/DaisyToolchain/0.1.3-ARM/arm/arm-none-eabi/include/c++/10.3.1/bits/stl_vector.h ****  *
  38:/Library/DaisyToolchain/0.1.3-ARM/arm/arm-none-eabi/include/c++/10.3.1/bits/stl_vector.h ****  *
  39:/Library/DaisyToolchain/0.1.3-ARM/arm/arm-none-eabi/include/c++/10.3.1/bits/stl_vector.h ****  * Copyright (c) 1996
  40:/Library/DaisyToolchain/0.1.3-ARM/arm/arm-none-eabi/include/c++/10.3.1/bits/stl_vector.h ****  * Silicon Graphics Computer Systems, Inc.
  41:/Library/DaisyToolchain/0.1.3-ARM/arm/arm-none-eabi/include/c++/10.3.1/bits/stl_vector.h ****  *
  42:/Library/DaisyToolchain/0.1.3-ARM/arm/arm-none-eabi/include/c++/10.3.1/bits/stl_vector.h ****  * Permission to use, copy, modify, distribute and sell this software
  43:/Library/DaisyToolchain/0.1.3-ARM/arm/arm-none-eabi/include/c++/10.3.1/bits/stl_vector.h ****  * and its documentation for any purpose is hereby granted without fee,
  44:/Library/DaisyToolchain/0.1.3-ARM/arm/arm-none-eabi/include/c++/10.3.1/bits/stl_vector.h ****  * provided that the above copyright notice appear in all copies and
  45:/Library/DaisyToolchain/0.1.3-ARM/arm/arm-none-eabi/include/c++/10.3.1/bits/stl_vector.h ****  * that both that copyright notice and this permission notice appear
  46:/Library/DaisyToolchain/0.1.3-ARM/arm/arm-none-eabi/include/c++/10.3.1/bits/stl_vector.h ****  * in supporting documentation.  Silicon Graphics makes no
  47:/Library/DaisyToolchain/0.1.3-ARM/arm/arm-none-eabi/include/c++/10.3.1/bits/stl_vector.h ****  * representations about the suitability of this  software for any
  48:/Library/DaisyToolchain/0.1.3-ARM/arm/arm-none-eabi/include/c++/10.3.1/bits/stl_vector.h ****  * purpose.  It is provided "as is" without express or implied warranty.
  49:/Library/DaisyToolchain/0.1.3-ARM/arm/arm-none-eabi/include/c++/10.3.1/bits/stl_vector.h ****  */
  50:/Library/DaisyToolchain/0.1.3-ARM/arm/arm-none-eabi/include/c++/10.3.1/bits/stl_vector.h **** 
  51:/Library/DaisyToolchain/0.1.3-ARM/arm/arm-none-eabi/include/c++/10.3.1/bits/stl_vector.h **** /** @file bits/stl_vector.h
  52:/Library/DaisyToolchain/0.1.3-ARM/arm/arm-none-eabi/include/c++/10.3.1/bits/stl_vector.h ****  *  This is an internal header file, included by other library headers.
  53:/Library/DaisyToolchain/0.1.3-ARM/arm/arm-none-eabi/include/c++/10.3.1/bits/stl_vector.h ****  *  Do not attempt to use it directly. @headername{vector}
  54:/Library/DaisyToolchain/0.1.3-ARM/arm/arm-none-eabi/include/c++/10.3.1/bits/stl_vector.h ****  */
  55:/Library/DaisyToolchain/0.1.3-ARM/arm/arm-none-eabi/include/c++/10.3.1/bits/stl_vector.h **** 
  56:/Library/DaisyToolchain/0.1.3-ARM/arm/arm-none-eabi/include/c++/10.3.1/bits/stl_vector.h **** #ifndef _STL_VECTOR_H
  57:/Library/DaisyToolchain/0.1.3-ARM/arm/arm-none-eabi/include/c++/10.3.1/bits/stl_vector.h **** #define _STL_VECTOR_H 1
  58:/Library/DaisyToolchain/0.1.3-ARM/arm/arm-none-eabi/include/c++/10.3.1/bits/stl_vector.h **** 
  59:/Library/DaisyToolchain/0.1.3-ARM/arm/arm-none-eabi/include/c++/10.3.1/bits/stl_vector.h **** #include <bits/stl_iterator_base_funcs.h>
  60:/Library/DaisyToolchain/0.1.3-ARM/arm/arm-none-eabi/include/c++/10.3.1/bits/stl_vector.h **** #include <bits/functexcept.h>
  61:/Library/DaisyToolchain/0.1.3-ARM/arm/arm-none-eabi/include/c++/10.3.1/bits/stl_vector.h **** #include <bits/concept_check.h>
  62:/Library/DaisyToolchain/0.1.3-ARM/arm/arm-none-eabi/include/c++/10.3.1/bits/stl_vector.h **** #if __cplusplus >= 201103L
  63:/Library/DaisyToolchain/0.1.3-ARM/arm/arm-none-eabi/include/c++/10.3.1/bits/stl_vector.h **** #include <initializer_list>
  64:/Library/DaisyToolchain/0.1.3-ARM/arm/arm-none-eabi/include/c++/10.3.1/bits/stl_vector.h **** #endif
  65:/Library/DaisyToolchain/0.1.3-ARM/arm/arm-none-eabi/include/c++/10.3.1/bits/stl_vector.h **** #if __cplusplus > 201703L
  66:/Library/DaisyToolchain/0.1.3-ARM/arm/arm-none-eabi/include/c++/10.3.1/bits/stl_vector.h **** # include <compare>
  67:/Library/DaisyToolchain/0.1.3-ARM/arm/arm-none-eabi/include/c++/10.3.1/bits/stl_vector.h **** #endif
  68:/Library/DaisyToolchain/0.1.3-ARM/arm/arm-none-eabi/include/c++/10.3.1/bits/stl_vector.h **** 
  69:/Library/DaisyToolchain/0.1.3-ARM/arm/arm-none-eabi/include/c++/10.3.1/bits/stl_vector.h **** #include <debug/assertions.h>
  70:/Library/DaisyToolchain/0.1.3-ARM/arm/arm-none-eabi/include/c++/10.3.1/bits/stl_vector.h **** 
  71:/Library/DaisyToolchain/0.1.3-ARM/arm/arm-none-eabi/include/c++/10.3.1/bits/stl_vector.h **** #if _GLIBCXX_SANITIZE_STD_ALLOCATOR && _GLIBCXX_SANITIZE_VECTOR
  72:/Library/DaisyToolchain/0.1.3-ARM/arm/arm-none-eabi/include/c++/10.3.1/bits/stl_vector.h **** extern "C" void
  73:/Library/DaisyToolchain/0.1.3-ARM/arm/arm-none-eabi/include/c++/10.3.1/bits/stl_vector.h **** __sanitizer_annotate_contiguous_container(const void*, const void*,
  74:/Library/DaisyToolchain/0.1.3-ARM/arm/arm-none-eabi/include/c++/10.3.1/bits/stl_vector.h **** 					  const void*, const void*);
  75:/Library/DaisyToolchain/0.1.3-ARM/arm/arm-none-eabi/include/c++/10.3.1/bits/stl_vector.h **** #endif
  76:/Library/DaisyToolchain/0.1.3-ARM/arm/arm-none-eabi/include/c++/10.3.1/bits/stl_vector.h **** 
  77:/Library/DaisyToolchain/0.1.3-ARM/arm/arm-none-eabi/include/c++/10.3.1/bits/stl_vector.h **** namespace std _GLIBCXX_VISIBILITY(default)
  78:/Library/DaisyToolchain/0.1.3-ARM/arm/arm-none-eabi/include/c++/10.3.1/bits/stl_vector.h **** {
  79:/Library/DaisyToolchain/0.1.3-ARM/arm/arm-none-eabi/include/c++/10.3.1/bits/stl_vector.h **** _GLIBCXX_BEGIN_NAMESPACE_VERSION
  80:/Library/DaisyToolchain/0.1.3-ARM/arm/arm-none-eabi/include/c++/10.3.1/bits/stl_vector.h **** _GLIBCXX_BEGIN_NAMESPACE_CONTAINER
ARM GAS  /var/folders/xd/16jvbr6j24q9nvtpm0qtw3240000gn/T//cch9jPA2.s 			page 92


  81:/Library/DaisyToolchain/0.1.3-ARM/arm/arm-none-eabi/include/c++/10.3.1/bits/stl_vector.h **** 
  82:/Library/DaisyToolchain/0.1.3-ARM/arm/arm-none-eabi/include/c++/10.3.1/bits/stl_vector.h ****   /// See bits/stl_deque.h's _Deque_base for an explanation.
  83:/Library/DaisyToolchain/0.1.3-ARM/arm/arm-none-eabi/include/c++/10.3.1/bits/stl_vector.h ****   template<typename _Tp, typename _Alloc>
  84:/Library/DaisyToolchain/0.1.3-ARM/arm/arm-none-eabi/include/c++/10.3.1/bits/stl_vector.h ****     struct _Vector_base
  85:/Library/DaisyToolchain/0.1.3-ARM/arm/arm-none-eabi/include/c++/10.3.1/bits/stl_vector.h ****     {
  86:/Library/DaisyToolchain/0.1.3-ARM/arm/arm-none-eabi/include/c++/10.3.1/bits/stl_vector.h ****       typedef typename __gnu_cxx::__alloc_traits<_Alloc>::template
  87:/Library/DaisyToolchain/0.1.3-ARM/arm/arm-none-eabi/include/c++/10.3.1/bits/stl_vector.h **** 	rebind<_Tp>::other _Tp_alloc_type;
  88:/Library/DaisyToolchain/0.1.3-ARM/arm/arm-none-eabi/include/c++/10.3.1/bits/stl_vector.h ****       typedef typename __gnu_cxx::__alloc_traits<_Tp_alloc_type>::pointer
  89:/Library/DaisyToolchain/0.1.3-ARM/arm/arm-none-eabi/include/c++/10.3.1/bits/stl_vector.h ****        	pointer;
  90:/Library/DaisyToolchain/0.1.3-ARM/arm/arm-none-eabi/include/c++/10.3.1/bits/stl_vector.h **** 
  91:/Library/DaisyToolchain/0.1.3-ARM/arm/arm-none-eabi/include/c++/10.3.1/bits/stl_vector.h ****       struct _Vector_impl_data
  92:/Library/DaisyToolchain/0.1.3-ARM/arm/arm-none-eabi/include/c++/10.3.1/bits/stl_vector.h ****       {
  93:/Library/DaisyToolchain/0.1.3-ARM/arm/arm-none-eabi/include/c++/10.3.1/bits/stl_vector.h **** 	pointer _M_start;
  94:/Library/DaisyToolchain/0.1.3-ARM/arm/arm-none-eabi/include/c++/10.3.1/bits/stl_vector.h **** 	pointer _M_finish;
  95:/Library/DaisyToolchain/0.1.3-ARM/arm/arm-none-eabi/include/c++/10.3.1/bits/stl_vector.h **** 	pointer _M_end_of_storage;
  96:/Library/DaisyToolchain/0.1.3-ARM/arm/arm-none-eabi/include/c++/10.3.1/bits/stl_vector.h **** 
  97:/Library/DaisyToolchain/0.1.3-ARM/arm/arm-none-eabi/include/c++/10.3.1/bits/stl_vector.h **** 	_Vector_impl_data() _GLIBCXX_NOEXCEPT
  98:/Library/DaisyToolchain/0.1.3-ARM/arm/arm-none-eabi/include/c++/10.3.1/bits/stl_vector.h **** 	: _M_start(), _M_finish(), _M_end_of_storage()
  99:/Library/DaisyToolchain/0.1.3-ARM/arm/arm-none-eabi/include/c++/10.3.1/bits/stl_vector.h **** 	{ }
 100:/Library/DaisyToolchain/0.1.3-ARM/arm/arm-none-eabi/include/c++/10.3.1/bits/stl_vector.h **** 
 101:/Library/DaisyToolchain/0.1.3-ARM/arm/arm-none-eabi/include/c++/10.3.1/bits/stl_vector.h **** #if __cplusplus >= 201103L
 102:/Library/DaisyToolchain/0.1.3-ARM/arm/arm-none-eabi/include/c++/10.3.1/bits/stl_vector.h **** 	_Vector_impl_data(_Vector_impl_data&& __x) noexcept
 103:/Library/DaisyToolchain/0.1.3-ARM/arm/arm-none-eabi/include/c++/10.3.1/bits/stl_vector.h **** 	: _M_start(__x._M_start), _M_finish(__x._M_finish),
 104:/Library/DaisyToolchain/0.1.3-ARM/arm/arm-none-eabi/include/c++/10.3.1/bits/stl_vector.h **** 	  _M_end_of_storage(__x._M_end_of_storage)
 105:/Library/DaisyToolchain/0.1.3-ARM/arm/arm-none-eabi/include/c++/10.3.1/bits/stl_vector.h **** 	{ __x._M_start = __x._M_finish = __x._M_end_of_storage = pointer(); }
 106:/Library/DaisyToolchain/0.1.3-ARM/arm/arm-none-eabi/include/c++/10.3.1/bits/stl_vector.h **** #endif
 107:/Library/DaisyToolchain/0.1.3-ARM/arm/arm-none-eabi/include/c++/10.3.1/bits/stl_vector.h **** 
 108:/Library/DaisyToolchain/0.1.3-ARM/arm/arm-none-eabi/include/c++/10.3.1/bits/stl_vector.h **** 	void
 109:/Library/DaisyToolchain/0.1.3-ARM/arm/arm-none-eabi/include/c++/10.3.1/bits/stl_vector.h **** 	_M_copy_data(_Vector_impl_data const& __x) _GLIBCXX_NOEXCEPT
 110:/Library/DaisyToolchain/0.1.3-ARM/arm/arm-none-eabi/include/c++/10.3.1/bits/stl_vector.h **** 	{
 111:/Library/DaisyToolchain/0.1.3-ARM/arm/arm-none-eabi/include/c++/10.3.1/bits/stl_vector.h **** 	  _M_start = __x._M_start;
 112:/Library/DaisyToolchain/0.1.3-ARM/arm/arm-none-eabi/include/c++/10.3.1/bits/stl_vector.h **** 	  _M_finish = __x._M_finish;
 113:/Library/DaisyToolchain/0.1.3-ARM/arm/arm-none-eabi/include/c++/10.3.1/bits/stl_vector.h **** 	  _M_end_of_storage = __x._M_end_of_storage;
 114:/Library/DaisyToolchain/0.1.3-ARM/arm/arm-none-eabi/include/c++/10.3.1/bits/stl_vector.h **** 	}
 115:/Library/DaisyToolchain/0.1.3-ARM/arm/arm-none-eabi/include/c++/10.3.1/bits/stl_vector.h **** 
 116:/Library/DaisyToolchain/0.1.3-ARM/arm/arm-none-eabi/include/c++/10.3.1/bits/stl_vector.h **** 	void
 117:/Library/DaisyToolchain/0.1.3-ARM/arm/arm-none-eabi/include/c++/10.3.1/bits/stl_vector.h **** 	_M_swap_data(_Vector_impl_data& __x) _GLIBCXX_NOEXCEPT
 118:/Library/DaisyToolchain/0.1.3-ARM/arm/arm-none-eabi/include/c++/10.3.1/bits/stl_vector.h **** 	{
 119:/Library/DaisyToolchain/0.1.3-ARM/arm/arm-none-eabi/include/c++/10.3.1/bits/stl_vector.h **** 	  // Do not use std::swap(_M_start, __x._M_start), etc as it loses
 120:/Library/DaisyToolchain/0.1.3-ARM/arm/arm-none-eabi/include/c++/10.3.1/bits/stl_vector.h **** 	  // information used by TBAA.
 121:/Library/DaisyToolchain/0.1.3-ARM/arm/arm-none-eabi/include/c++/10.3.1/bits/stl_vector.h **** 	  _Vector_impl_data __tmp;
 122:/Library/DaisyToolchain/0.1.3-ARM/arm/arm-none-eabi/include/c++/10.3.1/bits/stl_vector.h **** 	  __tmp._M_copy_data(*this);
 123:/Library/DaisyToolchain/0.1.3-ARM/arm/arm-none-eabi/include/c++/10.3.1/bits/stl_vector.h **** 	  _M_copy_data(__x);
 124:/Library/DaisyToolchain/0.1.3-ARM/arm/arm-none-eabi/include/c++/10.3.1/bits/stl_vector.h **** 	  __x._M_copy_data(__tmp);
 125:/Library/DaisyToolchain/0.1.3-ARM/arm/arm-none-eabi/include/c++/10.3.1/bits/stl_vector.h **** 	}
 126:/Library/DaisyToolchain/0.1.3-ARM/arm/arm-none-eabi/include/c++/10.3.1/bits/stl_vector.h ****       };
 127:/Library/DaisyToolchain/0.1.3-ARM/arm/arm-none-eabi/include/c++/10.3.1/bits/stl_vector.h **** 
 128:/Library/DaisyToolchain/0.1.3-ARM/arm/arm-none-eabi/include/c++/10.3.1/bits/stl_vector.h ****       struct _Vector_impl
 129:/Library/DaisyToolchain/0.1.3-ARM/arm/arm-none-eabi/include/c++/10.3.1/bits/stl_vector.h **** 	: public _Tp_alloc_type, public _Vector_impl_data
 130:/Library/DaisyToolchain/0.1.3-ARM/arm/arm-none-eabi/include/c++/10.3.1/bits/stl_vector.h ****       {
 131:/Library/DaisyToolchain/0.1.3-ARM/arm/arm-none-eabi/include/c++/10.3.1/bits/stl_vector.h **** 	_Vector_impl() _GLIBCXX_NOEXCEPT_IF(
 132:/Library/DaisyToolchain/0.1.3-ARM/arm/arm-none-eabi/include/c++/10.3.1/bits/stl_vector.h **** 	    is_nothrow_default_constructible<_Tp_alloc_type>::value)
 133:/Library/DaisyToolchain/0.1.3-ARM/arm/arm-none-eabi/include/c++/10.3.1/bits/stl_vector.h **** 	: _Tp_alloc_type()
 134:/Library/DaisyToolchain/0.1.3-ARM/arm/arm-none-eabi/include/c++/10.3.1/bits/stl_vector.h **** 	{ }
 135:/Library/DaisyToolchain/0.1.3-ARM/arm/arm-none-eabi/include/c++/10.3.1/bits/stl_vector.h **** 
 136:/Library/DaisyToolchain/0.1.3-ARM/arm/arm-none-eabi/include/c++/10.3.1/bits/stl_vector.h **** 	_Vector_impl(_Tp_alloc_type const& __a) _GLIBCXX_NOEXCEPT
 137:/Library/DaisyToolchain/0.1.3-ARM/arm/arm-none-eabi/include/c++/10.3.1/bits/stl_vector.h **** 	: _Tp_alloc_type(__a)
ARM GAS  /var/folders/xd/16jvbr6j24q9nvtpm0qtw3240000gn/T//cch9jPA2.s 			page 93


 138:/Library/DaisyToolchain/0.1.3-ARM/arm/arm-none-eabi/include/c++/10.3.1/bits/stl_vector.h **** 	{ }
 139:/Library/DaisyToolchain/0.1.3-ARM/arm/arm-none-eabi/include/c++/10.3.1/bits/stl_vector.h **** 
 140:/Library/DaisyToolchain/0.1.3-ARM/arm/arm-none-eabi/include/c++/10.3.1/bits/stl_vector.h **** #if __cplusplus >= 201103L
 141:/Library/DaisyToolchain/0.1.3-ARM/arm/arm-none-eabi/include/c++/10.3.1/bits/stl_vector.h **** 	// Not defaulted, to enforce noexcept(true) even when
 142:/Library/DaisyToolchain/0.1.3-ARM/arm/arm-none-eabi/include/c++/10.3.1/bits/stl_vector.h **** 	// !is_nothrow_move_constructible<_Tp_alloc_type>.
 143:/Library/DaisyToolchain/0.1.3-ARM/arm/arm-none-eabi/include/c++/10.3.1/bits/stl_vector.h **** 	_Vector_impl(_Vector_impl&& __x) noexcept
 144:/Library/DaisyToolchain/0.1.3-ARM/arm/arm-none-eabi/include/c++/10.3.1/bits/stl_vector.h **** 	: _Tp_alloc_type(std::move(__x)), _Vector_impl_data(std::move(__x))
 145:/Library/DaisyToolchain/0.1.3-ARM/arm/arm-none-eabi/include/c++/10.3.1/bits/stl_vector.h **** 	{ }
 146:/Library/DaisyToolchain/0.1.3-ARM/arm/arm-none-eabi/include/c++/10.3.1/bits/stl_vector.h **** 
 147:/Library/DaisyToolchain/0.1.3-ARM/arm/arm-none-eabi/include/c++/10.3.1/bits/stl_vector.h **** 	_Vector_impl(_Tp_alloc_type&& __a) noexcept
 148:/Library/DaisyToolchain/0.1.3-ARM/arm/arm-none-eabi/include/c++/10.3.1/bits/stl_vector.h **** 	: _Tp_alloc_type(std::move(__a))
 149:/Library/DaisyToolchain/0.1.3-ARM/arm/arm-none-eabi/include/c++/10.3.1/bits/stl_vector.h **** 	{ }
 150:/Library/DaisyToolchain/0.1.3-ARM/arm/arm-none-eabi/include/c++/10.3.1/bits/stl_vector.h **** 
 151:/Library/DaisyToolchain/0.1.3-ARM/arm/arm-none-eabi/include/c++/10.3.1/bits/stl_vector.h **** 	_Vector_impl(_Tp_alloc_type&& __a, _Vector_impl&& __rv) noexcept
 152:/Library/DaisyToolchain/0.1.3-ARM/arm/arm-none-eabi/include/c++/10.3.1/bits/stl_vector.h **** 	: _Tp_alloc_type(std::move(__a)), _Vector_impl_data(std::move(__rv))
 153:/Library/DaisyToolchain/0.1.3-ARM/arm/arm-none-eabi/include/c++/10.3.1/bits/stl_vector.h **** 	{ }
 154:/Library/DaisyToolchain/0.1.3-ARM/arm/arm-none-eabi/include/c++/10.3.1/bits/stl_vector.h **** #endif
 155:/Library/DaisyToolchain/0.1.3-ARM/arm/arm-none-eabi/include/c++/10.3.1/bits/stl_vector.h **** 
 156:/Library/DaisyToolchain/0.1.3-ARM/arm/arm-none-eabi/include/c++/10.3.1/bits/stl_vector.h **** #if _GLIBCXX_SANITIZE_STD_ALLOCATOR && _GLIBCXX_SANITIZE_VECTOR
 157:/Library/DaisyToolchain/0.1.3-ARM/arm/arm-none-eabi/include/c++/10.3.1/bits/stl_vector.h **** 	template<typename = _Tp_alloc_type>
 158:/Library/DaisyToolchain/0.1.3-ARM/arm/arm-none-eabi/include/c++/10.3.1/bits/stl_vector.h **** 	  struct _Asan
 159:/Library/DaisyToolchain/0.1.3-ARM/arm/arm-none-eabi/include/c++/10.3.1/bits/stl_vector.h **** 	  {
 160:/Library/DaisyToolchain/0.1.3-ARM/arm/arm-none-eabi/include/c++/10.3.1/bits/stl_vector.h **** 	    typedef typename __gnu_cxx::__alloc_traits<_Tp_alloc_type>
 161:/Library/DaisyToolchain/0.1.3-ARM/arm/arm-none-eabi/include/c++/10.3.1/bits/stl_vector.h **** 	      ::size_type size_type;
 162:/Library/DaisyToolchain/0.1.3-ARM/arm/arm-none-eabi/include/c++/10.3.1/bits/stl_vector.h **** 
 163:/Library/DaisyToolchain/0.1.3-ARM/arm/arm-none-eabi/include/c++/10.3.1/bits/stl_vector.h **** 	    static void _S_shrink(_Vector_impl&, size_type) { }
 164:/Library/DaisyToolchain/0.1.3-ARM/arm/arm-none-eabi/include/c++/10.3.1/bits/stl_vector.h **** 	    static void _S_on_dealloc(_Vector_impl&) { }
 165:/Library/DaisyToolchain/0.1.3-ARM/arm/arm-none-eabi/include/c++/10.3.1/bits/stl_vector.h **** 
 166:/Library/DaisyToolchain/0.1.3-ARM/arm/arm-none-eabi/include/c++/10.3.1/bits/stl_vector.h **** 	    typedef _Vector_impl& _Reinit;
 167:/Library/DaisyToolchain/0.1.3-ARM/arm/arm-none-eabi/include/c++/10.3.1/bits/stl_vector.h **** 
 168:/Library/DaisyToolchain/0.1.3-ARM/arm/arm-none-eabi/include/c++/10.3.1/bits/stl_vector.h **** 	    struct _Grow
 169:/Library/DaisyToolchain/0.1.3-ARM/arm/arm-none-eabi/include/c++/10.3.1/bits/stl_vector.h **** 	    {
 170:/Library/DaisyToolchain/0.1.3-ARM/arm/arm-none-eabi/include/c++/10.3.1/bits/stl_vector.h **** 	      _Grow(_Vector_impl&, size_type) { }
 171:/Library/DaisyToolchain/0.1.3-ARM/arm/arm-none-eabi/include/c++/10.3.1/bits/stl_vector.h **** 	      void _M_grew(size_type) { }
 172:/Library/DaisyToolchain/0.1.3-ARM/arm/arm-none-eabi/include/c++/10.3.1/bits/stl_vector.h **** 	    };
 173:/Library/DaisyToolchain/0.1.3-ARM/arm/arm-none-eabi/include/c++/10.3.1/bits/stl_vector.h **** 	  };
 174:/Library/DaisyToolchain/0.1.3-ARM/arm/arm-none-eabi/include/c++/10.3.1/bits/stl_vector.h **** 
 175:/Library/DaisyToolchain/0.1.3-ARM/arm/arm-none-eabi/include/c++/10.3.1/bits/stl_vector.h **** 	// Enable ASan annotations for memory obtained from std::allocator.
 176:/Library/DaisyToolchain/0.1.3-ARM/arm/arm-none-eabi/include/c++/10.3.1/bits/stl_vector.h **** 	template<typename _Up>
 177:/Library/DaisyToolchain/0.1.3-ARM/arm/arm-none-eabi/include/c++/10.3.1/bits/stl_vector.h **** 	  struct _Asan<allocator<_Up> >
 178:/Library/DaisyToolchain/0.1.3-ARM/arm/arm-none-eabi/include/c++/10.3.1/bits/stl_vector.h **** 	  {
 179:/Library/DaisyToolchain/0.1.3-ARM/arm/arm-none-eabi/include/c++/10.3.1/bits/stl_vector.h **** 	    typedef typename __gnu_cxx::__alloc_traits<_Tp_alloc_type>
 180:/Library/DaisyToolchain/0.1.3-ARM/arm/arm-none-eabi/include/c++/10.3.1/bits/stl_vector.h **** 	      ::size_type size_type;
 181:/Library/DaisyToolchain/0.1.3-ARM/arm/arm-none-eabi/include/c++/10.3.1/bits/stl_vector.h **** 
 182:/Library/DaisyToolchain/0.1.3-ARM/arm/arm-none-eabi/include/c++/10.3.1/bits/stl_vector.h **** 	    // Adjust ASan annotation for [_M_start, _M_end_of_storage) to
 183:/Library/DaisyToolchain/0.1.3-ARM/arm/arm-none-eabi/include/c++/10.3.1/bits/stl_vector.h **** 	    // mark end of valid region as __curr instead of __prev.
 184:/Library/DaisyToolchain/0.1.3-ARM/arm/arm-none-eabi/include/c++/10.3.1/bits/stl_vector.h **** 	    static void
 185:/Library/DaisyToolchain/0.1.3-ARM/arm/arm-none-eabi/include/c++/10.3.1/bits/stl_vector.h **** 	    _S_adjust(_Vector_impl& __impl, pointer __prev, pointer __curr)
 186:/Library/DaisyToolchain/0.1.3-ARM/arm/arm-none-eabi/include/c++/10.3.1/bits/stl_vector.h **** 	    {
 187:/Library/DaisyToolchain/0.1.3-ARM/arm/arm-none-eabi/include/c++/10.3.1/bits/stl_vector.h **** 	      __sanitizer_annotate_contiguous_container(__impl._M_start,
 188:/Library/DaisyToolchain/0.1.3-ARM/arm/arm-none-eabi/include/c++/10.3.1/bits/stl_vector.h **** 		  __impl._M_end_of_storage, __prev, __curr);
 189:/Library/DaisyToolchain/0.1.3-ARM/arm/arm-none-eabi/include/c++/10.3.1/bits/stl_vector.h **** 	    }
 190:/Library/DaisyToolchain/0.1.3-ARM/arm/arm-none-eabi/include/c++/10.3.1/bits/stl_vector.h **** 
 191:/Library/DaisyToolchain/0.1.3-ARM/arm/arm-none-eabi/include/c++/10.3.1/bits/stl_vector.h **** 	    static void
 192:/Library/DaisyToolchain/0.1.3-ARM/arm/arm-none-eabi/include/c++/10.3.1/bits/stl_vector.h **** 	    _S_grow(_Vector_impl& __impl, size_type __n)
 193:/Library/DaisyToolchain/0.1.3-ARM/arm/arm-none-eabi/include/c++/10.3.1/bits/stl_vector.h **** 	    { _S_adjust(__impl, __impl._M_finish, __impl._M_finish + __n); }
 194:/Library/DaisyToolchain/0.1.3-ARM/arm/arm-none-eabi/include/c++/10.3.1/bits/stl_vector.h **** 
ARM GAS  /var/folders/xd/16jvbr6j24q9nvtpm0qtw3240000gn/T//cch9jPA2.s 			page 94


 195:/Library/DaisyToolchain/0.1.3-ARM/arm/arm-none-eabi/include/c++/10.3.1/bits/stl_vector.h **** 	    static void
 196:/Library/DaisyToolchain/0.1.3-ARM/arm/arm-none-eabi/include/c++/10.3.1/bits/stl_vector.h **** 	    _S_shrink(_Vector_impl& __impl, size_type __n)
 197:/Library/DaisyToolchain/0.1.3-ARM/arm/arm-none-eabi/include/c++/10.3.1/bits/stl_vector.h **** 	    { _S_adjust(__impl, __impl._M_finish + __n, __impl._M_finish); }
 198:/Library/DaisyToolchain/0.1.3-ARM/arm/arm-none-eabi/include/c++/10.3.1/bits/stl_vector.h **** 
 199:/Library/DaisyToolchain/0.1.3-ARM/arm/arm-none-eabi/include/c++/10.3.1/bits/stl_vector.h **** 	    static void
 200:/Library/DaisyToolchain/0.1.3-ARM/arm/arm-none-eabi/include/c++/10.3.1/bits/stl_vector.h **** 	    _S_on_dealloc(_Vector_impl& __impl)
 201:/Library/DaisyToolchain/0.1.3-ARM/arm/arm-none-eabi/include/c++/10.3.1/bits/stl_vector.h **** 	    {
 202:/Library/DaisyToolchain/0.1.3-ARM/arm/arm-none-eabi/include/c++/10.3.1/bits/stl_vector.h **** 	      if (__impl._M_start)
 203:/Library/DaisyToolchain/0.1.3-ARM/arm/arm-none-eabi/include/c++/10.3.1/bits/stl_vector.h **** 		_S_adjust(__impl, __impl._M_finish, __impl._M_end_of_storage);
 204:/Library/DaisyToolchain/0.1.3-ARM/arm/arm-none-eabi/include/c++/10.3.1/bits/stl_vector.h **** 	    }
 205:/Library/DaisyToolchain/0.1.3-ARM/arm/arm-none-eabi/include/c++/10.3.1/bits/stl_vector.h **** 
 206:/Library/DaisyToolchain/0.1.3-ARM/arm/arm-none-eabi/include/c++/10.3.1/bits/stl_vector.h **** 	    // Used on reallocation to tell ASan unused capacity is invalid.
 207:/Library/DaisyToolchain/0.1.3-ARM/arm/arm-none-eabi/include/c++/10.3.1/bits/stl_vector.h **** 	    struct _Reinit
 208:/Library/DaisyToolchain/0.1.3-ARM/arm/arm-none-eabi/include/c++/10.3.1/bits/stl_vector.h **** 	    {
 209:/Library/DaisyToolchain/0.1.3-ARM/arm/arm-none-eabi/include/c++/10.3.1/bits/stl_vector.h **** 	      explicit _Reinit(_Vector_impl& __impl) : _M_impl(__impl)
 210:/Library/DaisyToolchain/0.1.3-ARM/arm/arm-none-eabi/include/c++/10.3.1/bits/stl_vector.h **** 	      {
 211:/Library/DaisyToolchain/0.1.3-ARM/arm/arm-none-eabi/include/c++/10.3.1/bits/stl_vector.h **** 		// Mark unused capacity as valid again before deallocating it.
 212:/Library/DaisyToolchain/0.1.3-ARM/arm/arm-none-eabi/include/c++/10.3.1/bits/stl_vector.h **** 		_S_on_dealloc(_M_impl);
 213:/Library/DaisyToolchain/0.1.3-ARM/arm/arm-none-eabi/include/c++/10.3.1/bits/stl_vector.h **** 	      }
 214:/Library/DaisyToolchain/0.1.3-ARM/arm/arm-none-eabi/include/c++/10.3.1/bits/stl_vector.h **** 
 215:/Library/DaisyToolchain/0.1.3-ARM/arm/arm-none-eabi/include/c++/10.3.1/bits/stl_vector.h **** 	      ~_Reinit()
 216:/Library/DaisyToolchain/0.1.3-ARM/arm/arm-none-eabi/include/c++/10.3.1/bits/stl_vector.h **** 	      {
 217:/Library/DaisyToolchain/0.1.3-ARM/arm/arm-none-eabi/include/c++/10.3.1/bits/stl_vector.h **** 		// Mark unused capacity as invalid after reallocation.
 218:/Library/DaisyToolchain/0.1.3-ARM/arm/arm-none-eabi/include/c++/10.3.1/bits/stl_vector.h **** 		if (_M_impl._M_start)
 219:/Library/DaisyToolchain/0.1.3-ARM/arm/arm-none-eabi/include/c++/10.3.1/bits/stl_vector.h **** 		  _S_adjust(_M_impl, _M_impl._M_end_of_storage,
 220:/Library/DaisyToolchain/0.1.3-ARM/arm/arm-none-eabi/include/c++/10.3.1/bits/stl_vector.h **** 			    _M_impl._M_finish);
 221:/Library/DaisyToolchain/0.1.3-ARM/arm/arm-none-eabi/include/c++/10.3.1/bits/stl_vector.h **** 	      }
 222:/Library/DaisyToolchain/0.1.3-ARM/arm/arm-none-eabi/include/c++/10.3.1/bits/stl_vector.h **** 
 223:/Library/DaisyToolchain/0.1.3-ARM/arm/arm-none-eabi/include/c++/10.3.1/bits/stl_vector.h **** 	      _Vector_impl& _M_impl;
 224:/Library/DaisyToolchain/0.1.3-ARM/arm/arm-none-eabi/include/c++/10.3.1/bits/stl_vector.h **** 
 225:/Library/DaisyToolchain/0.1.3-ARM/arm/arm-none-eabi/include/c++/10.3.1/bits/stl_vector.h **** #if __cplusplus >= 201103L
 226:/Library/DaisyToolchain/0.1.3-ARM/arm/arm-none-eabi/include/c++/10.3.1/bits/stl_vector.h **** 	      _Reinit(const _Reinit&) = delete;
 227:/Library/DaisyToolchain/0.1.3-ARM/arm/arm-none-eabi/include/c++/10.3.1/bits/stl_vector.h **** 	      _Reinit& operator=(const _Reinit&) = delete;
 228:/Library/DaisyToolchain/0.1.3-ARM/arm/arm-none-eabi/include/c++/10.3.1/bits/stl_vector.h **** #endif
 229:/Library/DaisyToolchain/0.1.3-ARM/arm/arm-none-eabi/include/c++/10.3.1/bits/stl_vector.h **** 	    };
 230:/Library/DaisyToolchain/0.1.3-ARM/arm/arm-none-eabi/include/c++/10.3.1/bits/stl_vector.h **** 
 231:/Library/DaisyToolchain/0.1.3-ARM/arm/arm-none-eabi/include/c++/10.3.1/bits/stl_vector.h **** 	    // Tell ASan when unused capacity is initialized to be valid.
 232:/Library/DaisyToolchain/0.1.3-ARM/arm/arm-none-eabi/include/c++/10.3.1/bits/stl_vector.h **** 	    struct _Grow
 233:/Library/DaisyToolchain/0.1.3-ARM/arm/arm-none-eabi/include/c++/10.3.1/bits/stl_vector.h **** 	    {
 234:/Library/DaisyToolchain/0.1.3-ARM/arm/arm-none-eabi/include/c++/10.3.1/bits/stl_vector.h **** 	      _Grow(_Vector_impl& __impl, size_type __n)
 235:/Library/DaisyToolchain/0.1.3-ARM/arm/arm-none-eabi/include/c++/10.3.1/bits/stl_vector.h **** 	      : _M_impl(__impl), _M_n(__n)
 236:/Library/DaisyToolchain/0.1.3-ARM/arm/arm-none-eabi/include/c++/10.3.1/bits/stl_vector.h **** 	      { _S_grow(_M_impl, __n); }
 237:/Library/DaisyToolchain/0.1.3-ARM/arm/arm-none-eabi/include/c++/10.3.1/bits/stl_vector.h **** 
 238:/Library/DaisyToolchain/0.1.3-ARM/arm/arm-none-eabi/include/c++/10.3.1/bits/stl_vector.h **** 	      ~_Grow() { if (_M_n) _S_shrink(_M_impl, _M_n); }
 239:/Library/DaisyToolchain/0.1.3-ARM/arm/arm-none-eabi/include/c++/10.3.1/bits/stl_vector.h **** 
 240:/Library/DaisyToolchain/0.1.3-ARM/arm/arm-none-eabi/include/c++/10.3.1/bits/stl_vector.h **** 	      void _M_grew(size_type __n) { _M_n -= __n; }
 241:/Library/DaisyToolchain/0.1.3-ARM/arm/arm-none-eabi/include/c++/10.3.1/bits/stl_vector.h **** 
 242:/Library/DaisyToolchain/0.1.3-ARM/arm/arm-none-eabi/include/c++/10.3.1/bits/stl_vector.h **** #if __cplusplus >= 201103L
 243:/Library/DaisyToolchain/0.1.3-ARM/arm/arm-none-eabi/include/c++/10.3.1/bits/stl_vector.h **** 	      _Grow(const _Grow&) = delete;
 244:/Library/DaisyToolchain/0.1.3-ARM/arm/arm-none-eabi/include/c++/10.3.1/bits/stl_vector.h **** 	      _Grow& operator=(const _Grow&) = delete;
 245:/Library/DaisyToolchain/0.1.3-ARM/arm/arm-none-eabi/include/c++/10.3.1/bits/stl_vector.h **** #endif
 246:/Library/DaisyToolchain/0.1.3-ARM/arm/arm-none-eabi/include/c++/10.3.1/bits/stl_vector.h **** 	    private:
 247:/Library/DaisyToolchain/0.1.3-ARM/arm/arm-none-eabi/include/c++/10.3.1/bits/stl_vector.h **** 	      _Vector_impl& _M_impl;
 248:/Library/DaisyToolchain/0.1.3-ARM/arm/arm-none-eabi/include/c++/10.3.1/bits/stl_vector.h **** 	      size_type _M_n;
 249:/Library/DaisyToolchain/0.1.3-ARM/arm/arm-none-eabi/include/c++/10.3.1/bits/stl_vector.h **** 	    };
 250:/Library/DaisyToolchain/0.1.3-ARM/arm/arm-none-eabi/include/c++/10.3.1/bits/stl_vector.h **** 	  };
 251:/Library/DaisyToolchain/0.1.3-ARM/arm/arm-none-eabi/include/c++/10.3.1/bits/stl_vector.h **** 
ARM GAS  /var/folders/xd/16jvbr6j24q9nvtpm0qtw3240000gn/T//cch9jPA2.s 			page 95


 252:/Library/DaisyToolchain/0.1.3-ARM/arm/arm-none-eabi/include/c++/10.3.1/bits/stl_vector.h **** #define _GLIBCXX_ASAN_ANNOTATE_REINIT \
 253:/Library/DaisyToolchain/0.1.3-ARM/arm/arm-none-eabi/include/c++/10.3.1/bits/stl_vector.h ****   typename _Base::_Vector_impl::template _Asan<>::_Reinit const \
 254:/Library/DaisyToolchain/0.1.3-ARM/arm/arm-none-eabi/include/c++/10.3.1/bits/stl_vector.h **** 	__attribute__((__unused__)) __reinit_guard(this->_M_impl)
 255:/Library/DaisyToolchain/0.1.3-ARM/arm/arm-none-eabi/include/c++/10.3.1/bits/stl_vector.h **** #define _GLIBCXX_ASAN_ANNOTATE_GROW(n) \
 256:/Library/DaisyToolchain/0.1.3-ARM/arm/arm-none-eabi/include/c++/10.3.1/bits/stl_vector.h ****   typename _Base::_Vector_impl::template _Asan<>::_Grow \
 257:/Library/DaisyToolchain/0.1.3-ARM/arm/arm-none-eabi/include/c++/10.3.1/bits/stl_vector.h **** 	__attribute__((__unused__)) __grow_guard(this->_M_impl, (n))
 258:/Library/DaisyToolchain/0.1.3-ARM/arm/arm-none-eabi/include/c++/10.3.1/bits/stl_vector.h **** #define _GLIBCXX_ASAN_ANNOTATE_GREW(n) __grow_guard._M_grew(n)
 259:/Library/DaisyToolchain/0.1.3-ARM/arm/arm-none-eabi/include/c++/10.3.1/bits/stl_vector.h **** #define _GLIBCXX_ASAN_ANNOTATE_SHRINK(n) \
 260:/Library/DaisyToolchain/0.1.3-ARM/arm/arm-none-eabi/include/c++/10.3.1/bits/stl_vector.h ****   _Base::_Vector_impl::template _Asan<>::_S_shrink(this->_M_impl, n)
 261:/Library/DaisyToolchain/0.1.3-ARM/arm/arm-none-eabi/include/c++/10.3.1/bits/stl_vector.h **** #define _GLIBCXX_ASAN_ANNOTATE_BEFORE_DEALLOC \
 262:/Library/DaisyToolchain/0.1.3-ARM/arm/arm-none-eabi/include/c++/10.3.1/bits/stl_vector.h ****   _Base::_Vector_impl::template _Asan<>::_S_on_dealloc(this->_M_impl)
 263:/Library/DaisyToolchain/0.1.3-ARM/arm/arm-none-eabi/include/c++/10.3.1/bits/stl_vector.h **** #else // ! (_GLIBCXX_SANITIZE_STD_ALLOCATOR && _GLIBCXX_SANITIZE_VECTOR)
 264:/Library/DaisyToolchain/0.1.3-ARM/arm/arm-none-eabi/include/c++/10.3.1/bits/stl_vector.h **** #define _GLIBCXX_ASAN_ANNOTATE_REINIT
 265:/Library/DaisyToolchain/0.1.3-ARM/arm/arm-none-eabi/include/c++/10.3.1/bits/stl_vector.h **** #define _GLIBCXX_ASAN_ANNOTATE_GROW(n)
 266:/Library/DaisyToolchain/0.1.3-ARM/arm/arm-none-eabi/include/c++/10.3.1/bits/stl_vector.h **** #define _GLIBCXX_ASAN_ANNOTATE_GREW(n)
 267:/Library/DaisyToolchain/0.1.3-ARM/arm/arm-none-eabi/include/c++/10.3.1/bits/stl_vector.h **** #define _GLIBCXX_ASAN_ANNOTATE_SHRINK(n)
 268:/Library/DaisyToolchain/0.1.3-ARM/arm/arm-none-eabi/include/c++/10.3.1/bits/stl_vector.h **** #define _GLIBCXX_ASAN_ANNOTATE_BEFORE_DEALLOC
 269:/Library/DaisyToolchain/0.1.3-ARM/arm/arm-none-eabi/include/c++/10.3.1/bits/stl_vector.h **** #endif // _GLIBCXX_SANITIZE_STD_ALLOCATOR && _GLIBCXX_SANITIZE_VECTOR
 270:/Library/DaisyToolchain/0.1.3-ARM/arm/arm-none-eabi/include/c++/10.3.1/bits/stl_vector.h ****       };
 271:/Library/DaisyToolchain/0.1.3-ARM/arm/arm-none-eabi/include/c++/10.3.1/bits/stl_vector.h **** 
 272:/Library/DaisyToolchain/0.1.3-ARM/arm/arm-none-eabi/include/c++/10.3.1/bits/stl_vector.h ****     public:
 273:/Library/DaisyToolchain/0.1.3-ARM/arm/arm-none-eabi/include/c++/10.3.1/bits/stl_vector.h ****       typedef _Alloc allocator_type;
 274:/Library/DaisyToolchain/0.1.3-ARM/arm/arm-none-eabi/include/c++/10.3.1/bits/stl_vector.h **** 
 275:/Library/DaisyToolchain/0.1.3-ARM/arm/arm-none-eabi/include/c++/10.3.1/bits/stl_vector.h ****       _Tp_alloc_type&
 276:/Library/DaisyToolchain/0.1.3-ARM/arm/arm-none-eabi/include/c++/10.3.1/bits/stl_vector.h ****       _M_get_Tp_allocator() _GLIBCXX_NOEXCEPT
 277:/Library/DaisyToolchain/0.1.3-ARM/arm/arm-none-eabi/include/c++/10.3.1/bits/stl_vector.h ****       { return this->_M_impl; }
 278:/Library/DaisyToolchain/0.1.3-ARM/arm/arm-none-eabi/include/c++/10.3.1/bits/stl_vector.h **** 
 279:/Library/DaisyToolchain/0.1.3-ARM/arm/arm-none-eabi/include/c++/10.3.1/bits/stl_vector.h ****       const _Tp_alloc_type&
 280:/Library/DaisyToolchain/0.1.3-ARM/arm/arm-none-eabi/include/c++/10.3.1/bits/stl_vector.h ****       _M_get_Tp_allocator() const _GLIBCXX_NOEXCEPT
 281:/Library/DaisyToolchain/0.1.3-ARM/arm/arm-none-eabi/include/c++/10.3.1/bits/stl_vector.h ****       { return this->_M_impl; }
 282:/Library/DaisyToolchain/0.1.3-ARM/arm/arm-none-eabi/include/c++/10.3.1/bits/stl_vector.h **** 
 283:/Library/DaisyToolchain/0.1.3-ARM/arm/arm-none-eabi/include/c++/10.3.1/bits/stl_vector.h ****       allocator_type
 284:/Library/DaisyToolchain/0.1.3-ARM/arm/arm-none-eabi/include/c++/10.3.1/bits/stl_vector.h ****       get_allocator() const _GLIBCXX_NOEXCEPT
 285:/Library/DaisyToolchain/0.1.3-ARM/arm/arm-none-eabi/include/c++/10.3.1/bits/stl_vector.h ****       { return allocator_type(_M_get_Tp_allocator()); }
 286:/Library/DaisyToolchain/0.1.3-ARM/arm/arm-none-eabi/include/c++/10.3.1/bits/stl_vector.h **** 
 287:/Library/DaisyToolchain/0.1.3-ARM/arm/arm-none-eabi/include/c++/10.3.1/bits/stl_vector.h **** #if __cplusplus >= 201103L
 288:/Library/DaisyToolchain/0.1.3-ARM/arm/arm-none-eabi/include/c++/10.3.1/bits/stl_vector.h ****       _Vector_base() = default;
 289:/Library/DaisyToolchain/0.1.3-ARM/arm/arm-none-eabi/include/c++/10.3.1/bits/stl_vector.h **** #else
 290:/Library/DaisyToolchain/0.1.3-ARM/arm/arm-none-eabi/include/c++/10.3.1/bits/stl_vector.h ****       _Vector_base() { }
 291:/Library/DaisyToolchain/0.1.3-ARM/arm/arm-none-eabi/include/c++/10.3.1/bits/stl_vector.h **** #endif
 292:/Library/DaisyToolchain/0.1.3-ARM/arm/arm-none-eabi/include/c++/10.3.1/bits/stl_vector.h **** 
 293:/Library/DaisyToolchain/0.1.3-ARM/arm/arm-none-eabi/include/c++/10.3.1/bits/stl_vector.h ****       _Vector_base(const allocator_type& __a) _GLIBCXX_NOEXCEPT
 294:/Library/DaisyToolchain/0.1.3-ARM/arm/arm-none-eabi/include/c++/10.3.1/bits/stl_vector.h ****       : _M_impl(__a) { }
 295:/Library/DaisyToolchain/0.1.3-ARM/arm/arm-none-eabi/include/c++/10.3.1/bits/stl_vector.h **** 
 296:/Library/DaisyToolchain/0.1.3-ARM/arm/arm-none-eabi/include/c++/10.3.1/bits/stl_vector.h ****       // Kept for ABI compatibility.
 297:/Library/DaisyToolchain/0.1.3-ARM/arm/arm-none-eabi/include/c++/10.3.1/bits/stl_vector.h **** #if !_GLIBCXX_INLINE_VERSION
 298:/Library/DaisyToolchain/0.1.3-ARM/arm/arm-none-eabi/include/c++/10.3.1/bits/stl_vector.h ****       _Vector_base(size_t __n)
 299:/Library/DaisyToolchain/0.1.3-ARM/arm/arm-none-eabi/include/c++/10.3.1/bits/stl_vector.h ****       : _M_impl()
 300:/Library/DaisyToolchain/0.1.3-ARM/arm/arm-none-eabi/include/c++/10.3.1/bits/stl_vector.h ****       { _M_create_storage(__n); }
 301:/Library/DaisyToolchain/0.1.3-ARM/arm/arm-none-eabi/include/c++/10.3.1/bits/stl_vector.h **** #endif
 302:/Library/DaisyToolchain/0.1.3-ARM/arm/arm-none-eabi/include/c++/10.3.1/bits/stl_vector.h **** 
 303:/Library/DaisyToolchain/0.1.3-ARM/arm/arm-none-eabi/include/c++/10.3.1/bits/stl_vector.h ****       _Vector_base(size_t __n, const allocator_type& __a)
 304:/Library/DaisyToolchain/0.1.3-ARM/arm/arm-none-eabi/include/c++/10.3.1/bits/stl_vector.h ****       : _M_impl(__a)
 305:/Library/DaisyToolchain/0.1.3-ARM/arm/arm-none-eabi/include/c++/10.3.1/bits/stl_vector.h ****       { _M_create_storage(__n); }
 306:/Library/DaisyToolchain/0.1.3-ARM/arm/arm-none-eabi/include/c++/10.3.1/bits/stl_vector.h **** 
 307:/Library/DaisyToolchain/0.1.3-ARM/arm/arm-none-eabi/include/c++/10.3.1/bits/stl_vector.h **** #if __cplusplus >= 201103L
 308:/Library/DaisyToolchain/0.1.3-ARM/arm/arm-none-eabi/include/c++/10.3.1/bits/stl_vector.h ****       _Vector_base(_Vector_base&&) = default;
ARM GAS  /var/folders/xd/16jvbr6j24q9nvtpm0qtw3240000gn/T//cch9jPA2.s 			page 96


 309:/Library/DaisyToolchain/0.1.3-ARM/arm/arm-none-eabi/include/c++/10.3.1/bits/stl_vector.h **** 
 310:/Library/DaisyToolchain/0.1.3-ARM/arm/arm-none-eabi/include/c++/10.3.1/bits/stl_vector.h ****       // Kept for ABI compatibility.
 311:/Library/DaisyToolchain/0.1.3-ARM/arm/arm-none-eabi/include/c++/10.3.1/bits/stl_vector.h **** # if !_GLIBCXX_INLINE_VERSION
 312:/Library/DaisyToolchain/0.1.3-ARM/arm/arm-none-eabi/include/c++/10.3.1/bits/stl_vector.h ****       _Vector_base(_Tp_alloc_type&& __a) noexcept
 313:/Library/DaisyToolchain/0.1.3-ARM/arm/arm-none-eabi/include/c++/10.3.1/bits/stl_vector.h ****       : _M_impl(std::move(__a)) { }
 314:/Library/DaisyToolchain/0.1.3-ARM/arm/arm-none-eabi/include/c++/10.3.1/bits/stl_vector.h **** 
 315:/Library/DaisyToolchain/0.1.3-ARM/arm/arm-none-eabi/include/c++/10.3.1/bits/stl_vector.h ****       _Vector_base(_Vector_base&& __x, const allocator_type& __a)
 316:/Library/DaisyToolchain/0.1.3-ARM/arm/arm-none-eabi/include/c++/10.3.1/bits/stl_vector.h ****       : _M_impl(__a)
 317:/Library/DaisyToolchain/0.1.3-ARM/arm/arm-none-eabi/include/c++/10.3.1/bits/stl_vector.h ****       {
 318:/Library/DaisyToolchain/0.1.3-ARM/arm/arm-none-eabi/include/c++/10.3.1/bits/stl_vector.h **** 	if (__x.get_allocator() == __a)
 319:/Library/DaisyToolchain/0.1.3-ARM/arm/arm-none-eabi/include/c++/10.3.1/bits/stl_vector.h **** 	  this->_M_impl._M_swap_data(__x._M_impl);
 320:/Library/DaisyToolchain/0.1.3-ARM/arm/arm-none-eabi/include/c++/10.3.1/bits/stl_vector.h **** 	else
 321:/Library/DaisyToolchain/0.1.3-ARM/arm/arm-none-eabi/include/c++/10.3.1/bits/stl_vector.h **** 	  {
 322:/Library/DaisyToolchain/0.1.3-ARM/arm/arm-none-eabi/include/c++/10.3.1/bits/stl_vector.h **** 	    size_t __n = __x._M_impl._M_finish - __x._M_impl._M_start;
 323:/Library/DaisyToolchain/0.1.3-ARM/arm/arm-none-eabi/include/c++/10.3.1/bits/stl_vector.h **** 	    _M_create_storage(__n);
 324:/Library/DaisyToolchain/0.1.3-ARM/arm/arm-none-eabi/include/c++/10.3.1/bits/stl_vector.h **** 	  }
 325:/Library/DaisyToolchain/0.1.3-ARM/arm/arm-none-eabi/include/c++/10.3.1/bits/stl_vector.h ****       }
 326:/Library/DaisyToolchain/0.1.3-ARM/arm/arm-none-eabi/include/c++/10.3.1/bits/stl_vector.h **** # endif
 327:/Library/DaisyToolchain/0.1.3-ARM/arm/arm-none-eabi/include/c++/10.3.1/bits/stl_vector.h **** 
 328:/Library/DaisyToolchain/0.1.3-ARM/arm/arm-none-eabi/include/c++/10.3.1/bits/stl_vector.h ****       _Vector_base(const allocator_type& __a, _Vector_base&& __x)
 329:/Library/DaisyToolchain/0.1.3-ARM/arm/arm-none-eabi/include/c++/10.3.1/bits/stl_vector.h ****       : _M_impl(_Tp_alloc_type(__a), std::move(__x._M_impl))
 330:/Library/DaisyToolchain/0.1.3-ARM/arm/arm-none-eabi/include/c++/10.3.1/bits/stl_vector.h ****       { }
 331:/Library/DaisyToolchain/0.1.3-ARM/arm/arm-none-eabi/include/c++/10.3.1/bits/stl_vector.h **** #endif
 332:/Library/DaisyToolchain/0.1.3-ARM/arm/arm-none-eabi/include/c++/10.3.1/bits/stl_vector.h **** 
 333:/Library/DaisyToolchain/0.1.3-ARM/arm/arm-none-eabi/include/c++/10.3.1/bits/stl_vector.h ****       ~_Vector_base() _GLIBCXX_NOEXCEPT
 334:/Library/DaisyToolchain/0.1.3-ARM/arm/arm-none-eabi/include/c++/10.3.1/bits/stl_vector.h ****       {
 335:/Library/DaisyToolchain/0.1.3-ARM/arm/arm-none-eabi/include/c++/10.3.1/bits/stl_vector.h **** 	_M_deallocate(_M_impl._M_start,
 336:/Library/DaisyToolchain/0.1.3-ARM/arm/arm-none-eabi/include/c++/10.3.1/bits/stl_vector.h **** 		      _M_impl._M_end_of_storage - _M_impl._M_start);
 337:/Library/DaisyToolchain/0.1.3-ARM/arm/arm-none-eabi/include/c++/10.3.1/bits/stl_vector.h ****       }
 338:/Library/DaisyToolchain/0.1.3-ARM/arm/arm-none-eabi/include/c++/10.3.1/bits/stl_vector.h **** 
 339:/Library/DaisyToolchain/0.1.3-ARM/arm/arm-none-eabi/include/c++/10.3.1/bits/stl_vector.h ****     public:
 340:/Library/DaisyToolchain/0.1.3-ARM/arm/arm-none-eabi/include/c++/10.3.1/bits/stl_vector.h ****       _Vector_impl _M_impl;
 341:/Library/DaisyToolchain/0.1.3-ARM/arm/arm-none-eabi/include/c++/10.3.1/bits/stl_vector.h **** 
 342:/Library/DaisyToolchain/0.1.3-ARM/arm/arm-none-eabi/include/c++/10.3.1/bits/stl_vector.h ****       pointer
 343:/Library/DaisyToolchain/0.1.3-ARM/arm/arm-none-eabi/include/c++/10.3.1/bits/stl_vector.h ****       _M_allocate(size_t __n)
 344:/Library/DaisyToolchain/0.1.3-ARM/arm/arm-none-eabi/include/c++/10.3.1/bits/stl_vector.h ****       {
 345:/Library/DaisyToolchain/0.1.3-ARM/arm/arm-none-eabi/include/c++/10.3.1/bits/stl_vector.h **** 	typedef __gnu_cxx::__alloc_traits<_Tp_alloc_type> _Tr;
 346:/Library/DaisyToolchain/0.1.3-ARM/arm/arm-none-eabi/include/c++/10.3.1/bits/stl_vector.h **** 	return __n != 0 ? _Tr::allocate(_M_impl, __n) : pointer();
 347:/Library/DaisyToolchain/0.1.3-ARM/arm/arm-none-eabi/include/c++/10.3.1/bits/stl_vector.h ****       }
 348:/Library/DaisyToolchain/0.1.3-ARM/arm/arm-none-eabi/include/c++/10.3.1/bits/stl_vector.h **** 
 349:/Library/DaisyToolchain/0.1.3-ARM/arm/arm-none-eabi/include/c++/10.3.1/bits/stl_vector.h ****       void
 350:/Library/DaisyToolchain/0.1.3-ARM/arm/arm-none-eabi/include/c++/10.3.1/bits/stl_vector.h ****       _M_deallocate(pointer __p, size_t __n)
 351:/Library/DaisyToolchain/0.1.3-ARM/arm/arm-none-eabi/include/c++/10.3.1/bits/stl_vector.h ****       {
 352:/Library/DaisyToolchain/0.1.3-ARM/arm/arm-none-eabi/include/c++/10.3.1/bits/stl_vector.h **** 	typedef __gnu_cxx::__alloc_traits<_Tp_alloc_type> _Tr;
 353:/Library/DaisyToolchain/0.1.3-ARM/arm/arm-none-eabi/include/c++/10.3.1/bits/stl_vector.h **** 	if (__p)
 354:/Library/DaisyToolchain/0.1.3-ARM/arm/arm-none-eabi/include/c++/10.3.1/bits/stl_vector.h **** 	  _Tr::deallocate(_M_impl, __p, __n);
 355:/Library/DaisyToolchain/0.1.3-ARM/arm/arm-none-eabi/include/c++/10.3.1/bits/stl_vector.h ****       }
 356:/Library/DaisyToolchain/0.1.3-ARM/arm/arm-none-eabi/include/c++/10.3.1/bits/stl_vector.h **** 
 357:/Library/DaisyToolchain/0.1.3-ARM/arm/arm-none-eabi/include/c++/10.3.1/bits/stl_vector.h ****     protected:
 358:/Library/DaisyToolchain/0.1.3-ARM/arm/arm-none-eabi/include/c++/10.3.1/bits/stl_vector.h ****       void
 359:/Library/DaisyToolchain/0.1.3-ARM/arm/arm-none-eabi/include/c++/10.3.1/bits/stl_vector.h ****       _M_create_storage(size_t __n)
 360:/Library/DaisyToolchain/0.1.3-ARM/arm/arm-none-eabi/include/c++/10.3.1/bits/stl_vector.h ****       {
 361:/Library/DaisyToolchain/0.1.3-ARM/arm/arm-none-eabi/include/c++/10.3.1/bits/stl_vector.h **** 	this->_M_impl._M_start = this->_M_allocate(__n);
 362:/Library/DaisyToolchain/0.1.3-ARM/arm/arm-none-eabi/include/c++/10.3.1/bits/stl_vector.h **** 	this->_M_impl._M_finish = this->_M_impl._M_start;
 363:/Library/DaisyToolchain/0.1.3-ARM/arm/arm-none-eabi/include/c++/10.3.1/bits/stl_vector.h **** 	this->_M_impl._M_end_of_storage = this->_M_impl._M_start + __n;
 364:/Library/DaisyToolchain/0.1.3-ARM/arm/arm-none-eabi/include/c++/10.3.1/bits/stl_vector.h ****       }
 365:/Library/DaisyToolchain/0.1.3-ARM/arm/arm-none-eabi/include/c++/10.3.1/bits/stl_vector.h ****     };
ARM GAS  /var/folders/xd/16jvbr6j24q9nvtpm0qtw3240000gn/T//cch9jPA2.s 			page 97


 366:/Library/DaisyToolchain/0.1.3-ARM/arm/arm-none-eabi/include/c++/10.3.1/bits/stl_vector.h **** 
 367:/Library/DaisyToolchain/0.1.3-ARM/arm/arm-none-eabi/include/c++/10.3.1/bits/stl_vector.h ****   /**
 368:/Library/DaisyToolchain/0.1.3-ARM/arm/arm-none-eabi/include/c++/10.3.1/bits/stl_vector.h ****    *  @brief A standard container which offers fixed time access to
 369:/Library/DaisyToolchain/0.1.3-ARM/arm/arm-none-eabi/include/c++/10.3.1/bits/stl_vector.h ****    *  individual elements in any order.
 370:/Library/DaisyToolchain/0.1.3-ARM/arm/arm-none-eabi/include/c++/10.3.1/bits/stl_vector.h ****    *
 371:/Library/DaisyToolchain/0.1.3-ARM/arm/arm-none-eabi/include/c++/10.3.1/bits/stl_vector.h ****    *  @ingroup sequences
 372:/Library/DaisyToolchain/0.1.3-ARM/arm/arm-none-eabi/include/c++/10.3.1/bits/stl_vector.h ****    *
 373:/Library/DaisyToolchain/0.1.3-ARM/arm/arm-none-eabi/include/c++/10.3.1/bits/stl_vector.h ****    *  @tparam _Tp  Type of element.
 374:/Library/DaisyToolchain/0.1.3-ARM/arm/arm-none-eabi/include/c++/10.3.1/bits/stl_vector.h ****    *  @tparam _Alloc  Allocator type, defaults to allocator<_Tp>.
 375:/Library/DaisyToolchain/0.1.3-ARM/arm/arm-none-eabi/include/c++/10.3.1/bits/stl_vector.h ****    *
 376:/Library/DaisyToolchain/0.1.3-ARM/arm/arm-none-eabi/include/c++/10.3.1/bits/stl_vector.h ****    *  Meets the requirements of a <a href="tables.html#65">container</a>, a
 377:/Library/DaisyToolchain/0.1.3-ARM/arm/arm-none-eabi/include/c++/10.3.1/bits/stl_vector.h ****    *  <a href="tables.html#66">reversible container</a>, and a
 378:/Library/DaisyToolchain/0.1.3-ARM/arm/arm-none-eabi/include/c++/10.3.1/bits/stl_vector.h ****    *  <a href="tables.html#67">sequence</a>, including the
 379:/Library/DaisyToolchain/0.1.3-ARM/arm/arm-none-eabi/include/c++/10.3.1/bits/stl_vector.h ****    *  <a href="tables.html#68">optional sequence requirements</a> with the
 380:/Library/DaisyToolchain/0.1.3-ARM/arm/arm-none-eabi/include/c++/10.3.1/bits/stl_vector.h ****    *  %exception of @c push_front and @c pop_front.
 381:/Library/DaisyToolchain/0.1.3-ARM/arm/arm-none-eabi/include/c++/10.3.1/bits/stl_vector.h ****    *
 382:/Library/DaisyToolchain/0.1.3-ARM/arm/arm-none-eabi/include/c++/10.3.1/bits/stl_vector.h ****    *  In some terminology a %vector can be described as a dynamic
 383:/Library/DaisyToolchain/0.1.3-ARM/arm/arm-none-eabi/include/c++/10.3.1/bits/stl_vector.h ****    *  C-style array, it offers fast and efficient access to individual
 384:/Library/DaisyToolchain/0.1.3-ARM/arm/arm-none-eabi/include/c++/10.3.1/bits/stl_vector.h ****    *  elements in any order and saves the user from worrying about
 385:/Library/DaisyToolchain/0.1.3-ARM/arm/arm-none-eabi/include/c++/10.3.1/bits/stl_vector.h ****    *  memory and size allocation.  Subscripting ( @c [] ) access is
 386:/Library/DaisyToolchain/0.1.3-ARM/arm/arm-none-eabi/include/c++/10.3.1/bits/stl_vector.h ****    *  also provided as with C-style arrays.
 387:/Library/DaisyToolchain/0.1.3-ARM/arm/arm-none-eabi/include/c++/10.3.1/bits/stl_vector.h ****   */
 388:/Library/DaisyToolchain/0.1.3-ARM/arm/arm-none-eabi/include/c++/10.3.1/bits/stl_vector.h ****   template<typename _Tp, typename _Alloc = std::allocator<_Tp> >
 389:/Library/DaisyToolchain/0.1.3-ARM/arm/arm-none-eabi/include/c++/10.3.1/bits/stl_vector.h ****     class vector : protected _Vector_base<_Tp, _Alloc>
 390:/Library/DaisyToolchain/0.1.3-ARM/arm/arm-none-eabi/include/c++/10.3.1/bits/stl_vector.h ****     {
 391:/Library/DaisyToolchain/0.1.3-ARM/arm/arm-none-eabi/include/c++/10.3.1/bits/stl_vector.h **** #ifdef _GLIBCXX_CONCEPT_CHECKS
 392:/Library/DaisyToolchain/0.1.3-ARM/arm/arm-none-eabi/include/c++/10.3.1/bits/stl_vector.h ****       // Concept requirements.
 393:/Library/DaisyToolchain/0.1.3-ARM/arm/arm-none-eabi/include/c++/10.3.1/bits/stl_vector.h ****       typedef typename _Alloc::value_type		_Alloc_value_type;
 394:/Library/DaisyToolchain/0.1.3-ARM/arm/arm-none-eabi/include/c++/10.3.1/bits/stl_vector.h **** # if __cplusplus < 201103L
 395:/Library/DaisyToolchain/0.1.3-ARM/arm/arm-none-eabi/include/c++/10.3.1/bits/stl_vector.h ****       __glibcxx_class_requires(_Tp, _SGIAssignableConcept)
 396:/Library/DaisyToolchain/0.1.3-ARM/arm/arm-none-eabi/include/c++/10.3.1/bits/stl_vector.h **** # endif
 397:/Library/DaisyToolchain/0.1.3-ARM/arm/arm-none-eabi/include/c++/10.3.1/bits/stl_vector.h ****       __glibcxx_class_requires2(_Tp, _Alloc_value_type, _SameTypeConcept)
 398:/Library/DaisyToolchain/0.1.3-ARM/arm/arm-none-eabi/include/c++/10.3.1/bits/stl_vector.h **** #endif
 399:/Library/DaisyToolchain/0.1.3-ARM/arm/arm-none-eabi/include/c++/10.3.1/bits/stl_vector.h **** 
 400:/Library/DaisyToolchain/0.1.3-ARM/arm/arm-none-eabi/include/c++/10.3.1/bits/stl_vector.h **** #if __cplusplus >= 201103L
 401:/Library/DaisyToolchain/0.1.3-ARM/arm/arm-none-eabi/include/c++/10.3.1/bits/stl_vector.h ****       static_assert(is_same<typename remove_cv<_Tp>::type, _Tp>::value,
 402:/Library/DaisyToolchain/0.1.3-ARM/arm/arm-none-eabi/include/c++/10.3.1/bits/stl_vector.h **** 	  "std::vector must have a non-const, non-volatile value_type");
 403:/Library/DaisyToolchain/0.1.3-ARM/arm/arm-none-eabi/include/c++/10.3.1/bits/stl_vector.h **** # if __cplusplus > 201703L || defined __STRICT_ANSI__
 404:/Library/DaisyToolchain/0.1.3-ARM/arm/arm-none-eabi/include/c++/10.3.1/bits/stl_vector.h ****       static_assert(is_same<typename _Alloc::value_type, _Tp>::value,
 405:/Library/DaisyToolchain/0.1.3-ARM/arm/arm-none-eabi/include/c++/10.3.1/bits/stl_vector.h **** 	  "std::vector must have the same value_type as its allocator");
 406:/Library/DaisyToolchain/0.1.3-ARM/arm/arm-none-eabi/include/c++/10.3.1/bits/stl_vector.h **** # endif
 407:/Library/DaisyToolchain/0.1.3-ARM/arm/arm-none-eabi/include/c++/10.3.1/bits/stl_vector.h **** #endif
 408:/Library/DaisyToolchain/0.1.3-ARM/arm/arm-none-eabi/include/c++/10.3.1/bits/stl_vector.h **** 
 409:/Library/DaisyToolchain/0.1.3-ARM/arm/arm-none-eabi/include/c++/10.3.1/bits/stl_vector.h ****       typedef _Vector_base<_Tp, _Alloc>			_Base;
 410:/Library/DaisyToolchain/0.1.3-ARM/arm/arm-none-eabi/include/c++/10.3.1/bits/stl_vector.h ****       typedef typename _Base::_Tp_alloc_type		_Tp_alloc_type;
 411:/Library/DaisyToolchain/0.1.3-ARM/arm/arm-none-eabi/include/c++/10.3.1/bits/stl_vector.h ****       typedef __gnu_cxx::__alloc_traits<_Tp_alloc_type>	_Alloc_traits;
 412:/Library/DaisyToolchain/0.1.3-ARM/arm/arm-none-eabi/include/c++/10.3.1/bits/stl_vector.h **** 
 413:/Library/DaisyToolchain/0.1.3-ARM/arm/arm-none-eabi/include/c++/10.3.1/bits/stl_vector.h ****     public:
 414:/Library/DaisyToolchain/0.1.3-ARM/arm/arm-none-eabi/include/c++/10.3.1/bits/stl_vector.h ****       typedef _Tp					value_type;
 415:/Library/DaisyToolchain/0.1.3-ARM/arm/arm-none-eabi/include/c++/10.3.1/bits/stl_vector.h ****       typedef typename _Base::pointer			pointer;
 416:/Library/DaisyToolchain/0.1.3-ARM/arm/arm-none-eabi/include/c++/10.3.1/bits/stl_vector.h ****       typedef typename _Alloc_traits::const_pointer	const_pointer;
 417:/Library/DaisyToolchain/0.1.3-ARM/arm/arm-none-eabi/include/c++/10.3.1/bits/stl_vector.h ****       typedef typename _Alloc_traits::reference		reference;
 418:/Library/DaisyToolchain/0.1.3-ARM/arm/arm-none-eabi/include/c++/10.3.1/bits/stl_vector.h ****       typedef typename _Alloc_traits::const_reference	const_reference;
 419:/Library/DaisyToolchain/0.1.3-ARM/arm/arm-none-eabi/include/c++/10.3.1/bits/stl_vector.h ****       typedef __gnu_cxx::__normal_iterator<pointer, vector> iterator;
 420:/Library/DaisyToolchain/0.1.3-ARM/arm/arm-none-eabi/include/c++/10.3.1/bits/stl_vector.h ****       typedef __gnu_cxx::__normal_iterator<const_pointer, vector>
 421:/Library/DaisyToolchain/0.1.3-ARM/arm/arm-none-eabi/include/c++/10.3.1/bits/stl_vector.h ****       const_iterator;
 422:/Library/DaisyToolchain/0.1.3-ARM/arm/arm-none-eabi/include/c++/10.3.1/bits/stl_vector.h ****       typedef std::reverse_iterator<const_iterator>	const_reverse_iterator;
ARM GAS  /var/folders/xd/16jvbr6j24q9nvtpm0qtw3240000gn/T//cch9jPA2.s 			page 98


 423:/Library/DaisyToolchain/0.1.3-ARM/arm/arm-none-eabi/include/c++/10.3.1/bits/stl_vector.h ****       typedef std::reverse_iterator<iterator>		reverse_iterator;
 424:/Library/DaisyToolchain/0.1.3-ARM/arm/arm-none-eabi/include/c++/10.3.1/bits/stl_vector.h ****       typedef size_t					size_type;
 425:/Library/DaisyToolchain/0.1.3-ARM/arm/arm-none-eabi/include/c++/10.3.1/bits/stl_vector.h ****       typedef ptrdiff_t					difference_type;
 426:/Library/DaisyToolchain/0.1.3-ARM/arm/arm-none-eabi/include/c++/10.3.1/bits/stl_vector.h ****       typedef _Alloc					allocator_type;
 427:/Library/DaisyToolchain/0.1.3-ARM/arm/arm-none-eabi/include/c++/10.3.1/bits/stl_vector.h **** 
 428:/Library/DaisyToolchain/0.1.3-ARM/arm/arm-none-eabi/include/c++/10.3.1/bits/stl_vector.h ****     private:
 429:/Library/DaisyToolchain/0.1.3-ARM/arm/arm-none-eabi/include/c++/10.3.1/bits/stl_vector.h **** #if __cplusplus >= 201103L
 430:/Library/DaisyToolchain/0.1.3-ARM/arm/arm-none-eabi/include/c++/10.3.1/bits/stl_vector.h ****       static constexpr bool
 431:/Library/DaisyToolchain/0.1.3-ARM/arm/arm-none-eabi/include/c++/10.3.1/bits/stl_vector.h ****       _S_nothrow_relocate(true_type)
 432:/Library/DaisyToolchain/0.1.3-ARM/arm/arm-none-eabi/include/c++/10.3.1/bits/stl_vector.h ****       {
 433:/Library/DaisyToolchain/0.1.3-ARM/arm/arm-none-eabi/include/c++/10.3.1/bits/stl_vector.h **** 	return noexcept(std::__relocate_a(std::declval<pointer>(),
 434:/Library/DaisyToolchain/0.1.3-ARM/arm/arm-none-eabi/include/c++/10.3.1/bits/stl_vector.h **** 					  std::declval<pointer>(),
 435:/Library/DaisyToolchain/0.1.3-ARM/arm/arm-none-eabi/include/c++/10.3.1/bits/stl_vector.h **** 					  std::declval<pointer>(),
 436:/Library/DaisyToolchain/0.1.3-ARM/arm/arm-none-eabi/include/c++/10.3.1/bits/stl_vector.h **** 					  std::declval<_Tp_alloc_type&>()));
 437:/Library/DaisyToolchain/0.1.3-ARM/arm/arm-none-eabi/include/c++/10.3.1/bits/stl_vector.h ****       }
 438:/Library/DaisyToolchain/0.1.3-ARM/arm/arm-none-eabi/include/c++/10.3.1/bits/stl_vector.h **** 
 439:/Library/DaisyToolchain/0.1.3-ARM/arm/arm-none-eabi/include/c++/10.3.1/bits/stl_vector.h ****       static constexpr bool
 440:/Library/DaisyToolchain/0.1.3-ARM/arm/arm-none-eabi/include/c++/10.3.1/bits/stl_vector.h ****       _S_nothrow_relocate(false_type)
 441:/Library/DaisyToolchain/0.1.3-ARM/arm/arm-none-eabi/include/c++/10.3.1/bits/stl_vector.h ****       { return false; }
 442:/Library/DaisyToolchain/0.1.3-ARM/arm/arm-none-eabi/include/c++/10.3.1/bits/stl_vector.h **** 
 443:/Library/DaisyToolchain/0.1.3-ARM/arm/arm-none-eabi/include/c++/10.3.1/bits/stl_vector.h ****       static constexpr bool
 444:/Library/DaisyToolchain/0.1.3-ARM/arm/arm-none-eabi/include/c++/10.3.1/bits/stl_vector.h ****       _S_use_relocate()
 445:/Library/DaisyToolchain/0.1.3-ARM/arm/arm-none-eabi/include/c++/10.3.1/bits/stl_vector.h ****       {
 446:/Library/DaisyToolchain/0.1.3-ARM/arm/arm-none-eabi/include/c++/10.3.1/bits/stl_vector.h **** 	// Instantiating std::__relocate_a might cause an error outside the
 447:/Library/DaisyToolchain/0.1.3-ARM/arm/arm-none-eabi/include/c++/10.3.1/bits/stl_vector.h **** 	// immediate context (in __relocate_object_a's noexcept-specifier),
 448:/Library/DaisyToolchain/0.1.3-ARM/arm/arm-none-eabi/include/c++/10.3.1/bits/stl_vector.h **** 	// so only do it if we know the type can be move-inserted into *this.
 449:/Library/DaisyToolchain/0.1.3-ARM/arm/arm-none-eabi/include/c++/10.3.1/bits/stl_vector.h **** 	return _S_nothrow_relocate(__is_move_insertable<_Tp_alloc_type>{});
 450:/Library/DaisyToolchain/0.1.3-ARM/arm/arm-none-eabi/include/c++/10.3.1/bits/stl_vector.h ****       }
 451:/Library/DaisyToolchain/0.1.3-ARM/arm/arm-none-eabi/include/c++/10.3.1/bits/stl_vector.h **** 
 452:/Library/DaisyToolchain/0.1.3-ARM/arm/arm-none-eabi/include/c++/10.3.1/bits/stl_vector.h ****       static pointer
 453:/Library/DaisyToolchain/0.1.3-ARM/arm/arm-none-eabi/include/c++/10.3.1/bits/stl_vector.h ****       _S_do_relocate(pointer __first, pointer __last, pointer __result,
 454:/Library/DaisyToolchain/0.1.3-ARM/arm/arm-none-eabi/include/c++/10.3.1/bits/stl_vector.h **** 		     _Tp_alloc_type& __alloc, true_type) noexcept
 455:/Library/DaisyToolchain/0.1.3-ARM/arm/arm-none-eabi/include/c++/10.3.1/bits/stl_vector.h ****       {
 456:/Library/DaisyToolchain/0.1.3-ARM/arm/arm-none-eabi/include/c++/10.3.1/bits/stl_vector.h **** 	return std::__relocate_a(__first, __last, __result, __alloc);
 457:/Library/DaisyToolchain/0.1.3-ARM/arm/arm-none-eabi/include/c++/10.3.1/bits/stl_vector.h ****       }
 458:/Library/DaisyToolchain/0.1.3-ARM/arm/arm-none-eabi/include/c++/10.3.1/bits/stl_vector.h **** 
 459:/Library/DaisyToolchain/0.1.3-ARM/arm/arm-none-eabi/include/c++/10.3.1/bits/stl_vector.h ****       static pointer
 460:/Library/DaisyToolchain/0.1.3-ARM/arm/arm-none-eabi/include/c++/10.3.1/bits/stl_vector.h ****       _S_do_relocate(pointer, pointer, pointer __result,
 461:/Library/DaisyToolchain/0.1.3-ARM/arm/arm-none-eabi/include/c++/10.3.1/bits/stl_vector.h **** 		     _Tp_alloc_type&, false_type) noexcept
 462:/Library/DaisyToolchain/0.1.3-ARM/arm/arm-none-eabi/include/c++/10.3.1/bits/stl_vector.h ****       { return __result; }
 463:/Library/DaisyToolchain/0.1.3-ARM/arm/arm-none-eabi/include/c++/10.3.1/bits/stl_vector.h **** 
 464:/Library/DaisyToolchain/0.1.3-ARM/arm/arm-none-eabi/include/c++/10.3.1/bits/stl_vector.h ****       static pointer
 465:/Library/DaisyToolchain/0.1.3-ARM/arm/arm-none-eabi/include/c++/10.3.1/bits/stl_vector.h ****       _S_relocate(pointer __first, pointer __last, pointer __result,
 466:/Library/DaisyToolchain/0.1.3-ARM/arm/arm-none-eabi/include/c++/10.3.1/bits/stl_vector.h **** 		  _Tp_alloc_type& __alloc) noexcept
 467:/Library/DaisyToolchain/0.1.3-ARM/arm/arm-none-eabi/include/c++/10.3.1/bits/stl_vector.h ****       {
 468:/Library/DaisyToolchain/0.1.3-ARM/arm/arm-none-eabi/include/c++/10.3.1/bits/stl_vector.h **** 	using __do_it = __bool_constant<_S_use_relocate()>;
 469:/Library/DaisyToolchain/0.1.3-ARM/arm/arm-none-eabi/include/c++/10.3.1/bits/stl_vector.h **** 	return _S_do_relocate(__first, __last, __result, __alloc, __do_it{});
 470:/Library/DaisyToolchain/0.1.3-ARM/arm/arm-none-eabi/include/c++/10.3.1/bits/stl_vector.h ****       }
 471:/Library/DaisyToolchain/0.1.3-ARM/arm/arm-none-eabi/include/c++/10.3.1/bits/stl_vector.h **** #endif // C++11
 472:/Library/DaisyToolchain/0.1.3-ARM/arm/arm-none-eabi/include/c++/10.3.1/bits/stl_vector.h **** 
 473:/Library/DaisyToolchain/0.1.3-ARM/arm/arm-none-eabi/include/c++/10.3.1/bits/stl_vector.h ****     protected:
 474:/Library/DaisyToolchain/0.1.3-ARM/arm/arm-none-eabi/include/c++/10.3.1/bits/stl_vector.h ****       using _Base::_M_allocate;
 475:/Library/DaisyToolchain/0.1.3-ARM/arm/arm-none-eabi/include/c++/10.3.1/bits/stl_vector.h ****       using _Base::_M_deallocate;
 476:/Library/DaisyToolchain/0.1.3-ARM/arm/arm-none-eabi/include/c++/10.3.1/bits/stl_vector.h ****       using _Base::_M_impl;
 477:/Library/DaisyToolchain/0.1.3-ARM/arm/arm-none-eabi/include/c++/10.3.1/bits/stl_vector.h ****       using _Base::_M_get_Tp_allocator;
 478:/Library/DaisyToolchain/0.1.3-ARM/arm/arm-none-eabi/include/c++/10.3.1/bits/stl_vector.h **** 
 479:/Library/DaisyToolchain/0.1.3-ARM/arm/arm-none-eabi/include/c++/10.3.1/bits/stl_vector.h ****     public:
ARM GAS  /var/folders/xd/16jvbr6j24q9nvtpm0qtw3240000gn/T//cch9jPA2.s 			page 99


 480:/Library/DaisyToolchain/0.1.3-ARM/arm/arm-none-eabi/include/c++/10.3.1/bits/stl_vector.h ****       // [23.2.4.1] construct/copy/destroy
 481:/Library/DaisyToolchain/0.1.3-ARM/arm/arm-none-eabi/include/c++/10.3.1/bits/stl_vector.h ****       // (assign() and get_allocator() are also listed in this section)
 482:/Library/DaisyToolchain/0.1.3-ARM/arm/arm-none-eabi/include/c++/10.3.1/bits/stl_vector.h **** 
 483:/Library/DaisyToolchain/0.1.3-ARM/arm/arm-none-eabi/include/c++/10.3.1/bits/stl_vector.h ****       /**
 484:/Library/DaisyToolchain/0.1.3-ARM/arm/arm-none-eabi/include/c++/10.3.1/bits/stl_vector.h ****        *  @brief  Creates a %vector with no elements.
 485:/Library/DaisyToolchain/0.1.3-ARM/arm/arm-none-eabi/include/c++/10.3.1/bits/stl_vector.h ****        */
 486:/Library/DaisyToolchain/0.1.3-ARM/arm/arm-none-eabi/include/c++/10.3.1/bits/stl_vector.h **** #if __cplusplus >= 201103L
 487:/Library/DaisyToolchain/0.1.3-ARM/arm/arm-none-eabi/include/c++/10.3.1/bits/stl_vector.h ****       vector() = default;
 3202              		.loc 10 487 7 view .LVU853
 3203              	.LBB896:
 3204              	.LBI896:
 288:/Library/DaisyToolchain/0.1.3-ARM/arm/arm-none-eabi/include/c++/10.3.1/bits/stl_vector.h **** #else
 3205              		.loc 10 288 7 view .LVU854
 3206              	.LBB897:
 3207              	.LBI897:
 131:/Library/DaisyToolchain/0.1.3-ARM/arm/arm-none-eabi/include/c++/10.3.1/bits/stl_vector.h **** 	    is_nothrow_default_constructible<_Tp_alloc_type>::value)
 3208              		.loc 10 131 2 view .LVU855
 3209              	.LBB898:
 3210              	.LBI898:
 3211              		.file 11 "/Library/DaisyToolchain/0.1.3-ARM/arm/arm-none-eabi/include/c++/10.3.1/bits/allocator.h"
   1:/Library/DaisyToolchain/0.1.3-ARM/arm/arm-none-eabi/include/c++/10.3.1/bits/allocator.h **** // Allocators -*- C++ -*-
   2:/Library/DaisyToolchain/0.1.3-ARM/arm/arm-none-eabi/include/c++/10.3.1/bits/allocator.h **** 
   3:/Library/DaisyToolchain/0.1.3-ARM/arm/arm-none-eabi/include/c++/10.3.1/bits/allocator.h **** // Copyright (C) 2001-2020 Free Software Foundation, Inc.
   4:/Library/DaisyToolchain/0.1.3-ARM/arm/arm-none-eabi/include/c++/10.3.1/bits/allocator.h **** //
   5:/Library/DaisyToolchain/0.1.3-ARM/arm/arm-none-eabi/include/c++/10.3.1/bits/allocator.h **** // This file is part of the GNU ISO C++ Library.  This library is free
   6:/Library/DaisyToolchain/0.1.3-ARM/arm/arm-none-eabi/include/c++/10.3.1/bits/allocator.h **** // software; you can redistribute it and/or modify it under the
   7:/Library/DaisyToolchain/0.1.3-ARM/arm/arm-none-eabi/include/c++/10.3.1/bits/allocator.h **** // terms of the GNU General Public License as published by the
   8:/Library/DaisyToolchain/0.1.3-ARM/arm/arm-none-eabi/include/c++/10.3.1/bits/allocator.h **** // Free Software Foundation; either version 3, or (at your option)
   9:/Library/DaisyToolchain/0.1.3-ARM/arm/arm-none-eabi/include/c++/10.3.1/bits/allocator.h **** // any later version.
  10:/Library/DaisyToolchain/0.1.3-ARM/arm/arm-none-eabi/include/c++/10.3.1/bits/allocator.h **** 
  11:/Library/DaisyToolchain/0.1.3-ARM/arm/arm-none-eabi/include/c++/10.3.1/bits/allocator.h **** // This library is distributed in the hope that it will be useful,
  12:/Library/DaisyToolchain/0.1.3-ARM/arm/arm-none-eabi/include/c++/10.3.1/bits/allocator.h **** // but WITHOUT ANY WARRANTY; without even the implied warranty of
  13:/Library/DaisyToolchain/0.1.3-ARM/arm/arm-none-eabi/include/c++/10.3.1/bits/allocator.h **** // MERCHANTABILITY or FITNESS FOR A PARTICULAR PURPOSE.  See the
  14:/Library/DaisyToolchain/0.1.3-ARM/arm/arm-none-eabi/include/c++/10.3.1/bits/allocator.h **** // GNU General Public License for more details.
  15:/Library/DaisyToolchain/0.1.3-ARM/arm/arm-none-eabi/include/c++/10.3.1/bits/allocator.h **** 
  16:/Library/DaisyToolchain/0.1.3-ARM/arm/arm-none-eabi/include/c++/10.3.1/bits/allocator.h **** // Under Section 7 of GPL version 3, you are granted additional
  17:/Library/DaisyToolchain/0.1.3-ARM/arm/arm-none-eabi/include/c++/10.3.1/bits/allocator.h **** // permissions described in the GCC Runtime Library Exception, version
  18:/Library/DaisyToolchain/0.1.3-ARM/arm/arm-none-eabi/include/c++/10.3.1/bits/allocator.h **** // 3.1, as published by the Free Software Foundation.
  19:/Library/DaisyToolchain/0.1.3-ARM/arm/arm-none-eabi/include/c++/10.3.1/bits/allocator.h **** 
  20:/Library/DaisyToolchain/0.1.3-ARM/arm/arm-none-eabi/include/c++/10.3.1/bits/allocator.h **** // You should have received a copy of the GNU General Public License and
  21:/Library/DaisyToolchain/0.1.3-ARM/arm/arm-none-eabi/include/c++/10.3.1/bits/allocator.h **** // a copy of the GCC Runtime Library Exception along with this program;
  22:/Library/DaisyToolchain/0.1.3-ARM/arm/arm-none-eabi/include/c++/10.3.1/bits/allocator.h **** // see the files COPYING3 and COPYING.RUNTIME respectively.  If not, see
  23:/Library/DaisyToolchain/0.1.3-ARM/arm/arm-none-eabi/include/c++/10.3.1/bits/allocator.h **** // <http://www.gnu.org/licenses/>.
  24:/Library/DaisyToolchain/0.1.3-ARM/arm/arm-none-eabi/include/c++/10.3.1/bits/allocator.h **** 
  25:/Library/DaisyToolchain/0.1.3-ARM/arm/arm-none-eabi/include/c++/10.3.1/bits/allocator.h **** /*
  26:/Library/DaisyToolchain/0.1.3-ARM/arm/arm-none-eabi/include/c++/10.3.1/bits/allocator.h ****  * Copyright (c) 1996-1997
  27:/Library/DaisyToolchain/0.1.3-ARM/arm/arm-none-eabi/include/c++/10.3.1/bits/allocator.h ****  * Silicon Graphics Computer Systems, Inc.
  28:/Library/DaisyToolchain/0.1.3-ARM/arm/arm-none-eabi/include/c++/10.3.1/bits/allocator.h ****  *
  29:/Library/DaisyToolchain/0.1.3-ARM/arm/arm-none-eabi/include/c++/10.3.1/bits/allocator.h ****  * Permission to use, copy, modify, distribute and sell this software
  30:/Library/DaisyToolchain/0.1.3-ARM/arm/arm-none-eabi/include/c++/10.3.1/bits/allocator.h ****  * and its documentation for any purpose is hereby granted without fee,
  31:/Library/DaisyToolchain/0.1.3-ARM/arm/arm-none-eabi/include/c++/10.3.1/bits/allocator.h ****  * provided that the above copyright notice appear in all copies and
  32:/Library/DaisyToolchain/0.1.3-ARM/arm/arm-none-eabi/include/c++/10.3.1/bits/allocator.h ****  * that both that copyright notice and this permission notice appear
  33:/Library/DaisyToolchain/0.1.3-ARM/arm/arm-none-eabi/include/c++/10.3.1/bits/allocator.h ****  * in supporting documentation.  Silicon Graphics makes no
  34:/Library/DaisyToolchain/0.1.3-ARM/arm/arm-none-eabi/include/c++/10.3.1/bits/allocator.h ****  * representations about the suitability of this software for any
  35:/Library/DaisyToolchain/0.1.3-ARM/arm/arm-none-eabi/include/c++/10.3.1/bits/allocator.h ****  * purpose.  It is provided "as is" without express or implied warranty.
  36:/Library/DaisyToolchain/0.1.3-ARM/arm/arm-none-eabi/include/c++/10.3.1/bits/allocator.h ****  */
  37:/Library/DaisyToolchain/0.1.3-ARM/arm/arm-none-eabi/include/c++/10.3.1/bits/allocator.h **** 
ARM GAS  /var/folders/xd/16jvbr6j24q9nvtpm0qtw3240000gn/T//cch9jPA2.s 			page 100


  38:/Library/DaisyToolchain/0.1.3-ARM/arm/arm-none-eabi/include/c++/10.3.1/bits/allocator.h **** /** @file bits/allocator.h
  39:/Library/DaisyToolchain/0.1.3-ARM/arm/arm-none-eabi/include/c++/10.3.1/bits/allocator.h ****  *  This is an internal header file, included by other library headers.
  40:/Library/DaisyToolchain/0.1.3-ARM/arm/arm-none-eabi/include/c++/10.3.1/bits/allocator.h ****  *  Do not attempt to use it directly. @headername{memory}
  41:/Library/DaisyToolchain/0.1.3-ARM/arm/arm-none-eabi/include/c++/10.3.1/bits/allocator.h ****  */
  42:/Library/DaisyToolchain/0.1.3-ARM/arm/arm-none-eabi/include/c++/10.3.1/bits/allocator.h **** 
  43:/Library/DaisyToolchain/0.1.3-ARM/arm/arm-none-eabi/include/c++/10.3.1/bits/allocator.h **** #ifndef _ALLOCATOR_H
  44:/Library/DaisyToolchain/0.1.3-ARM/arm/arm-none-eabi/include/c++/10.3.1/bits/allocator.h **** #define _ALLOCATOR_H 1
  45:/Library/DaisyToolchain/0.1.3-ARM/arm/arm-none-eabi/include/c++/10.3.1/bits/allocator.h **** 
  46:/Library/DaisyToolchain/0.1.3-ARM/arm/arm-none-eabi/include/c++/10.3.1/bits/allocator.h **** #include <bits/c++allocator.h> // Define the base class to std::allocator.
  47:/Library/DaisyToolchain/0.1.3-ARM/arm/arm-none-eabi/include/c++/10.3.1/bits/allocator.h **** #include <bits/memoryfwd.h>
  48:/Library/DaisyToolchain/0.1.3-ARM/arm/arm-none-eabi/include/c++/10.3.1/bits/allocator.h **** #if __cplusplus >= 201103L
  49:/Library/DaisyToolchain/0.1.3-ARM/arm/arm-none-eabi/include/c++/10.3.1/bits/allocator.h **** #include <type_traits>
  50:/Library/DaisyToolchain/0.1.3-ARM/arm/arm-none-eabi/include/c++/10.3.1/bits/allocator.h **** #endif
  51:/Library/DaisyToolchain/0.1.3-ARM/arm/arm-none-eabi/include/c++/10.3.1/bits/allocator.h **** 
  52:/Library/DaisyToolchain/0.1.3-ARM/arm/arm-none-eabi/include/c++/10.3.1/bits/allocator.h **** #define __cpp_lib_incomplete_container_elements 201505
  53:/Library/DaisyToolchain/0.1.3-ARM/arm/arm-none-eabi/include/c++/10.3.1/bits/allocator.h **** 
  54:/Library/DaisyToolchain/0.1.3-ARM/arm/arm-none-eabi/include/c++/10.3.1/bits/allocator.h **** namespace std _GLIBCXX_VISIBILITY(default)
  55:/Library/DaisyToolchain/0.1.3-ARM/arm/arm-none-eabi/include/c++/10.3.1/bits/allocator.h **** {
  56:/Library/DaisyToolchain/0.1.3-ARM/arm/arm-none-eabi/include/c++/10.3.1/bits/allocator.h **** _GLIBCXX_BEGIN_NAMESPACE_VERSION
  57:/Library/DaisyToolchain/0.1.3-ARM/arm/arm-none-eabi/include/c++/10.3.1/bits/allocator.h **** 
  58:/Library/DaisyToolchain/0.1.3-ARM/arm/arm-none-eabi/include/c++/10.3.1/bits/allocator.h ****   /**
  59:/Library/DaisyToolchain/0.1.3-ARM/arm/arm-none-eabi/include/c++/10.3.1/bits/allocator.h ****    *  @addtogroup allocators
  60:/Library/DaisyToolchain/0.1.3-ARM/arm/arm-none-eabi/include/c++/10.3.1/bits/allocator.h ****    *  @{
  61:/Library/DaisyToolchain/0.1.3-ARM/arm/arm-none-eabi/include/c++/10.3.1/bits/allocator.h ****    */
  62:/Library/DaisyToolchain/0.1.3-ARM/arm/arm-none-eabi/include/c++/10.3.1/bits/allocator.h **** 
  63:/Library/DaisyToolchain/0.1.3-ARM/arm/arm-none-eabi/include/c++/10.3.1/bits/allocator.h ****   // Since C++20 the primary template should be used for allocator<void>,
  64:/Library/DaisyToolchain/0.1.3-ARM/arm/arm-none-eabi/include/c++/10.3.1/bits/allocator.h ****   // but then it would have a non-trivial default ctor and dtor, which
  65:/Library/DaisyToolchain/0.1.3-ARM/arm/arm-none-eabi/include/c++/10.3.1/bits/allocator.h ****   // would be an ABI change. So C++20 still uses the allocator<void> explicit
  66:/Library/DaisyToolchain/0.1.3-ARM/arm/arm-none-eabi/include/c++/10.3.1/bits/allocator.h ****   // specialization, with the historical ABI properties, but with the same
  67:/Library/DaisyToolchain/0.1.3-ARM/arm/arm-none-eabi/include/c++/10.3.1/bits/allocator.h ****   // members that are present in the primary template.
  68:/Library/DaisyToolchain/0.1.3-ARM/arm/arm-none-eabi/include/c++/10.3.1/bits/allocator.h **** 
  69:/Library/DaisyToolchain/0.1.3-ARM/arm/arm-none-eabi/include/c++/10.3.1/bits/allocator.h **** #if ! _GLIBCXX_INLINE_VERSION
  70:/Library/DaisyToolchain/0.1.3-ARM/arm/arm-none-eabi/include/c++/10.3.1/bits/allocator.h ****   /// allocator<void> specialization.
  71:/Library/DaisyToolchain/0.1.3-ARM/arm/arm-none-eabi/include/c++/10.3.1/bits/allocator.h ****   template<>
  72:/Library/DaisyToolchain/0.1.3-ARM/arm/arm-none-eabi/include/c++/10.3.1/bits/allocator.h ****     class allocator<void>
  73:/Library/DaisyToolchain/0.1.3-ARM/arm/arm-none-eabi/include/c++/10.3.1/bits/allocator.h ****     {
  74:/Library/DaisyToolchain/0.1.3-ARM/arm/arm-none-eabi/include/c++/10.3.1/bits/allocator.h ****     public:
  75:/Library/DaisyToolchain/0.1.3-ARM/arm/arm-none-eabi/include/c++/10.3.1/bits/allocator.h ****       typedef void        value_type;
  76:/Library/DaisyToolchain/0.1.3-ARM/arm/arm-none-eabi/include/c++/10.3.1/bits/allocator.h ****       typedef size_t      size_type;
  77:/Library/DaisyToolchain/0.1.3-ARM/arm/arm-none-eabi/include/c++/10.3.1/bits/allocator.h ****       typedef ptrdiff_t   difference_type;
  78:/Library/DaisyToolchain/0.1.3-ARM/arm/arm-none-eabi/include/c++/10.3.1/bits/allocator.h **** 
  79:/Library/DaisyToolchain/0.1.3-ARM/arm/arm-none-eabi/include/c++/10.3.1/bits/allocator.h **** #if __cplusplus <= 201703L
  80:/Library/DaisyToolchain/0.1.3-ARM/arm/arm-none-eabi/include/c++/10.3.1/bits/allocator.h ****       // These were removed for C++20.
  81:/Library/DaisyToolchain/0.1.3-ARM/arm/arm-none-eabi/include/c++/10.3.1/bits/allocator.h ****       typedef void*       pointer;
  82:/Library/DaisyToolchain/0.1.3-ARM/arm/arm-none-eabi/include/c++/10.3.1/bits/allocator.h ****       typedef const void* const_pointer;
  83:/Library/DaisyToolchain/0.1.3-ARM/arm/arm-none-eabi/include/c++/10.3.1/bits/allocator.h **** 
  84:/Library/DaisyToolchain/0.1.3-ARM/arm/arm-none-eabi/include/c++/10.3.1/bits/allocator.h ****       template<typename _Tp1>
  85:/Library/DaisyToolchain/0.1.3-ARM/arm/arm-none-eabi/include/c++/10.3.1/bits/allocator.h **** 	struct rebind
  86:/Library/DaisyToolchain/0.1.3-ARM/arm/arm-none-eabi/include/c++/10.3.1/bits/allocator.h **** 	{ typedef allocator<_Tp1> other; };
  87:/Library/DaisyToolchain/0.1.3-ARM/arm/arm-none-eabi/include/c++/10.3.1/bits/allocator.h **** #endif
  88:/Library/DaisyToolchain/0.1.3-ARM/arm/arm-none-eabi/include/c++/10.3.1/bits/allocator.h **** 
  89:/Library/DaisyToolchain/0.1.3-ARM/arm/arm-none-eabi/include/c++/10.3.1/bits/allocator.h **** #if __cplusplus >= 201103L
  90:/Library/DaisyToolchain/0.1.3-ARM/arm/arm-none-eabi/include/c++/10.3.1/bits/allocator.h ****       // _GLIBCXX_RESOLVE_LIB_DEFECTS
  91:/Library/DaisyToolchain/0.1.3-ARM/arm/arm-none-eabi/include/c++/10.3.1/bits/allocator.h ****       // 2103. std::allocator propagate_on_container_move_assignment
  92:/Library/DaisyToolchain/0.1.3-ARM/arm/arm-none-eabi/include/c++/10.3.1/bits/allocator.h ****       typedef true_type propagate_on_container_move_assignment;
  93:/Library/DaisyToolchain/0.1.3-ARM/arm/arm-none-eabi/include/c++/10.3.1/bits/allocator.h **** 
  94:/Library/DaisyToolchain/0.1.3-ARM/arm/arm-none-eabi/include/c++/10.3.1/bits/allocator.h ****       typedef true_type is_always_equal;
ARM GAS  /var/folders/xd/16jvbr6j24q9nvtpm0qtw3240000gn/T//cch9jPA2.s 			page 101


  95:/Library/DaisyToolchain/0.1.3-ARM/arm/arm-none-eabi/include/c++/10.3.1/bits/allocator.h **** 
  96:/Library/DaisyToolchain/0.1.3-ARM/arm/arm-none-eabi/include/c++/10.3.1/bits/allocator.h **** #if __cplusplus > 201703L
  97:/Library/DaisyToolchain/0.1.3-ARM/arm/arm-none-eabi/include/c++/10.3.1/bits/allocator.h ****       allocator() = default;
  98:/Library/DaisyToolchain/0.1.3-ARM/arm/arm-none-eabi/include/c++/10.3.1/bits/allocator.h **** 
  99:/Library/DaisyToolchain/0.1.3-ARM/arm/arm-none-eabi/include/c++/10.3.1/bits/allocator.h ****       template<typename _Up>
 100:/Library/DaisyToolchain/0.1.3-ARM/arm/arm-none-eabi/include/c++/10.3.1/bits/allocator.h **** 	constexpr
 101:/Library/DaisyToolchain/0.1.3-ARM/arm/arm-none-eabi/include/c++/10.3.1/bits/allocator.h **** 	allocator(const allocator<_Up>&) noexcept { }
 102:/Library/DaisyToolchain/0.1.3-ARM/arm/arm-none-eabi/include/c++/10.3.1/bits/allocator.h **** 
 103:/Library/DaisyToolchain/0.1.3-ARM/arm/arm-none-eabi/include/c++/10.3.1/bits/allocator.h ****       // No allocate member because it's ill-formed by LWG 3307.
 104:/Library/DaisyToolchain/0.1.3-ARM/arm/arm-none-eabi/include/c++/10.3.1/bits/allocator.h ****       // No deallocate member because it would be undefined to call it
 105:/Library/DaisyToolchain/0.1.3-ARM/arm/arm-none-eabi/include/c++/10.3.1/bits/allocator.h ****       // with any pointer which wasn't obtained from allocate.
 106:/Library/DaisyToolchain/0.1.3-ARM/arm/arm-none-eabi/include/c++/10.3.1/bits/allocator.h **** 
 107:/Library/DaisyToolchain/0.1.3-ARM/arm/arm-none-eabi/include/c++/10.3.1/bits/allocator.h **** #else // ! C++20
 108:/Library/DaisyToolchain/0.1.3-ARM/arm/arm-none-eabi/include/c++/10.3.1/bits/allocator.h ****       // allocator_traits<allocator<void>> uses construct and destroy.
 109:/Library/DaisyToolchain/0.1.3-ARM/arm/arm-none-eabi/include/c++/10.3.1/bits/allocator.h ****       template<typename _Up, typename... _Args>
 110:/Library/DaisyToolchain/0.1.3-ARM/arm/arm-none-eabi/include/c++/10.3.1/bits/allocator.h **** 	void
 111:/Library/DaisyToolchain/0.1.3-ARM/arm/arm-none-eabi/include/c++/10.3.1/bits/allocator.h **** 	construct(_Up* __p, _Args&&... __args)
 112:/Library/DaisyToolchain/0.1.3-ARM/arm/arm-none-eabi/include/c++/10.3.1/bits/allocator.h **** 	noexcept(std::is_nothrow_constructible<_Up, _Args...>::value)
 113:/Library/DaisyToolchain/0.1.3-ARM/arm/arm-none-eabi/include/c++/10.3.1/bits/allocator.h **** 	{ ::new((void *)__p) _Up(std::forward<_Args>(__args)...); }
 114:/Library/DaisyToolchain/0.1.3-ARM/arm/arm-none-eabi/include/c++/10.3.1/bits/allocator.h **** 
 115:/Library/DaisyToolchain/0.1.3-ARM/arm/arm-none-eabi/include/c++/10.3.1/bits/allocator.h ****       template<typename _Up>
 116:/Library/DaisyToolchain/0.1.3-ARM/arm/arm-none-eabi/include/c++/10.3.1/bits/allocator.h **** 	void
 117:/Library/DaisyToolchain/0.1.3-ARM/arm/arm-none-eabi/include/c++/10.3.1/bits/allocator.h **** 	destroy(_Up* __p)
 118:/Library/DaisyToolchain/0.1.3-ARM/arm/arm-none-eabi/include/c++/10.3.1/bits/allocator.h **** 	noexcept(std::is_nothrow_destructible<_Up>::value)
 119:/Library/DaisyToolchain/0.1.3-ARM/arm/arm-none-eabi/include/c++/10.3.1/bits/allocator.h **** 	{ __p->~_Up(); }
 120:/Library/DaisyToolchain/0.1.3-ARM/arm/arm-none-eabi/include/c++/10.3.1/bits/allocator.h **** #endif // C++17
 121:/Library/DaisyToolchain/0.1.3-ARM/arm/arm-none-eabi/include/c++/10.3.1/bits/allocator.h **** #endif // C++11
 122:/Library/DaisyToolchain/0.1.3-ARM/arm/arm-none-eabi/include/c++/10.3.1/bits/allocator.h ****     };
 123:/Library/DaisyToolchain/0.1.3-ARM/arm/arm-none-eabi/include/c++/10.3.1/bits/allocator.h **** #endif // ! _GLIBCXX_INLINE_VERSION
 124:/Library/DaisyToolchain/0.1.3-ARM/arm/arm-none-eabi/include/c++/10.3.1/bits/allocator.h **** 
 125:/Library/DaisyToolchain/0.1.3-ARM/arm/arm-none-eabi/include/c++/10.3.1/bits/allocator.h ****   /**
 126:/Library/DaisyToolchain/0.1.3-ARM/arm/arm-none-eabi/include/c++/10.3.1/bits/allocator.h ****    * @brief  The @a standard allocator, as per C++03 [20.4.1].
 127:/Library/DaisyToolchain/0.1.3-ARM/arm/arm-none-eabi/include/c++/10.3.1/bits/allocator.h ****    *
 128:/Library/DaisyToolchain/0.1.3-ARM/arm/arm-none-eabi/include/c++/10.3.1/bits/allocator.h ****    *  See https://gcc.gnu.org/onlinedocs/libstdc++/manual/memory.html#std.util.memory.allocator
 129:/Library/DaisyToolchain/0.1.3-ARM/arm/arm-none-eabi/include/c++/10.3.1/bits/allocator.h ****    *  for further details.
 130:/Library/DaisyToolchain/0.1.3-ARM/arm/arm-none-eabi/include/c++/10.3.1/bits/allocator.h ****    *
 131:/Library/DaisyToolchain/0.1.3-ARM/arm/arm-none-eabi/include/c++/10.3.1/bits/allocator.h ****    *  @tparam  _Tp  Type of allocated object.
 132:/Library/DaisyToolchain/0.1.3-ARM/arm/arm-none-eabi/include/c++/10.3.1/bits/allocator.h ****    */
 133:/Library/DaisyToolchain/0.1.3-ARM/arm/arm-none-eabi/include/c++/10.3.1/bits/allocator.h ****   template<typename _Tp>
 134:/Library/DaisyToolchain/0.1.3-ARM/arm/arm-none-eabi/include/c++/10.3.1/bits/allocator.h ****     class allocator : public __allocator_base<_Tp>
 135:/Library/DaisyToolchain/0.1.3-ARM/arm/arm-none-eabi/include/c++/10.3.1/bits/allocator.h ****     {
 136:/Library/DaisyToolchain/0.1.3-ARM/arm/arm-none-eabi/include/c++/10.3.1/bits/allocator.h ****     public:
 137:/Library/DaisyToolchain/0.1.3-ARM/arm/arm-none-eabi/include/c++/10.3.1/bits/allocator.h ****       typedef _Tp        value_type;
 138:/Library/DaisyToolchain/0.1.3-ARM/arm/arm-none-eabi/include/c++/10.3.1/bits/allocator.h ****       typedef size_t     size_type;
 139:/Library/DaisyToolchain/0.1.3-ARM/arm/arm-none-eabi/include/c++/10.3.1/bits/allocator.h ****       typedef ptrdiff_t  difference_type;
 140:/Library/DaisyToolchain/0.1.3-ARM/arm/arm-none-eabi/include/c++/10.3.1/bits/allocator.h **** 
 141:/Library/DaisyToolchain/0.1.3-ARM/arm/arm-none-eabi/include/c++/10.3.1/bits/allocator.h **** #if __cplusplus <= 201703L
 142:/Library/DaisyToolchain/0.1.3-ARM/arm/arm-none-eabi/include/c++/10.3.1/bits/allocator.h ****       // These were removed for C++20.
 143:/Library/DaisyToolchain/0.1.3-ARM/arm/arm-none-eabi/include/c++/10.3.1/bits/allocator.h ****       typedef _Tp*       pointer;
 144:/Library/DaisyToolchain/0.1.3-ARM/arm/arm-none-eabi/include/c++/10.3.1/bits/allocator.h ****       typedef const _Tp* const_pointer;
 145:/Library/DaisyToolchain/0.1.3-ARM/arm/arm-none-eabi/include/c++/10.3.1/bits/allocator.h ****       typedef _Tp&       reference;
 146:/Library/DaisyToolchain/0.1.3-ARM/arm/arm-none-eabi/include/c++/10.3.1/bits/allocator.h ****       typedef const _Tp& const_reference;
 147:/Library/DaisyToolchain/0.1.3-ARM/arm/arm-none-eabi/include/c++/10.3.1/bits/allocator.h **** 
 148:/Library/DaisyToolchain/0.1.3-ARM/arm/arm-none-eabi/include/c++/10.3.1/bits/allocator.h ****       template<typename _Tp1>
 149:/Library/DaisyToolchain/0.1.3-ARM/arm/arm-none-eabi/include/c++/10.3.1/bits/allocator.h **** 	struct rebind
 150:/Library/DaisyToolchain/0.1.3-ARM/arm/arm-none-eabi/include/c++/10.3.1/bits/allocator.h **** 	{ typedef allocator<_Tp1> other; };
 151:/Library/DaisyToolchain/0.1.3-ARM/arm/arm-none-eabi/include/c++/10.3.1/bits/allocator.h **** #endif
ARM GAS  /var/folders/xd/16jvbr6j24q9nvtpm0qtw3240000gn/T//cch9jPA2.s 			page 102


 152:/Library/DaisyToolchain/0.1.3-ARM/arm/arm-none-eabi/include/c++/10.3.1/bits/allocator.h **** 
 153:/Library/DaisyToolchain/0.1.3-ARM/arm/arm-none-eabi/include/c++/10.3.1/bits/allocator.h **** #if __cplusplus >= 201103L
 154:/Library/DaisyToolchain/0.1.3-ARM/arm/arm-none-eabi/include/c++/10.3.1/bits/allocator.h ****       // _GLIBCXX_RESOLVE_LIB_DEFECTS
 155:/Library/DaisyToolchain/0.1.3-ARM/arm/arm-none-eabi/include/c++/10.3.1/bits/allocator.h ****       // 2103. std::allocator propagate_on_container_move_assignment
 156:/Library/DaisyToolchain/0.1.3-ARM/arm/arm-none-eabi/include/c++/10.3.1/bits/allocator.h ****       typedef true_type propagate_on_container_move_assignment;
 157:/Library/DaisyToolchain/0.1.3-ARM/arm/arm-none-eabi/include/c++/10.3.1/bits/allocator.h **** 
 158:/Library/DaisyToolchain/0.1.3-ARM/arm/arm-none-eabi/include/c++/10.3.1/bits/allocator.h ****       typedef true_type is_always_equal;
 159:/Library/DaisyToolchain/0.1.3-ARM/arm/arm-none-eabi/include/c++/10.3.1/bits/allocator.h **** #endif
 160:/Library/DaisyToolchain/0.1.3-ARM/arm/arm-none-eabi/include/c++/10.3.1/bits/allocator.h **** 
 161:/Library/DaisyToolchain/0.1.3-ARM/arm/arm-none-eabi/include/c++/10.3.1/bits/allocator.h ****       // _GLIBCXX_RESOLVE_LIB_DEFECTS
 162:/Library/DaisyToolchain/0.1.3-ARM/arm/arm-none-eabi/include/c++/10.3.1/bits/allocator.h ****       // 3035. std::allocator's constructors should be constexpr
 163:/Library/DaisyToolchain/0.1.3-ARM/arm/arm-none-eabi/include/c++/10.3.1/bits/allocator.h ****       _GLIBCXX20_CONSTEXPR
 164:/Library/DaisyToolchain/0.1.3-ARM/arm/arm-none-eabi/include/c++/10.3.1/bits/allocator.h ****       allocator() _GLIBCXX_NOTHROW { }
 3212              		.loc 11 164 7 view .LVU856
 3213              	.LBB899:
 3214              	.LBI899:
 3215              		.file 12 "/Library/DaisyToolchain/0.1.3-ARM/arm/arm-none-eabi/include/c++/10.3.1/ext/new_allocator
   1:/Library/DaisyToolchain/0.1.3-ARM/arm/arm-none-eabi/include/c++/10.3.1/ext/new_allocator.h **** // Allocator that wraps operator new -*- C++ -*-
   2:/Library/DaisyToolchain/0.1.3-ARM/arm/arm-none-eabi/include/c++/10.3.1/ext/new_allocator.h **** 
   3:/Library/DaisyToolchain/0.1.3-ARM/arm/arm-none-eabi/include/c++/10.3.1/ext/new_allocator.h **** // Copyright (C) 2001-2020 Free Software Foundation, Inc.
   4:/Library/DaisyToolchain/0.1.3-ARM/arm/arm-none-eabi/include/c++/10.3.1/ext/new_allocator.h **** //
   5:/Library/DaisyToolchain/0.1.3-ARM/arm/arm-none-eabi/include/c++/10.3.1/ext/new_allocator.h **** // This file is part of the GNU ISO C++ Library.  This library is free
   6:/Library/DaisyToolchain/0.1.3-ARM/arm/arm-none-eabi/include/c++/10.3.1/ext/new_allocator.h **** // software; you can redistribute it and/or modify it under the
   7:/Library/DaisyToolchain/0.1.3-ARM/arm/arm-none-eabi/include/c++/10.3.1/ext/new_allocator.h **** // terms of the GNU General Public License as published by the
   8:/Library/DaisyToolchain/0.1.3-ARM/arm/arm-none-eabi/include/c++/10.3.1/ext/new_allocator.h **** // Free Software Foundation; either version 3, or (at your option)
   9:/Library/DaisyToolchain/0.1.3-ARM/arm/arm-none-eabi/include/c++/10.3.1/ext/new_allocator.h **** // any later version.
  10:/Library/DaisyToolchain/0.1.3-ARM/arm/arm-none-eabi/include/c++/10.3.1/ext/new_allocator.h **** 
  11:/Library/DaisyToolchain/0.1.3-ARM/arm/arm-none-eabi/include/c++/10.3.1/ext/new_allocator.h **** // This library is distributed in the hope that it will be useful,
  12:/Library/DaisyToolchain/0.1.3-ARM/arm/arm-none-eabi/include/c++/10.3.1/ext/new_allocator.h **** // but WITHOUT ANY WARRANTY; without even the implied warranty of
  13:/Library/DaisyToolchain/0.1.3-ARM/arm/arm-none-eabi/include/c++/10.3.1/ext/new_allocator.h **** // MERCHANTABILITY or FITNESS FOR A PARTICULAR PURPOSE.  See the
  14:/Library/DaisyToolchain/0.1.3-ARM/arm/arm-none-eabi/include/c++/10.3.1/ext/new_allocator.h **** // GNU General Public License for more details.
  15:/Library/DaisyToolchain/0.1.3-ARM/arm/arm-none-eabi/include/c++/10.3.1/ext/new_allocator.h **** 
  16:/Library/DaisyToolchain/0.1.3-ARM/arm/arm-none-eabi/include/c++/10.3.1/ext/new_allocator.h **** // Under Section 7 of GPL version 3, you are granted additional
  17:/Library/DaisyToolchain/0.1.3-ARM/arm/arm-none-eabi/include/c++/10.3.1/ext/new_allocator.h **** // permissions described in the GCC Runtime Library Exception, version
  18:/Library/DaisyToolchain/0.1.3-ARM/arm/arm-none-eabi/include/c++/10.3.1/ext/new_allocator.h **** // 3.1, as published by the Free Software Foundation.
  19:/Library/DaisyToolchain/0.1.3-ARM/arm/arm-none-eabi/include/c++/10.3.1/ext/new_allocator.h **** 
  20:/Library/DaisyToolchain/0.1.3-ARM/arm/arm-none-eabi/include/c++/10.3.1/ext/new_allocator.h **** // You should have received a copy of the GNU General Public License and
  21:/Library/DaisyToolchain/0.1.3-ARM/arm/arm-none-eabi/include/c++/10.3.1/ext/new_allocator.h **** // a copy of the GCC Runtime Library Exception along with this program;
  22:/Library/DaisyToolchain/0.1.3-ARM/arm/arm-none-eabi/include/c++/10.3.1/ext/new_allocator.h **** // see the files COPYING3 and COPYING.RUNTIME respectively.  If not, see
  23:/Library/DaisyToolchain/0.1.3-ARM/arm/arm-none-eabi/include/c++/10.3.1/ext/new_allocator.h **** // <http://www.gnu.org/licenses/>.
  24:/Library/DaisyToolchain/0.1.3-ARM/arm/arm-none-eabi/include/c++/10.3.1/ext/new_allocator.h **** 
  25:/Library/DaisyToolchain/0.1.3-ARM/arm/arm-none-eabi/include/c++/10.3.1/ext/new_allocator.h **** /** @file ext/new_allocator.h
  26:/Library/DaisyToolchain/0.1.3-ARM/arm/arm-none-eabi/include/c++/10.3.1/ext/new_allocator.h ****  *  This file is a GNU extension to the Standard C++ Library.
  27:/Library/DaisyToolchain/0.1.3-ARM/arm/arm-none-eabi/include/c++/10.3.1/ext/new_allocator.h ****  */
  28:/Library/DaisyToolchain/0.1.3-ARM/arm/arm-none-eabi/include/c++/10.3.1/ext/new_allocator.h **** 
  29:/Library/DaisyToolchain/0.1.3-ARM/arm/arm-none-eabi/include/c++/10.3.1/ext/new_allocator.h **** #ifndef _NEW_ALLOCATOR_H
  30:/Library/DaisyToolchain/0.1.3-ARM/arm/arm-none-eabi/include/c++/10.3.1/ext/new_allocator.h **** #define _NEW_ALLOCATOR_H 1
  31:/Library/DaisyToolchain/0.1.3-ARM/arm/arm-none-eabi/include/c++/10.3.1/ext/new_allocator.h **** 
  32:/Library/DaisyToolchain/0.1.3-ARM/arm/arm-none-eabi/include/c++/10.3.1/ext/new_allocator.h **** #include <bits/c++config.h>
  33:/Library/DaisyToolchain/0.1.3-ARM/arm/arm-none-eabi/include/c++/10.3.1/ext/new_allocator.h **** #include <new>
  34:/Library/DaisyToolchain/0.1.3-ARM/arm/arm-none-eabi/include/c++/10.3.1/ext/new_allocator.h **** #include <bits/functexcept.h>
  35:/Library/DaisyToolchain/0.1.3-ARM/arm/arm-none-eabi/include/c++/10.3.1/ext/new_allocator.h **** #include <bits/move.h>
  36:/Library/DaisyToolchain/0.1.3-ARM/arm/arm-none-eabi/include/c++/10.3.1/ext/new_allocator.h **** #if __cplusplus >= 201103L
  37:/Library/DaisyToolchain/0.1.3-ARM/arm/arm-none-eabi/include/c++/10.3.1/ext/new_allocator.h **** #include <type_traits>
  38:/Library/DaisyToolchain/0.1.3-ARM/arm/arm-none-eabi/include/c++/10.3.1/ext/new_allocator.h **** #endif
  39:/Library/DaisyToolchain/0.1.3-ARM/arm/arm-none-eabi/include/c++/10.3.1/ext/new_allocator.h **** 
  40:/Library/DaisyToolchain/0.1.3-ARM/arm/arm-none-eabi/include/c++/10.3.1/ext/new_allocator.h **** namespace __gnu_cxx _GLIBCXX_VISIBILITY(default)
ARM GAS  /var/folders/xd/16jvbr6j24q9nvtpm0qtw3240000gn/T//cch9jPA2.s 			page 103


  41:/Library/DaisyToolchain/0.1.3-ARM/arm/arm-none-eabi/include/c++/10.3.1/ext/new_allocator.h **** {
  42:/Library/DaisyToolchain/0.1.3-ARM/arm/arm-none-eabi/include/c++/10.3.1/ext/new_allocator.h **** _GLIBCXX_BEGIN_NAMESPACE_VERSION
  43:/Library/DaisyToolchain/0.1.3-ARM/arm/arm-none-eabi/include/c++/10.3.1/ext/new_allocator.h **** 
  44:/Library/DaisyToolchain/0.1.3-ARM/arm/arm-none-eabi/include/c++/10.3.1/ext/new_allocator.h ****   /**
  45:/Library/DaisyToolchain/0.1.3-ARM/arm/arm-none-eabi/include/c++/10.3.1/ext/new_allocator.h ****    *  @brief  An allocator that uses global new, as per C++03 [20.4.1].
  46:/Library/DaisyToolchain/0.1.3-ARM/arm/arm-none-eabi/include/c++/10.3.1/ext/new_allocator.h ****    *  @ingroup allocators
  47:/Library/DaisyToolchain/0.1.3-ARM/arm/arm-none-eabi/include/c++/10.3.1/ext/new_allocator.h ****    *
  48:/Library/DaisyToolchain/0.1.3-ARM/arm/arm-none-eabi/include/c++/10.3.1/ext/new_allocator.h ****    *  This is precisely the allocator defined in the C++ Standard.
  49:/Library/DaisyToolchain/0.1.3-ARM/arm/arm-none-eabi/include/c++/10.3.1/ext/new_allocator.h ****    *    - all allocation calls operator new
  50:/Library/DaisyToolchain/0.1.3-ARM/arm/arm-none-eabi/include/c++/10.3.1/ext/new_allocator.h ****    *    - all deallocation calls operator delete
  51:/Library/DaisyToolchain/0.1.3-ARM/arm/arm-none-eabi/include/c++/10.3.1/ext/new_allocator.h ****    *
  52:/Library/DaisyToolchain/0.1.3-ARM/arm/arm-none-eabi/include/c++/10.3.1/ext/new_allocator.h ****    *  @tparam  _Tp  Type of allocated object.
  53:/Library/DaisyToolchain/0.1.3-ARM/arm/arm-none-eabi/include/c++/10.3.1/ext/new_allocator.h ****    */
  54:/Library/DaisyToolchain/0.1.3-ARM/arm/arm-none-eabi/include/c++/10.3.1/ext/new_allocator.h ****   template<typename _Tp>
  55:/Library/DaisyToolchain/0.1.3-ARM/arm/arm-none-eabi/include/c++/10.3.1/ext/new_allocator.h ****     class new_allocator
  56:/Library/DaisyToolchain/0.1.3-ARM/arm/arm-none-eabi/include/c++/10.3.1/ext/new_allocator.h ****     {
  57:/Library/DaisyToolchain/0.1.3-ARM/arm/arm-none-eabi/include/c++/10.3.1/ext/new_allocator.h ****     public:
  58:/Library/DaisyToolchain/0.1.3-ARM/arm/arm-none-eabi/include/c++/10.3.1/ext/new_allocator.h ****       typedef _Tp        value_type;
  59:/Library/DaisyToolchain/0.1.3-ARM/arm/arm-none-eabi/include/c++/10.3.1/ext/new_allocator.h ****       typedef std::size_t     size_type;
  60:/Library/DaisyToolchain/0.1.3-ARM/arm/arm-none-eabi/include/c++/10.3.1/ext/new_allocator.h ****       typedef std::ptrdiff_t  difference_type;
  61:/Library/DaisyToolchain/0.1.3-ARM/arm/arm-none-eabi/include/c++/10.3.1/ext/new_allocator.h **** #if __cplusplus <= 201703L
  62:/Library/DaisyToolchain/0.1.3-ARM/arm/arm-none-eabi/include/c++/10.3.1/ext/new_allocator.h ****       typedef _Tp*       pointer;
  63:/Library/DaisyToolchain/0.1.3-ARM/arm/arm-none-eabi/include/c++/10.3.1/ext/new_allocator.h ****       typedef const _Tp* const_pointer;
  64:/Library/DaisyToolchain/0.1.3-ARM/arm/arm-none-eabi/include/c++/10.3.1/ext/new_allocator.h ****       typedef _Tp&       reference;
  65:/Library/DaisyToolchain/0.1.3-ARM/arm/arm-none-eabi/include/c++/10.3.1/ext/new_allocator.h ****       typedef const _Tp& const_reference;
  66:/Library/DaisyToolchain/0.1.3-ARM/arm/arm-none-eabi/include/c++/10.3.1/ext/new_allocator.h **** 
  67:/Library/DaisyToolchain/0.1.3-ARM/arm/arm-none-eabi/include/c++/10.3.1/ext/new_allocator.h ****       template<typename _Tp1>
  68:/Library/DaisyToolchain/0.1.3-ARM/arm/arm-none-eabi/include/c++/10.3.1/ext/new_allocator.h **** 	struct rebind
  69:/Library/DaisyToolchain/0.1.3-ARM/arm/arm-none-eabi/include/c++/10.3.1/ext/new_allocator.h **** 	{ typedef new_allocator<_Tp1> other; };
  70:/Library/DaisyToolchain/0.1.3-ARM/arm/arm-none-eabi/include/c++/10.3.1/ext/new_allocator.h **** #endif
  71:/Library/DaisyToolchain/0.1.3-ARM/arm/arm-none-eabi/include/c++/10.3.1/ext/new_allocator.h **** 
  72:/Library/DaisyToolchain/0.1.3-ARM/arm/arm-none-eabi/include/c++/10.3.1/ext/new_allocator.h **** #if __cplusplus >= 201103L
  73:/Library/DaisyToolchain/0.1.3-ARM/arm/arm-none-eabi/include/c++/10.3.1/ext/new_allocator.h ****       // _GLIBCXX_RESOLVE_LIB_DEFECTS
  74:/Library/DaisyToolchain/0.1.3-ARM/arm/arm-none-eabi/include/c++/10.3.1/ext/new_allocator.h ****       // 2103. propagate_on_container_move_assignment
  75:/Library/DaisyToolchain/0.1.3-ARM/arm/arm-none-eabi/include/c++/10.3.1/ext/new_allocator.h ****       typedef std::true_type propagate_on_container_move_assignment;
  76:/Library/DaisyToolchain/0.1.3-ARM/arm/arm-none-eabi/include/c++/10.3.1/ext/new_allocator.h **** #endif
  77:/Library/DaisyToolchain/0.1.3-ARM/arm/arm-none-eabi/include/c++/10.3.1/ext/new_allocator.h **** 
  78:/Library/DaisyToolchain/0.1.3-ARM/arm/arm-none-eabi/include/c++/10.3.1/ext/new_allocator.h ****       _GLIBCXX20_CONSTEXPR
  79:/Library/DaisyToolchain/0.1.3-ARM/arm/arm-none-eabi/include/c++/10.3.1/ext/new_allocator.h ****       new_allocator() _GLIBCXX_USE_NOEXCEPT { }
 3216              		.loc 12 79 7 view .LVU857
 3217              		.loc 12 79 7 is_stmt 0 view .LVU858
 3218              	.LBE899:
 3219              	.LBE898:
 3220              	.LBB900:
 3221              	.LBI900:
  97:/Library/DaisyToolchain/0.1.3-ARM/arm/arm-none-eabi/include/c++/10.3.1/bits/stl_vector.h **** 	: _M_start(), _M_finish(), _M_end_of_storage()
 3222              		.loc 10 97 2 is_stmt 1 view .LVU859
  97:/Library/DaisyToolchain/0.1.3-ARM/arm/arm-none-eabi/include/c++/10.3.1/bits/stl_vector.h **** 	: _M_start(), _M_finish(), _M_end_of_storage()
 3223              		.loc 10 97 2 is_stmt 0 view .LVU860
 3224              	.LBE900:
 3225              	.LBE897:
 3226              	.LBE896:
 3227              	.LBE895:
 633:time_machine_hardware.cpp ****         test.resize(size);
 3228              		.loc 1 633 9 is_stmt 1 view .LVU861
 3229              	.LBB901:
 3230              	.LBI901:
ARM GAS  /var/folders/xd/16jvbr6j24q9nvtpm0qtw3240000gn/T//cch9jPA2.s 			page 104


 488:/Library/DaisyToolchain/0.1.3-ARM/arm/arm-none-eabi/include/c++/10.3.1/bits/stl_vector.h **** #else
 489:/Library/DaisyToolchain/0.1.3-ARM/arm/arm-none-eabi/include/c++/10.3.1/bits/stl_vector.h ****       vector() { }
 490:/Library/DaisyToolchain/0.1.3-ARM/arm/arm-none-eabi/include/c++/10.3.1/bits/stl_vector.h **** #endif
 491:/Library/DaisyToolchain/0.1.3-ARM/arm/arm-none-eabi/include/c++/10.3.1/bits/stl_vector.h **** 
 492:/Library/DaisyToolchain/0.1.3-ARM/arm/arm-none-eabi/include/c++/10.3.1/bits/stl_vector.h ****       /**
 493:/Library/DaisyToolchain/0.1.3-ARM/arm/arm-none-eabi/include/c++/10.3.1/bits/stl_vector.h ****        *  @brief  Creates a %vector with no elements.
 494:/Library/DaisyToolchain/0.1.3-ARM/arm/arm-none-eabi/include/c++/10.3.1/bits/stl_vector.h ****        *  @param  __a  An allocator object.
 495:/Library/DaisyToolchain/0.1.3-ARM/arm/arm-none-eabi/include/c++/10.3.1/bits/stl_vector.h ****        */
 496:/Library/DaisyToolchain/0.1.3-ARM/arm/arm-none-eabi/include/c++/10.3.1/bits/stl_vector.h ****       explicit
 497:/Library/DaisyToolchain/0.1.3-ARM/arm/arm-none-eabi/include/c++/10.3.1/bits/stl_vector.h ****       vector(const allocator_type& __a) _GLIBCXX_NOEXCEPT
 498:/Library/DaisyToolchain/0.1.3-ARM/arm/arm-none-eabi/include/c++/10.3.1/bits/stl_vector.h ****       : _Base(__a) { }
 499:/Library/DaisyToolchain/0.1.3-ARM/arm/arm-none-eabi/include/c++/10.3.1/bits/stl_vector.h **** 
 500:/Library/DaisyToolchain/0.1.3-ARM/arm/arm-none-eabi/include/c++/10.3.1/bits/stl_vector.h **** #if __cplusplus >= 201103L
 501:/Library/DaisyToolchain/0.1.3-ARM/arm/arm-none-eabi/include/c++/10.3.1/bits/stl_vector.h ****       /**
 502:/Library/DaisyToolchain/0.1.3-ARM/arm/arm-none-eabi/include/c++/10.3.1/bits/stl_vector.h ****        *  @brief  Creates a %vector with default constructed elements.
 503:/Library/DaisyToolchain/0.1.3-ARM/arm/arm-none-eabi/include/c++/10.3.1/bits/stl_vector.h ****        *  @param  __n  The number of elements to initially create.
 504:/Library/DaisyToolchain/0.1.3-ARM/arm/arm-none-eabi/include/c++/10.3.1/bits/stl_vector.h ****        *  @param  __a  An allocator.
 505:/Library/DaisyToolchain/0.1.3-ARM/arm/arm-none-eabi/include/c++/10.3.1/bits/stl_vector.h ****        *
 506:/Library/DaisyToolchain/0.1.3-ARM/arm/arm-none-eabi/include/c++/10.3.1/bits/stl_vector.h ****        *  This constructor fills the %vector with @a __n default
 507:/Library/DaisyToolchain/0.1.3-ARM/arm/arm-none-eabi/include/c++/10.3.1/bits/stl_vector.h ****        *  constructed elements.
 508:/Library/DaisyToolchain/0.1.3-ARM/arm/arm-none-eabi/include/c++/10.3.1/bits/stl_vector.h ****        */
 509:/Library/DaisyToolchain/0.1.3-ARM/arm/arm-none-eabi/include/c++/10.3.1/bits/stl_vector.h ****       explicit
 510:/Library/DaisyToolchain/0.1.3-ARM/arm/arm-none-eabi/include/c++/10.3.1/bits/stl_vector.h ****       vector(size_type __n, const allocator_type& __a = allocator_type())
 511:/Library/DaisyToolchain/0.1.3-ARM/arm/arm-none-eabi/include/c++/10.3.1/bits/stl_vector.h ****       : _Base(_S_check_init_len(__n, __a), __a)
 512:/Library/DaisyToolchain/0.1.3-ARM/arm/arm-none-eabi/include/c++/10.3.1/bits/stl_vector.h ****       { _M_default_initialize(__n); }
 513:/Library/DaisyToolchain/0.1.3-ARM/arm/arm-none-eabi/include/c++/10.3.1/bits/stl_vector.h **** 
 514:/Library/DaisyToolchain/0.1.3-ARM/arm/arm-none-eabi/include/c++/10.3.1/bits/stl_vector.h ****       /**
 515:/Library/DaisyToolchain/0.1.3-ARM/arm/arm-none-eabi/include/c++/10.3.1/bits/stl_vector.h ****        *  @brief  Creates a %vector with copies of an exemplar element.
 516:/Library/DaisyToolchain/0.1.3-ARM/arm/arm-none-eabi/include/c++/10.3.1/bits/stl_vector.h ****        *  @param  __n  The number of elements to initially create.
 517:/Library/DaisyToolchain/0.1.3-ARM/arm/arm-none-eabi/include/c++/10.3.1/bits/stl_vector.h ****        *  @param  __value  An element to copy.
 518:/Library/DaisyToolchain/0.1.3-ARM/arm/arm-none-eabi/include/c++/10.3.1/bits/stl_vector.h ****        *  @param  __a  An allocator.
 519:/Library/DaisyToolchain/0.1.3-ARM/arm/arm-none-eabi/include/c++/10.3.1/bits/stl_vector.h ****        *
 520:/Library/DaisyToolchain/0.1.3-ARM/arm/arm-none-eabi/include/c++/10.3.1/bits/stl_vector.h ****        *  This constructor fills the %vector with @a __n copies of @a __value.
 521:/Library/DaisyToolchain/0.1.3-ARM/arm/arm-none-eabi/include/c++/10.3.1/bits/stl_vector.h ****        */
 522:/Library/DaisyToolchain/0.1.3-ARM/arm/arm-none-eabi/include/c++/10.3.1/bits/stl_vector.h ****       vector(size_type __n, const value_type& __value,
 523:/Library/DaisyToolchain/0.1.3-ARM/arm/arm-none-eabi/include/c++/10.3.1/bits/stl_vector.h **** 	     const allocator_type& __a = allocator_type())
 524:/Library/DaisyToolchain/0.1.3-ARM/arm/arm-none-eabi/include/c++/10.3.1/bits/stl_vector.h ****       : _Base(_S_check_init_len(__n, __a), __a)
 525:/Library/DaisyToolchain/0.1.3-ARM/arm/arm-none-eabi/include/c++/10.3.1/bits/stl_vector.h ****       { _M_fill_initialize(__n, __value); }
 526:/Library/DaisyToolchain/0.1.3-ARM/arm/arm-none-eabi/include/c++/10.3.1/bits/stl_vector.h **** #else
 527:/Library/DaisyToolchain/0.1.3-ARM/arm/arm-none-eabi/include/c++/10.3.1/bits/stl_vector.h ****       /**
 528:/Library/DaisyToolchain/0.1.3-ARM/arm/arm-none-eabi/include/c++/10.3.1/bits/stl_vector.h ****        *  @brief  Creates a %vector with copies of an exemplar element.
 529:/Library/DaisyToolchain/0.1.3-ARM/arm/arm-none-eabi/include/c++/10.3.1/bits/stl_vector.h ****        *  @param  __n  The number of elements to initially create.
 530:/Library/DaisyToolchain/0.1.3-ARM/arm/arm-none-eabi/include/c++/10.3.1/bits/stl_vector.h ****        *  @param  __value  An element to copy.
 531:/Library/DaisyToolchain/0.1.3-ARM/arm/arm-none-eabi/include/c++/10.3.1/bits/stl_vector.h ****        *  @param  __a  An allocator.
 532:/Library/DaisyToolchain/0.1.3-ARM/arm/arm-none-eabi/include/c++/10.3.1/bits/stl_vector.h ****        *
 533:/Library/DaisyToolchain/0.1.3-ARM/arm/arm-none-eabi/include/c++/10.3.1/bits/stl_vector.h ****        *  This constructor fills the %vector with @a __n copies of @a __value.
 534:/Library/DaisyToolchain/0.1.3-ARM/arm/arm-none-eabi/include/c++/10.3.1/bits/stl_vector.h ****        */
 535:/Library/DaisyToolchain/0.1.3-ARM/arm/arm-none-eabi/include/c++/10.3.1/bits/stl_vector.h ****       explicit
 536:/Library/DaisyToolchain/0.1.3-ARM/arm/arm-none-eabi/include/c++/10.3.1/bits/stl_vector.h ****       vector(size_type __n, const value_type& __value = value_type(),
 537:/Library/DaisyToolchain/0.1.3-ARM/arm/arm-none-eabi/include/c++/10.3.1/bits/stl_vector.h **** 	     const allocator_type& __a = allocator_type())
 538:/Library/DaisyToolchain/0.1.3-ARM/arm/arm-none-eabi/include/c++/10.3.1/bits/stl_vector.h ****       : _Base(_S_check_init_len(__n, __a), __a)
 539:/Library/DaisyToolchain/0.1.3-ARM/arm/arm-none-eabi/include/c++/10.3.1/bits/stl_vector.h ****       { _M_fill_initialize(__n, __value); }
 540:/Library/DaisyToolchain/0.1.3-ARM/arm/arm-none-eabi/include/c++/10.3.1/bits/stl_vector.h **** #endif
 541:/Library/DaisyToolchain/0.1.3-ARM/arm/arm-none-eabi/include/c++/10.3.1/bits/stl_vector.h **** 
 542:/Library/DaisyToolchain/0.1.3-ARM/arm/arm-none-eabi/include/c++/10.3.1/bits/stl_vector.h ****       /**
 543:/Library/DaisyToolchain/0.1.3-ARM/arm/arm-none-eabi/include/c++/10.3.1/bits/stl_vector.h ****        *  @brief  %Vector copy constructor.
 544:/Library/DaisyToolchain/0.1.3-ARM/arm/arm-none-eabi/include/c++/10.3.1/bits/stl_vector.h ****        *  @param  __x  A %vector of identical element and allocator types.
ARM GAS  /var/folders/xd/16jvbr6j24q9nvtpm0qtw3240000gn/T//cch9jPA2.s 			page 105


 545:/Library/DaisyToolchain/0.1.3-ARM/arm/arm-none-eabi/include/c++/10.3.1/bits/stl_vector.h ****        *
 546:/Library/DaisyToolchain/0.1.3-ARM/arm/arm-none-eabi/include/c++/10.3.1/bits/stl_vector.h ****        *  All the elements of @a __x are copied, but any unused capacity in
 547:/Library/DaisyToolchain/0.1.3-ARM/arm/arm-none-eabi/include/c++/10.3.1/bits/stl_vector.h ****        *  @a __x  will not be copied
 548:/Library/DaisyToolchain/0.1.3-ARM/arm/arm-none-eabi/include/c++/10.3.1/bits/stl_vector.h ****        *  (i.e. capacity() == size() in the new %vector).
 549:/Library/DaisyToolchain/0.1.3-ARM/arm/arm-none-eabi/include/c++/10.3.1/bits/stl_vector.h ****        *
 550:/Library/DaisyToolchain/0.1.3-ARM/arm/arm-none-eabi/include/c++/10.3.1/bits/stl_vector.h ****        *  The newly-created %vector uses a copy of the allocator object used
 551:/Library/DaisyToolchain/0.1.3-ARM/arm/arm-none-eabi/include/c++/10.3.1/bits/stl_vector.h ****        *  by @a __x (unless the allocator traits dictate a different object).
 552:/Library/DaisyToolchain/0.1.3-ARM/arm/arm-none-eabi/include/c++/10.3.1/bits/stl_vector.h ****        */
 553:/Library/DaisyToolchain/0.1.3-ARM/arm/arm-none-eabi/include/c++/10.3.1/bits/stl_vector.h ****       vector(const vector& __x)
 554:/Library/DaisyToolchain/0.1.3-ARM/arm/arm-none-eabi/include/c++/10.3.1/bits/stl_vector.h ****       : _Base(__x.size(),
 555:/Library/DaisyToolchain/0.1.3-ARM/arm/arm-none-eabi/include/c++/10.3.1/bits/stl_vector.h **** 	_Alloc_traits::_S_select_on_copy(__x._M_get_Tp_allocator()))
 556:/Library/DaisyToolchain/0.1.3-ARM/arm/arm-none-eabi/include/c++/10.3.1/bits/stl_vector.h ****       {
 557:/Library/DaisyToolchain/0.1.3-ARM/arm/arm-none-eabi/include/c++/10.3.1/bits/stl_vector.h **** 	this->_M_impl._M_finish =
 558:/Library/DaisyToolchain/0.1.3-ARM/arm/arm-none-eabi/include/c++/10.3.1/bits/stl_vector.h **** 	  std::__uninitialized_copy_a(__x.begin(), __x.end(),
 559:/Library/DaisyToolchain/0.1.3-ARM/arm/arm-none-eabi/include/c++/10.3.1/bits/stl_vector.h **** 				      this->_M_impl._M_start,
 560:/Library/DaisyToolchain/0.1.3-ARM/arm/arm-none-eabi/include/c++/10.3.1/bits/stl_vector.h **** 				      _M_get_Tp_allocator());
 561:/Library/DaisyToolchain/0.1.3-ARM/arm/arm-none-eabi/include/c++/10.3.1/bits/stl_vector.h ****       }
 562:/Library/DaisyToolchain/0.1.3-ARM/arm/arm-none-eabi/include/c++/10.3.1/bits/stl_vector.h **** 
 563:/Library/DaisyToolchain/0.1.3-ARM/arm/arm-none-eabi/include/c++/10.3.1/bits/stl_vector.h **** #if __cplusplus >= 201103L
 564:/Library/DaisyToolchain/0.1.3-ARM/arm/arm-none-eabi/include/c++/10.3.1/bits/stl_vector.h ****       /**
 565:/Library/DaisyToolchain/0.1.3-ARM/arm/arm-none-eabi/include/c++/10.3.1/bits/stl_vector.h ****        *  @brief  %Vector move constructor.
 566:/Library/DaisyToolchain/0.1.3-ARM/arm/arm-none-eabi/include/c++/10.3.1/bits/stl_vector.h ****        *
 567:/Library/DaisyToolchain/0.1.3-ARM/arm/arm-none-eabi/include/c++/10.3.1/bits/stl_vector.h ****        *  The newly-created %vector contains the exact contents of the
 568:/Library/DaisyToolchain/0.1.3-ARM/arm/arm-none-eabi/include/c++/10.3.1/bits/stl_vector.h ****        *  moved instance.
 569:/Library/DaisyToolchain/0.1.3-ARM/arm/arm-none-eabi/include/c++/10.3.1/bits/stl_vector.h ****        *  The contents of the moved instance are a valid, but unspecified
 570:/Library/DaisyToolchain/0.1.3-ARM/arm/arm-none-eabi/include/c++/10.3.1/bits/stl_vector.h ****        *  %vector.
 571:/Library/DaisyToolchain/0.1.3-ARM/arm/arm-none-eabi/include/c++/10.3.1/bits/stl_vector.h ****        */
 572:/Library/DaisyToolchain/0.1.3-ARM/arm/arm-none-eabi/include/c++/10.3.1/bits/stl_vector.h ****       vector(vector&&) noexcept = default;
 573:/Library/DaisyToolchain/0.1.3-ARM/arm/arm-none-eabi/include/c++/10.3.1/bits/stl_vector.h **** 
 574:/Library/DaisyToolchain/0.1.3-ARM/arm/arm-none-eabi/include/c++/10.3.1/bits/stl_vector.h ****       /// Copy constructor with alternative allocator
 575:/Library/DaisyToolchain/0.1.3-ARM/arm/arm-none-eabi/include/c++/10.3.1/bits/stl_vector.h ****       vector(const vector& __x, const allocator_type& __a)
 576:/Library/DaisyToolchain/0.1.3-ARM/arm/arm-none-eabi/include/c++/10.3.1/bits/stl_vector.h ****       : _Base(__x.size(), __a)
 577:/Library/DaisyToolchain/0.1.3-ARM/arm/arm-none-eabi/include/c++/10.3.1/bits/stl_vector.h ****       {
 578:/Library/DaisyToolchain/0.1.3-ARM/arm/arm-none-eabi/include/c++/10.3.1/bits/stl_vector.h **** 	this->_M_impl._M_finish =
 579:/Library/DaisyToolchain/0.1.3-ARM/arm/arm-none-eabi/include/c++/10.3.1/bits/stl_vector.h **** 	  std::__uninitialized_copy_a(__x.begin(), __x.end(),
 580:/Library/DaisyToolchain/0.1.3-ARM/arm/arm-none-eabi/include/c++/10.3.1/bits/stl_vector.h **** 				      this->_M_impl._M_start,
 581:/Library/DaisyToolchain/0.1.3-ARM/arm/arm-none-eabi/include/c++/10.3.1/bits/stl_vector.h **** 				      _M_get_Tp_allocator());
 582:/Library/DaisyToolchain/0.1.3-ARM/arm/arm-none-eabi/include/c++/10.3.1/bits/stl_vector.h ****       }
 583:/Library/DaisyToolchain/0.1.3-ARM/arm/arm-none-eabi/include/c++/10.3.1/bits/stl_vector.h **** 
 584:/Library/DaisyToolchain/0.1.3-ARM/arm/arm-none-eabi/include/c++/10.3.1/bits/stl_vector.h ****     private:
 585:/Library/DaisyToolchain/0.1.3-ARM/arm/arm-none-eabi/include/c++/10.3.1/bits/stl_vector.h ****       vector(vector&& __rv, const allocator_type& __m, true_type) noexcept
 586:/Library/DaisyToolchain/0.1.3-ARM/arm/arm-none-eabi/include/c++/10.3.1/bits/stl_vector.h ****       : _Base(__m, std::move(__rv))
 587:/Library/DaisyToolchain/0.1.3-ARM/arm/arm-none-eabi/include/c++/10.3.1/bits/stl_vector.h ****       { }
 588:/Library/DaisyToolchain/0.1.3-ARM/arm/arm-none-eabi/include/c++/10.3.1/bits/stl_vector.h **** 
 589:/Library/DaisyToolchain/0.1.3-ARM/arm/arm-none-eabi/include/c++/10.3.1/bits/stl_vector.h ****       vector(vector&& __rv, const allocator_type& __m, false_type)
 590:/Library/DaisyToolchain/0.1.3-ARM/arm/arm-none-eabi/include/c++/10.3.1/bits/stl_vector.h ****       : _Base(__m)
 591:/Library/DaisyToolchain/0.1.3-ARM/arm/arm-none-eabi/include/c++/10.3.1/bits/stl_vector.h ****       {
 592:/Library/DaisyToolchain/0.1.3-ARM/arm/arm-none-eabi/include/c++/10.3.1/bits/stl_vector.h **** 	if (__rv.get_allocator() == __m)
 593:/Library/DaisyToolchain/0.1.3-ARM/arm/arm-none-eabi/include/c++/10.3.1/bits/stl_vector.h **** 	  this->_M_impl._M_swap_data(__rv._M_impl);
 594:/Library/DaisyToolchain/0.1.3-ARM/arm/arm-none-eabi/include/c++/10.3.1/bits/stl_vector.h **** 	else if (!__rv.empty())
 595:/Library/DaisyToolchain/0.1.3-ARM/arm/arm-none-eabi/include/c++/10.3.1/bits/stl_vector.h **** 	  {
 596:/Library/DaisyToolchain/0.1.3-ARM/arm/arm-none-eabi/include/c++/10.3.1/bits/stl_vector.h **** 	    this->_M_create_storage(__rv.size());
 597:/Library/DaisyToolchain/0.1.3-ARM/arm/arm-none-eabi/include/c++/10.3.1/bits/stl_vector.h **** 	    this->_M_impl._M_finish =
 598:/Library/DaisyToolchain/0.1.3-ARM/arm/arm-none-eabi/include/c++/10.3.1/bits/stl_vector.h **** 	      std::__uninitialized_move_a(__rv.begin(), __rv.end(),
 599:/Library/DaisyToolchain/0.1.3-ARM/arm/arm-none-eabi/include/c++/10.3.1/bits/stl_vector.h **** 					  this->_M_impl._M_start,
 600:/Library/DaisyToolchain/0.1.3-ARM/arm/arm-none-eabi/include/c++/10.3.1/bits/stl_vector.h **** 					  _M_get_Tp_allocator());
 601:/Library/DaisyToolchain/0.1.3-ARM/arm/arm-none-eabi/include/c++/10.3.1/bits/stl_vector.h **** 	    __rv.clear();
ARM GAS  /var/folders/xd/16jvbr6j24q9nvtpm0qtw3240000gn/T//cch9jPA2.s 			page 106


 602:/Library/DaisyToolchain/0.1.3-ARM/arm/arm-none-eabi/include/c++/10.3.1/bits/stl_vector.h **** 	  }
 603:/Library/DaisyToolchain/0.1.3-ARM/arm/arm-none-eabi/include/c++/10.3.1/bits/stl_vector.h ****       }
 604:/Library/DaisyToolchain/0.1.3-ARM/arm/arm-none-eabi/include/c++/10.3.1/bits/stl_vector.h **** 
 605:/Library/DaisyToolchain/0.1.3-ARM/arm/arm-none-eabi/include/c++/10.3.1/bits/stl_vector.h ****     public:
 606:/Library/DaisyToolchain/0.1.3-ARM/arm/arm-none-eabi/include/c++/10.3.1/bits/stl_vector.h ****       /// Move constructor with alternative allocator
 607:/Library/DaisyToolchain/0.1.3-ARM/arm/arm-none-eabi/include/c++/10.3.1/bits/stl_vector.h ****       vector(vector&& __rv, const allocator_type& __m)
 608:/Library/DaisyToolchain/0.1.3-ARM/arm/arm-none-eabi/include/c++/10.3.1/bits/stl_vector.h ****       noexcept( noexcept(
 609:/Library/DaisyToolchain/0.1.3-ARM/arm/arm-none-eabi/include/c++/10.3.1/bits/stl_vector.h **** 	vector(std::declval<vector&&>(), std::declval<const allocator_type&>(),
 610:/Library/DaisyToolchain/0.1.3-ARM/arm/arm-none-eabi/include/c++/10.3.1/bits/stl_vector.h **** 	       std::declval<typename _Alloc_traits::is_always_equal>())) )
 611:/Library/DaisyToolchain/0.1.3-ARM/arm/arm-none-eabi/include/c++/10.3.1/bits/stl_vector.h ****       : vector(std::move(__rv), __m, typename _Alloc_traits::is_always_equal{})
 612:/Library/DaisyToolchain/0.1.3-ARM/arm/arm-none-eabi/include/c++/10.3.1/bits/stl_vector.h ****       { }
 613:/Library/DaisyToolchain/0.1.3-ARM/arm/arm-none-eabi/include/c++/10.3.1/bits/stl_vector.h **** 
 614:/Library/DaisyToolchain/0.1.3-ARM/arm/arm-none-eabi/include/c++/10.3.1/bits/stl_vector.h ****       /**
 615:/Library/DaisyToolchain/0.1.3-ARM/arm/arm-none-eabi/include/c++/10.3.1/bits/stl_vector.h ****        *  @brief  Builds a %vector from an initializer list.
 616:/Library/DaisyToolchain/0.1.3-ARM/arm/arm-none-eabi/include/c++/10.3.1/bits/stl_vector.h ****        *  @param  __l  An initializer_list.
 617:/Library/DaisyToolchain/0.1.3-ARM/arm/arm-none-eabi/include/c++/10.3.1/bits/stl_vector.h ****        *  @param  __a  An allocator.
 618:/Library/DaisyToolchain/0.1.3-ARM/arm/arm-none-eabi/include/c++/10.3.1/bits/stl_vector.h ****        *
 619:/Library/DaisyToolchain/0.1.3-ARM/arm/arm-none-eabi/include/c++/10.3.1/bits/stl_vector.h ****        *  Create a %vector consisting of copies of the elements in the
 620:/Library/DaisyToolchain/0.1.3-ARM/arm/arm-none-eabi/include/c++/10.3.1/bits/stl_vector.h ****        *  initializer_list @a __l.
 621:/Library/DaisyToolchain/0.1.3-ARM/arm/arm-none-eabi/include/c++/10.3.1/bits/stl_vector.h ****        *
 622:/Library/DaisyToolchain/0.1.3-ARM/arm/arm-none-eabi/include/c++/10.3.1/bits/stl_vector.h ****        *  This will call the element type's copy constructor N times
 623:/Library/DaisyToolchain/0.1.3-ARM/arm/arm-none-eabi/include/c++/10.3.1/bits/stl_vector.h ****        *  (where N is @a __l.size()) and do no memory reallocation.
 624:/Library/DaisyToolchain/0.1.3-ARM/arm/arm-none-eabi/include/c++/10.3.1/bits/stl_vector.h ****        */
 625:/Library/DaisyToolchain/0.1.3-ARM/arm/arm-none-eabi/include/c++/10.3.1/bits/stl_vector.h ****       vector(initializer_list<value_type> __l,
 626:/Library/DaisyToolchain/0.1.3-ARM/arm/arm-none-eabi/include/c++/10.3.1/bits/stl_vector.h **** 	     const allocator_type& __a = allocator_type())
 627:/Library/DaisyToolchain/0.1.3-ARM/arm/arm-none-eabi/include/c++/10.3.1/bits/stl_vector.h ****       : _Base(__a)
 628:/Library/DaisyToolchain/0.1.3-ARM/arm/arm-none-eabi/include/c++/10.3.1/bits/stl_vector.h ****       {
 629:/Library/DaisyToolchain/0.1.3-ARM/arm/arm-none-eabi/include/c++/10.3.1/bits/stl_vector.h **** 	_M_range_initialize(__l.begin(), __l.end(),
 630:/Library/DaisyToolchain/0.1.3-ARM/arm/arm-none-eabi/include/c++/10.3.1/bits/stl_vector.h **** 			    random_access_iterator_tag());
 631:/Library/DaisyToolchain/0.1.3-ARM/arm/arm-none-eabi/include/c++/10.3.1/bits/stl_vector.h ****       }
 632:/Library/DaisyToolchain/0.1.3-ARM/arm/arm-none-eabi/include/c++/10.3.1/bits/stl_vector.h **** #endif
 633:/Library/DaisyToolchain/0.1.3-ARM/arm/arm-none-eabi/include/c++/10.3.1/bits/stl_vector.h **** 
 634:/Library/DaisyToolchain/0.1.3-ARM/arm/arm-none-eabi/include/c++/10.3.1/bits/stl_vector.h ****       /**
 635:/Library/DaisyToolchain/0.1.3-ARM/arm/arm-none-eabi/include/c++/10.3.1/bits/stl_vector.h ****        *  @brief  Builds a %vector from a range.
 636:/Library/DaisyToolchain/0.1.3-ARM/arm/arm-none-eabi/include/c++/10.3.1/bits/stl_vector.h ****        *  @param  __first  An input iterator.
 637:/Library/DaisyToolchain/0.1.3-ARM/arm/arm-none-eabi/include/c++/10.3.1/bits/stl_vector.h ****        *  @param  __last  An input iterator.
 638:/Library/DaisyToolchain/0.1.3-ARM/arm/arm-none-eabi/include/c++/10.3.1/bits/stl_vector.h ****        *  @param  __a  An allocator.
 639:/Library/DaisyToolchain/0.1.3-ARM/arm/arm-none-eabi/include/c++/10.3.1/bits/stl_vector.h ****        *
 640:/Library/DaisyToolchain/0.1.3-ARM/arm/arm-none-eabi/include/c++/10.3.1/bits/stl_vector.h ****        *  Create a %vector consisting of copies of the elements from
 641:/Library/DaisyToolchain/0.1.3-ARM/arm/arm-none-eabi/include/c++/10.3.1/bits/stl_vector.h ****        *  [first,last).
 642:/Library/DaisyToolchain/0.1.3-ARM/arm/arm-none-eabi/include/c++/10.3.1/bits/stl_vector.h ****        *
 643:/Library/DaisyToolchain/0.1.3-ARM/arm/arm-none-eabi/include/c++/10.3.1/bits/stl_vector.h ****        *  If the iterators are forward, bidirectional, or
 644:/Library/DaisyToolchain/0.1.3-ARM/arm/arm-none-eabi/include/c++/10.3.1/bits/stl_vector.h ****        *  random-access, then this will call the elements' copy
 645:/Library/DaisyToolchain/0.1.3-ARM/arm/arm-none-eabi/include/c++/10.3.1/bits/stl_vector.h ****        *  constructor N times (where N is distance(first,last)) and do
 646:/Library/DaisyToolchain/0.1.3-ARM/arm/arm-none-eabi/include/c++/10.3.1/bits/stl_vector.h ****        *  no memory reallocation.  But if only input iterators are
 647:/Library/DaisyToolchain/0.1.3-ARM/arm/arm-none-eabi/include/c++/10.3.1/bits/stl_vector.h ****        *  used, then this will do at most 2N calls to the copy
 648:/Library/DaisyToolchain/0.1.3-ARM/arm/arm-none-eabi/include/c++/10.3.1/bits/stl_vector.h ****        *  constructor, and logN memory reallocations.
 649:/Library/DaisyToolchain/0.1.3-ARM/arm/arm-none-eabi/include/c++/10.3.1/bits/stl_vector.h ****        */
 650:/Library/DaisyToolchain/0.1.3-ARM/arm/arm-none-eabi/include/c++/10.3.1/bits/stl_vector.h **** #if __cplusplus >= 201103L
 651:/Library/DaisyToolchain/0.1.3-ARM/arm/arm-none-eabi/include/c++/10.3.1/bits/stl_vector.h ****       template<typename _InputIterator,
 652:/Library/DaisyToolchain/0.1.3-ARM/arm/arm-none-eabi/include/c++/10.3.1/bits/stl_vector.h **** 	       typename = std::_RequireInputIter<_InputIterator>>
 653:/Library/DaisyToolchain/0.1.3-ARM/arm/arm-none-eabi/include/c++/10.3.1/bits/stl_vector.h **** 	vector(_InputIterator __first, _InputIterator __last,
 654:/Library/DaisyToolchain/0.1.3-ARM/arm/arm-none-eabi/include/c++/10.3.1/bits/stl_vector.h **** 	       const allocator_type& __a = allocator_type())
 655:/Library/DaisyToolchain/0.1.3-ARM/arm/arm-none-eabi/include/c++/10.3.1/bits/stl_vector.h **** 	: _Base(__a)
 656:/Library/DaisyToolchain/0.1.3-ARM/arm/arm-none-eabi/include/c++/10.3.1/bits/stl_vector.h **** 	{
 657:/Library/DaisyToolchain/0.1.3-ARM/arm/arm-none-eabi/include/c++/10.3.1/bits/stl_vector.h **** 	  _M_range_initialize(__first, __last,
 658:/Library/DaisyToolchain/0.1.3-ARM/arm/arm-none-eabi/include/c++/10.3.1/bits/stl_vector.h **** 			      std::__iterator_category(__first));
ARM GAS  /var/folders/xd/16jvbr6j24q9nvtpm0qtw3240000gn/T//cch9jPA2.s 			page 107


 659:/Library/DaisyToolchain/0.1.3-ARM/arm/arm-none-eabi/include/c++/10.3.1/bits/stl_vector.h **** 	}
 660:/Library/DaisyToolchain/0.1.3-ARM/arm/arm-none-eabi/include/c++/10.3.1/bits/stl_vector.h **** #else
 661:/Library/DaisyToolchain/0.1.3-ARM/arm/arm-none-eabi/include/c++/10.3.1/bits/stl_vector.h ****       template<typename _InputIterator>
 662:/Library/DaisyToolchain/0.1.3-ARM/arm/arm-none-eabi/include/c++/10.3.1/bits/stl_vector.h **** 	vector(_InputIterator __first, _InputIterator __last,
 663:/Library/DaisyToolchain/0.1.3-ARM/arm/arm-none-eabi/include/c++/10.3.1/bits/stl_vector.h **** 	       const allocator_type& __a = allocator_type())
 664:/Library/DaisyToolchain/0.1.3-ARM/arm/arm-none-eabi/include/c++/10.3.1/bits/stl_vector.h **** 	: _Base(__a)
 665:/Library/DaisyToolchain/0.1.3-ARM/arm/arm-none-eabi/include/c++/10.3.1/bits/stl_vector.h **** 	{
 666:/Library/DaisyToolchain/0.1.3-ARM/arm/arm-none-eabi/include/c++/10.3.1/bits/stl_vector.h **** 	  // Check whether it's an integral type.  If so, it's not an iterator.
 667:/Library/DaisyToolchain/0.1.3-ARM/arm/arm-none-eabi/include/c++/10.3.1/bits/stl_vector.h **** 	  typedef typename std::__is_integer<_InputIterator>::__type _Integral;
 668:/Library/DaisyToolchain/0.1.3-ARM/arm/arm-none-eabi/include/c++/10.3.1/bits/stl_vector.h **** 	  _M_initialize_dispatch(__first, __last, _Integral());
 669:/Library/DaisyToolchain/0.1.3-ARM/arm/arm-none-eabi/include/c++/10.3.1/bits/stl_vector.h **** 	}
 670:/Library/DaisyToolchain/0.1.3-ARM/arm/arm-none-eabi/include/c++/10.3.1/bits/stl_vector.h **** #endif
 671:/Library/DaisyToolchain/0.1.3-ARM/arm/arm-none-eabi/include/c++/10.3.1/bits/stl_vector.h **** 
 672:/Library/DaisyToolchain/0.1.3-ARM/arm/arm-none-eabi/include/c++/10.3.1/bits/stl_vector.h ****       /**
 673:/Library/DaisyToolchain/0.1.3-ARM/arm/arm-none-eabi/include/c++/10.3.1/bits/stl_vector.h ****        *  The dtor only erases the elements, and note that if the
 674:/Library/DaisyToolchain/0.1.3-ARM/arm/arm-none-eabi/include/c++/10.3.1/bits/stl_vector.h ****        *  elements themselves are pointers, the pointed-to memory is
 675:/Library/DaisyToolchain/0.1.3-ARM/arm/arm-none-eabi/include/c++/10.3.1/bits/stl_vector.h ****        *  not touched in any way.  Managing the pointer is the user's
 676:/Library/DaisyToolchain/0.1.3-ARM/arm/arm-none-eabi/include/c++/10.3.1/bits/stl_vector.h ****        *  responsibility.
 677:/Library/DaisyToolchain/0.1.3-ARM/arm/arm-none-eabi/include/c++/10.3.1/bits/stl_vector.h ****        */
 678:/Library/DaisyToolchain/0.1.3-ARM/arm/arm-none-eabi/include/c++/10.3.1/bits/stl_vector.h ****       ~vector() _GLIBCXX_NOEXCEPT
 679:/Library/DaisyToolchain/0.1.3-ARM/arm/arm-none-eabi/include/c++/10.3.1/bits/stl_vector.h ****       {
 680:/Library/DaisyToolchain/0.1.3-ARM/arm/arm-none-eabi/include/c++/10.3.1/bits/stl_vector.h **** 	std::_Destroy(this->_M_impl._M_start, this->_M_impl._M_finish,
 681:/Library/DaisyToolchain/0.1.3-ARM/arm/arm-none-eabi/include/c++/10.3.1/bits/stl_vector.h **** 		      _M_get_Tp_allocator());
 682:/Library/DaisyToolchain/0.1.3-ARM/arm/arm-none-eabi/include/c++/10.3.1/bits/stl_vector.h **** 	_GLIBCXX_ASAN_ANNOTATE_BEFORE_DEALLOC;
 683:/Library/DaisyToolchain/0.1.3-ARM/arm/arm-none-eabi/include/c++/10.3.1/bits/stl_vector.h ****       }
 684:/Library/DaisyToolchain/0.1.3-ARM/arm/arm-none-eabi/include/c++/10.3.1/bits/stl_vector.h **** 
 685:/Library/DaisyToolchain/0.1.3-ARM/arm/arm-none-eabi/include/c++/10.3.1/bits/stl_vector.h ****       /**
 686:/Library/DaisyToolchain/0.1.3-ARM/arm/arm-none-eabi/include/c++/10.3.1/bits/stl_vector.h ****        *  @brief  %Vector assignment operator.
 687:/Library/DaisyToolchain/0.1.3-ARM/arm/arm-none-eabi/include/c++/10.3.1/bits/stl_vector.h ****        *  @param  __x  A %vector of identical element and allocator types.
 688:/Library/DaisyToolchain/0.1.3-ARM/arm/arm-none-eabi/include/c++/10.3.1/bits/stl_vector.h ****        *
 689:/Library/DaisyToolchain/0.1.3-ARM/arm/arm-none-eabi/include/c++/10.3.1/bits/stl_vector.h ****        *  All the elements of @a __x are copied, but any unused capacity in
 690:/Library/DaisyToolchain/0.1.3-ARM/arm/arm-none-eabi/include/c++/10.3.1/bits/stl_vector.h ****        *  @a __x will not be copied.
 691:/Library/DaisyToolchain/0.1.3-ARM/arm/arm-none-eabi/include/c++/10.3.1/bits/stl_vector.h ****        *
 692:/Library/DaisyToolchain/0.1.3-ARM/arm/arm-none-eabi/include/c++/10.3.1/bits/stl_vector.h ****        *  Whether the allocator is copied depends on the allocator traits.
 693:/Library/DaisyToolchain/0.1.3-ARM/arm/arm-none-eabi/include/c++/10.3.1/bits/stl_vector.h ****        */
 694:/Library/DaisyToolchain/0.1.3-ARM/arm/arm-none-eabi/include/c++/10.3.1/bits/stl_vector.h ****       vector&
 695:/Library/DaisyToolchain/0.1.3-ARM/arm/arm-none-eabi/include/c++/10.3.1/bits/stl_vector.h ****       operator=(const vector& __x);
 696:/Library/DaisyToolchain/0.1.3-ARM/arm/arm-none-eabi/include/c++/10.3.1/bits/stl_vector.h **** 
 697:/Library/DaisyToolchain/0.1.3-ARM/arm/arm-none-eabi/include/c++/10.3.1/bits/stl_vector.h **** #if __cplusplus >= 201103L
 698:/Library/DaisyToolchain/0.1.3-ARM/arm/arm-none-eabi/include/c++/10.3.1/bits/stl_vector.h ****       /**
 699:/Library/DaisyToolchain/0.1.3-ARM/arm/arm-none-eabi/include/c++/10.3.1/bits/stl_vector.h ****        *  @brief  %Vector move assignment operator.
 700:/Library/DaisyToolchain/0.1.3-ARM/arm/arm-none-eabi/include/c++/10.3.1/bits/stl_vector.h ****        *  @param  __x  A %vector of identical element and allocator types.
 701:/Library/DaisyToolchain/0.1.3-ARM/arm/arm-none-eabi/include/c++/10.3.1/bits/stl_vector.h ****        *
 702:/Library/DaisyToolchain/0.1.3-ARM/arm/arm-none-eabi/include/c++/10.3.1/bits/stl_vector.h ****        *  The contents of @a __x are moved into this %vector (without copying,
 703:/Library/DaisyToolchain/0.1.3-ARM/arm/arm-none-eabi/include/c++/10.3.1/bits/stl_vector.h ****        *  if the allocators permit it).
 704:/Library/DaisyToolchain/0.1.3-ARM/arm/arm-none-eabi/include/c++/10.3.1/bits/stl_vector.h ****        *  Afterwards @a __x is a valid, but unspecified %vector.
 705:/Library/DaisyToolchain/0.1.3-ARM/arm/arm-none-eabi/include/c++/10.3.1/bits/stl_vector.h ****        *
 706:/Library/DaisyToolchain/0.1.3-ARM/arm/arm-none-eabi/include/c++/10.3.1/bits/stl_vector.h ****        *  Whether the allocator is moved depends on the allocator traits.
 707:/Library/DaisyToolchain/0.1.3-ARM/arm/arm-none-eabi/include/c++/10.3.1/bits/stl_vector.h ****        */
 708:/Library/DaisyToolchain/0.1.3-ARM/arm/arm-none-eabi/include/c++/10.3.1/bits/stl_vector.h ****       vector&
 709:/Library/DaisyToolchain/0.1.3-ARM/arm/arm-none-eabi/include/c++/10.3.1/bits/stl_vector.h ****       operator=(vector&& __x) noexcept(_Alloc_traits::_S_nothrow_move())
 710:/Library/DaisyToolchain/0.1.3-ARM/arm/arm-none-eabi/include/c++/10.3.1/bits/stl_vector.h ****       {
 711:/Library/DaisyToolchain/0.1.3-ARM/arm/arm-none-eabi/include/c++/10.3.1/bits/stl_vector.h **** 	constexpr bool __move_storage =
 712:/Library/DaisyToolchain/0.1.3-ARM/arm/arm-none-eabi/include/c++/10.3.1/bits/stl_vector.h **** 	  _Alloc_traits::_S_propagate_on_move_assign()
 713:/Library/DaisyToolchain/0.1.3-ARM/arm/arm-none-eabi/include/c++/10.3.1/bits/stl_vector.h **** 	  || _Alloc_traits::_S_always_equal();
 714:/Library/DaisyToolchain/0.1.3-ARM/arm/arm-none-eabi/include/c++/10.3.1/bits/stl_vector.h **** 	_M_move_assign(std::move(__x), __bool_constant<__move_storage>());
 715:/Library/DaisyToolchain/0.1.3-ARM/arm/arm-none-eabi/include/c++/10.3.1/bits/stl_vector.h **** 	return *this;
ARM GAS  /var/folders/xd/16jvbr6j24q9nvtpm0qtw3240000gn/T//cch9jPA2.s 			page 108


 716:/Library/DaisyToolchain/0.1.3-ARM/arm/arm-none-eabi/include/c++/10.3.1/bits/stl_vector.h ****       }
 717:/Library/DaisyToolchain/0.1.3-ARM/arm/arm-none-eabi/include/c++/10.3.1/bits/stl_vector.h **** 
 718:/Library/DaisyToolchain/0.1.3-ARM/arm/arm-none-eabi/include/c++/10.3.1/bits/stl_vector.h ****       /**
 719:/Library/DaisyToolchain/0.1.3-ARM/arm/arm-none-eabi/include/c++/10.3.1/bits/stl_vector.h ****        *  @brief  %Vector list assignment operator.
 720:/Library/DaisyToolchain/0.1.3-ARM/arm/arm-none-eabi/include/c++/10.3.1/bits/stl_vector.h ****        *  @param  __l  An initializer_list.
 721:/Library/DaisyToolchain/0.1.3-ARM/arm/arm-none-eabi/include/c++/10.3.1/bits/stl_vector.h ****        *
 722:/Library/DaisyToolchain/0.1.3-ARM/arm/arm-none-eabi/include/c++/10.3.1/bits/stl_vector.h ****        *  This function fills a %vector with copies of the elements in the
 723:/Library/DaisyToolchain/0.1.3-ARM/arm/arm-none-eabi/include/c++/10.3.1/bits/stl_vector.h ****        *  initializer list @a __l.
 724:/Library/DaisyToolchain/0.1.3-ARM/arm/arm-none-eabi/include/c++/10.3.1/bits/stl_vector.h ****        *
 725:/Library/DaisyToolchain/0.1.3-ARM/arm/arm-none-eabi/include/c++/10.3.1/bits/stl_vector.h ****        *  Note that the assignment completely changes the %vector and
 726:/Library/DaisyToolchain/0.1.3-ARM/arm/arm-none-eabi/include/c++/10.3.1/bits/stl_vector.h ****        *  that the resulting %vector's size is the same as the number
 727:/Library/DaisyToolchain/0.1.3-ARM/arm/arm-none-eabi/include/c++/10.3.1/bits/stl_vector.h ****        *  of elements assigned.
 728:/Library/DaisyToolchain/0.1.3-ARM/arm/arm-none-eabi/include/c++/10.3.1/bits/stl_vector.h ****        */
 729:/Library/DaisyToolchain/0.1.3-ARM/arm/arm-none-eabi/include/c++/10.3.1/bits/stl_vector.h ****       vector&
 730:/Library/DaisyToolchain/0.1.3-ARM/arm/arm-none-eabi/include/c++/10.3.1/bits/stl_vector.h ****       operator=(initializer_list<value_type> __l)
 731:/Library/DaisyToolchain/0.1.3-ARM/arm/arm-none-eabi/include/c++/10.3.1/bits/stl_vector.h ****       {
 732:/Library/DaisyToolchain/0.1.3-ARM/arm/arm-none-eabi/include/c++/10.3.1/bits/stl_vector.h **** 	this->_M_assign_aux(__l.begin(), __l.end(),
 733:/Library/DaisyToolchain/0.1.3-ARM/arm/arm-none-eabi/include/c++/10.3.1/bits/stl_vector.h **** 			    random_access_iterator_tag());
 734:/Library/DaisyToolchain/0.1.3-ARM/arm/arm-none-eabi/include/c++/10.3.1/bits/stl_vector.h **** 	return *this;
 735:/Library/DaisyToolchain/0.1.3-ARM/arm/arm-none-eabi/include/c++/10.3.1/bits/stl_vector.h ****       }
 736:/Library/DaisyToolchain/0.1.3-ARM/arm/arm-none-eabi/include/c++/10.3.1/bits/stl_vector.h **** #endif
 737:/Library/DaisyToolchain/0.1.3-ARM/arm/arm-none-eabi/include/c++/10.3.1/bits/stl_vector.h **** 
 738:/Library/DaisyToolchain/0.1.3-ARM/arm/arm-none-eabi/include/c++/10.3.1/bits/stl_vector.h ****       /**
 739:/Library/DaisyToolchain/0.1.3-ARM/arm/arm-none-eabi/include/c++/10.3.1/bits/stl_vector.h ****        *  @brief  Assigns a given value to a %vector.
 740:/Library/DaisyToolchain/0.1.3-ARM/arm/arm-none-eabi/include/c++/10.3.1/bits/stl_vector.h ****        *  @param  __n  Number of elements to be assigned.
 741:/Library/DaisyToolchain/0.1.3-ARM/arm/arm-none-eabi/include/c++/10.3.1/bits/stl_vector.h ****        *  @param  __val  Value to be assigned.
 742:/Library/DaisyToolchain/0.1.3-ARM/arm/arm-none-eabi/include/c++/10.3.1/bits/stl_vector.h ****        *
 743:/Library/DaisyToolchain/0.1.3-ARM/arm/arm-none-eabi/include/c++/10.3.1/bits/stl_vector.h ****        *  This function fills a %vector with @a __n copies of the given
 744:/Library/DaisyToolchain/0.1.3-ARM/arm/arm-none-eabi/include/c++/10.3.1/bits/stl_vector.h ****        *  value.  Note that the assignment completely changes the
 745:/Library/DaisyToolchain/0.1.3-ARM/arm/arm-none-eabi/include/c++/10.3.1/bits/stl_vector.h ****        *  %vector and that the resulting %vector's size is the same as
 746:/Library/DaisyToolchain/0.1.3-ARM/arm/arm-none-eabi/include/c++/10.3.1/bits/stl_vector.h ****        *  the number of elements assigned.
 747:/Library/DaisyToolchain/0.1.3-ARM/arm/arm-none-eabi/include/c++/10.3.1/bits/stl_vector.h ****        */
 748:/Library/DaisyToolchain/0.1.3-ARM/arm/arm-none-eabi/include/c++/10.3.1/bits/stl_vector.h ****       void
 749:/Library/DaisyToolchain/0.1.3-ARM/arm/arm-none-eabi/include/c++/10.3.1/bits/stl_vector.h ****       assign(size_type __n, const value_type& __val)
 750:/Library/DaisyToolchain/0.1.3-ARM/arm/arm-none-eabi/include/c++/10.3.1/bits/stl_vector.h ****       { _M_fill_assign(__n, __val); }
 751:/Library/DaisyToolchain/0.1.3-ARM/arm/arm-none-eabi/include/c++/10.3.1/bits/stl_vector.h **** 
 752:/Library/DaisyToolchain/0.1.3-ARM/arm/arm-none-eabi/include/c++/10.3.1/bits/stl_vector.h ****       /**
 753:/Library/DaisyToolchain/0.1.3-ARM/arm/arm-none-eabi/include/c++/10.3.1/bits/stl_vector.h ****        *  @brief  Assigns a range to a %vector.
 754:/Library/DaisyToolchain/0.1.3-ARM/arm/arm-none-eabi/include/c++/10.3.1/bits/stl_vector.h ****        *  @param  __first  An input iterator.
 755:/Library/DaisyToolchain/0.1.3-ARM/arm/arm-none-eabi/include/c++/10.3.1/bits/stl_vector.h ****        *  @param  __last   An input iterator.
 756:/Library/DaisyToolchain/0.1.3-ARM/arm/arm-none-eabi/include/c++/10.3.1/bits/stl_vector.h ****        *
 757:/Library/DaisyToolchain/0.1.3-ARM/arm/arm-none-eabi/include/c++/10.3.1/bits/stl_vector.h ****        *  This function fills a %vector with copies of the elements in the
 758:/Library/DaisyToolchain/0.1.3-ARM/arm/arm-none-eabi/include/c++/10.3.1/bits/stl_vector.h ****        *  range [__first,__last).
 759:/Library/DaisyToolchain/0.1.3-ARM/arm/arm-none-eabi/include/c++/10.3.1/bits/stl_vector.h ****        *
 760:/Library/DaisyToolchain/0.1.3-ARM/arm/arm-none-eabi/include/c++/10.3.1/bits/stl_vector.h ****        *  Note that the assignment completely changes the %vector and
 761:/Library/DaisyToolchain/0.1.3-ARM/arm/arm-none-eabi/include/c++/10.3.1/bits/stl_vector.h ****        *  that the resulting %vector's size is the same as the number
 762:/Library/DaisyToolchain/0.1.3-ARM/arm/arm-none-eabi/include/c++/10.3.1/bits/stl_vector.h ****        *  of elements assigned.
 763:/Library/DaisyToolchain/0.1.3-ARM/arm/arm-none-eabi/include/c++/10.3.1/bits/stl_vector.h ****        */
 764:/Library/DaisyToolchain/0.1.3-ARM/arm/arm-none-eabi/include/c++/10.3.1/bits/stl_vector.h **** #if __cplusplus >= 201103L
 765:/Library/DaisyToolchain/0.1.3-ARM/arm/arm-none-eabi/include/c++/10.3.1/bits/stl_vector.h ****       template<typename _InputIterator,
 766:/Library/DaisyToolchain/0.1.3-ARM/arm/arm-none-eabi/include/c++/10.3.1/bits/stl_vector.h **** 	       typename = std::_RequireInputIter<_InputIterator>>
 767:/Library/DaisyToolchain/0.1.3-ARM/arm/arm-none-eabi/include/c++/10.3.1/bits/stl_vector.h **** 	void
 768:/Library/DaisyToolchain/0.1.3-ARM/arm/arm-none-eabi/include/c++/10.3.1/bits/stl_vector.h **** 	assign(_InputIterator __first, _InputIterator __last)
 769:/Library/DaisyToolchain/0.1.3-ARM/arm/arm-none-eabi/include/c++/10.3.1/bits/stl_vector.h **** 	{ _M_assign_dispatch(__first, __last, __false_type()); }
 770:/Library/DaisyToolchain/0.1.3-ARM/arm/arm-none-eabi/include/c++/10.3.1/bits/stl_vector.h **** #else
 771:/Library/DaisyToolchain/0.1.3-ARM/arm/arm-none-eabi/include/c++/10.3.1/bits/stl_vector.h ****       template<typename _InputIterator>
 772:/Library/DaisyToolchain/0.1.3-ARM/arm/arm-none-eabi/include/c++/10.3.1/bits/stl_vector.h **** 	void
ARM GAS  /var/folders/xd/16jvbr6j24q9nvtpm0qtw3240000gn/T//cch9jPA2.s 			page 109


 773:/Library/DaisyToolchain/0.1.3-ARM/arm/arm-none-eabi/include/c++/10.3.1/bits/stl_vector.h **** 	assign(_InputIterator __first, _InputIterator __last)
 774:/Library/DaisyToolchain/0.1.3-ARM/arm/arm-none-eabi/include/c++/10.3.1/bits/stl_vector.h **** 	{
 775:/Library/DaisyToolchain/0.1.3-ARM/arm/arm-none-eabi/include/c++/10.3.1/bits/stl_vector.h **** 	  // Check whether it's an integral type.  If so, it's not an iterator.
 776:/Library/DaisyToolchain/0.1.3-ARM/arm/arm-none-eabi/include/c++/10.3.1/bits/stl_vector.h **** 	  typedef typename std::__is_integer<_InputIterator>::__type _Integral;
 777:/Library/DaisyToolchain/0.1.3-ARM/arm/arm-none-eabi/include/c++/10.3.1/bits/stl_vector.h **** 	  _M_assign_dispatch(__first, __last, _Integral());
 778:/Library/DaisyToolchain/0.1.3-ARM/arm/arm-none-eabi/include/c++/10.3.1/bits/stl_vector.h **** 	}
 779:/Library/DaisyToolchain/0.1.3-ARM/arm/arm-none-eabi/include/c++/10.3.1/bits/stl_vector.h **** #endif
 780:/Library/DaisyToolchain/0.1.3-ARM/arm/arm-none-eabi/include/c++/10.3.1/bits/stl_vector.h **** 
 781:/Library/DaisyToolchain/0.1.3-ARM/arm/arm-none-eabi/include/c++/10.3.1/bits/stl_vector.h **** #if __cplusplus >= 201103L
 782:/Library/DaisyToolchain/0.1.3-ARM/arm/arm-none-eabi/include/c++/10.3.1/bits/stl_vector.h ****       /**
 783:/Library/DaisyToolchain/0.1.3-ARM/arm/arm-none-eabi/include/c++/10.3.1/bits/stl_vector.h ****        *  @brief  Assigns an initializer list to a %vector.
 784:/Library/DaisyToolchain/0.1.3-ARM/arm/arm-none-eabi/include/c++/10.3.1/bits/stl_vector.h ****        *  @param  __l  An initializer_list.
 785:/Library/DaisyToolchain/0.1.3-ARM/arm/arm-none-eabi/include/c++/10.3.1/bits/stl_vector.h ****        *
 786:/Library/DaisyToolchain/0.1.3-ARM/arm/arm-none-eabi/include/c++/10.3.1/bits/stl_vector.h ****        *  This function fills a %vector with copies of the elements in the
 787:/Library/DaisyToolchain/0.1.3-ARM/arm/arm-none-eabi/include/c++/10.3.1/bits/stl_vector.h ****        *  initializer list @a __l.
 788:/Library/DaisyToolchain/0.1.3-ARM/arm/arm-none-eabi/include/c++/10.3.1/bits/stl_vector.h ****        *
 789:/Library/DaisyToolchain/0.1.3-ARM/arm/arm-none-eabi/include/c++/10.3.1/bits/stl_vector.h ****        *  Note that the assignment completely changes the %vector and
 790:/Library/DaisyToolchain/0.1.3-ARM/arm/arm-none-eabi/include/c++/10.3.1/bits/stl_vector.h ****        *  that the resulting %vector's size is the same as the number
 791:/Library/DaisyToolchain/0.1.3-ARM/arm/arm-none-eabi/include/c++/10.3.1/bits/stl_vector.h ****        *  of elements assigned.
 792:/Library/DaisyToolchain/0.1.3-ARM/arm/arm-none-eabi/include/c++/10.3.1/bits/stl_vector.h ****        */
 793:/Library/DaisyToolchain/0.1.3-ARM/arm/arm-none-eabi/include/c++/10.3.1/bits/stl_vector.h ****       void
 794:/Library/DaisyToolchain/0.1.3-ARM/arm/arm-none-eabi/include/c++/10.3.1/bits/stl_vector.h ****       assign(initializer_list<value_type> __l)
 795:/Library/DaisyToolchain/0.1.3-ARM/arm/arm-none-eabi/include/c++/10.3.1/bits/stl_vector.h ****       {
 796:/Library/DaisyToolchain/0.1.3-ARM/arm/arm-none-eabi/include/c++/10.3.1/bits/stl_vector.h **** 	this->_M_assign_aux(__l.begin(), __l.end(),
 797:/Library/DaisyToolchain/0.1.3-ARM/arm/arm-none-eabi/include/c++/10.3.1/bits/stl_vector.h **** 			    random_access_iterator_tag());
 798:/Library/DaisyToolchain/0.1.3-ARM/arm/arm-none-eabi/include/c++/10.3.1/bits/stl_vector.h ****       }
 799:/Library/DaisyToolchain/0.1.3-ARM/arm/arm-none-eabi/include/c++/10.3.1/bits/stl_vector.h **** #endif
 800:/Library/DaisyToolchain/0.1.3-ARM/arm/arm-none-eabi/include/c++/10.3.1/bits/stl_vector.h **** 
 801:/Library/DaisyToolchain/0.1.3-ARM/arm/arm-none-eabi/include/c++/10.3.1/bits/stl_vector.h ****       /// Get a copy of the memory allocation object.
 802:/Library/DaisyToolchain/0.1.3-ARM/arm/arm-none-eabi/include/c++/10.3.1/bits/stl_vector.h ****       using _Base::get_allocator;
 803:/Library/DaisyToolchain/0.1.3-ARM/arm/arm-none-eabi/include/c++/10.3.1/bits/stl_vector.h **** 
 804:/Library/DaisyToolchain/0.1.3-ARM/arm/arm-none-eabi/include/c++/10.3.1/bits/stl_vector.h ****       // iterators
 805:/Library/DaisyToolchain/0.1.3-ARM/arm/arm-none-eabi/include/c++/10.3.1/bits/stl_vector.h ****       /**
 806:/Library/DaisyToolchain/0.1.3-ARM/arm/arm-none-eabi/include/c++/10.3.1/bits/stl_vector.h ****        *  Returns a read/write iterator that points to the first
 807:/Library/DaisyToolchain/0.1.3-ARM/arm/arm-none-eabi/include/c++/10.3.1/bits/stl_vector.h ****        *  element in the %vector.  Iteration is done in ordinary
 808:/Library/DaisyToolchain/0.1.3-ARM/arm/arm-none-eabi/include/c++/10.3.1/bits/stl_vector.h ****        *  element order.
 809:/Library/DaisyToolchain/0.1.3-ARM/arm/arm-none-eabi/include/c++/10.3.1/bits/stl_vector.h ****        */
 810:/Library/DaisyToolchain/0.1.3-ARM/arm/arm-none-eabi/include/c++/10.3.1/bits/stl_vector.h ****       iterator
 811:/Library/DaisyToolchain/0.1.3-ARM/arm/arm-none-eabi/include/c++/10.3.1/bits/stl_vector.h ****       begin() _GLIBCXX_NOEXCEPT
 812:/Library/DaisyToolchain/0.1.3-ARM/arm/arm-none-eabi/include/c++/10.3.1/bits/stl_vector.h ****       { return iterator(this->_M_impl._M_start); }
 813:/Library/DaisyToolchain/0.1.3-ARM/arm/arm-none-eabi/include/c++/10.3.1/bits/stl_vector.h **** 
 814:/Library/DaisyToolchain/0.1.3-ARM/arm/arm-none-eabi/include/c++/10.3.1/bits/stl_vector.h ****       /**
 815:/Library/DaisyToolchain/0.1.3-ARM/arm/arm-none-eabi/include/c++/10.3.1/bits/stl_vector.h ****        *  Returns a read-only (constant) iterator that points to the
 816:/Library/DaisyToolchain/0.1.3-ARM/arm/arm-none-eabi/include/c++/10.3.1/bits/stl_vector.h ****        *  first element in the %vector.  Iteration is done in ordinary
 817:/Library/DaisyToolchain/0.1.3-ARM/arm/arm-none-eabi/include/c++/10.3.1/bits/stl_vector.h ****        *  element order.
 818:/Library/DaisyToolchain/0.1.3-ARM/arm/arm-none-eabi/include/c++/10.3.1/bits/stl_vector.h ****        */
 819:/Library/DaisyToolchain/0.1.3-ARM/arm/arm-none-eabi/include/c++/10.3.1/bits/stl_vector.h ****       const_iterator
 820:/Library/DaisyToolchain/0.1.3-ARM/arm/arm-none-eabi/include/c++/10.3.1/bits/stl_vector.h ****       begin() const _GLIBCXX_NOEXCEPT
 821:/Library/DaisyToolchain/0.1.3-ARM/arm/arm-none-eabi/include/c++/10.3.1/bits/stl_vector.h ****       { return const_iterator(this->_M_impl._M_start); }
 822:/Library/DaisyToolchain/0.1.3-ARM/arm/arm-none-eabi/include/c++/10.3.1/bits/stl_vector.h **** 
 823:/Library/DaisyToolchain/0.1.3-ARM/arm/arm-none-eabi/include/c++/10.3.1/bits/stl_vector.h ****       /**
 824:/Library/DaisyToolchain/0.1.3-ARM/arm/arm-none-eabi/include/c++/10.3.1/bits/stl_vector.h ****        *  Returns a read/write iterator that points one past the last
 825:/Library/DaisyToolchain/0.1.3-ARM/arm/arm-none-eabi/include/c++/10.3.1/bits/stl_vector.h ****        *  element in the %vector.  Iteration is done in ordinary
 826:/Library/DaisyToolchain/0.1.3-ARM/arm/arm-none-eabi/include/c++/10.3.1/bits/stl_vector.h ****        *  element order.
 827:/Library/DaisyToolchain/0.1.3-ARM/arm/arm-none-eabi/include/c++/10.3.1/bits/stl_vector.h ****        */
 828:/Library/DaisyToolchain/0.1.3-ARM/arm/arm-none-eabi/include/c++/10.3.1/bits/stl_vector.h ****       iterator
 829:/Library/DaisyToolchain/0.1.3-ARM/arm/arm-none-eabi/include/c++/10.3.1/bits/stl_vector.h ****       end() _GLIBCXX_NOEXCEPT
ARM GAS  /var/folders/xd/16jvbr6j24q9nvtpm0qtw3240000gn/T//cch9jPA2.s 			page 110


 830:/Library/DaisyToolchain/0.1.3-ARM/arm/arm-none-eabi/include/c++/10.3.1/bits/stl_vector.h ****       { return iterator(this->_M_impl._M_finish); }
 831:/Library/DaisyToolchain/0.1.3-ARM/arm/arm-none-eabi/include/c++/10.3.1/bits/stl_vector.h **** 
 832:/Library/DaisyToolchain/0.1.3-ARM/arm/arm-none-eabi/include/c++/10.3.1/bits/stl_vector.h ****       /**
 833:/Library/DaisyToolchain/0.1.3-ARM/arm/arm-none-eabi/include/c++/10.3.1/bits/stl_vector.h ****        *  Returns a read-only (constant) iterator that points one past
 834:/Library/DaisyToolchain/0.1.3-ARM/arm/arm-none-eabi/include/c++/10.3.1/bits/stl_vector.h ****        *  the last element in the %vector.  Iteration is done in
 835:/Library/DaisyToolchain/0.1.3-ARM/arm/arm-none-eabi/include/c++/10.3.1/bits/stl_vector.h ****        *  ordinary element order.
 836:/Library/DaisyToolchain/0.1.3-ARM/arm/arm-none-eabi/include/c++/10.3.1/bits/stl_vector.h ****        */
 837:/Library/DaisyToolchain/0.1.3-ARM/arm/arm-none-eabi/include/c++/10.3.1/bits/stl_vector.h ****       const_iterator
 838:/Library/DaisyToolchain/0.1.3-ARM/arm/arm-none-eabi/include/c++/10.3.1/bits/stl_vector.h ****       end() const _GLIBCXX_NOEXCEPT
 839:/Library/DaisyToolchain/0.1.3-ARM/arm/arm-none-eabi/include/c++/10.3.1/bits/stl_vector.h ****       { return const_iterator(this->_M_impl._M_finish); }
 840:/Library/DaisyToolchain/0.1.3-ARM/arm/arm-none-eabi/include/c++/10.3.1/bits/stl_vector.h **** 
 841:/Library/DaisyToolchain/0.1.3-ARM/arm/arm-none-eabi/include/c++/10.3.1/bits/stl_vector.h ****       /**
 842:/Library/DaisyToolchain/0.1.3-ARM/arm/arm-none-eabi/include/c++/10.3.1/bits/stl_vector.h ****        *  Returns a read/write reverse iterator that points to the
 843:/Library/DaisyToolchain/0.1.3-ARM/arm/arm-none-eabi/include/c++/10.3.1/bits/stl_vector.h ****        *  last element in the %vector.  Iteration is done in reverse
 844:/Library/DaisyToolchain/0.1.3-ARM/arm/arm-none-eabi/include/c++/10.3.1/bits/stl_vector.h ****        *  element order.
 845:/Library/DaisyToolchain/0.1.3-ARM/arm/arm-none-eabi/include/c++/10.3.1/bits/stl_vector.h ****        */
 846:/Library/DaisyToolchain/0.1.3-ARM/arm/arm-none-eabi/include/c++/10.3.1/bits/stl_vector.h ****       reverse_iterator
 847:/Library/DaisyToolchain/0.1.3-ARM/arm/arm-none-eabi/include/c++/10.3.1/bits/stl_vector.h ****       rbegin() _GLIBCXX_NOEXCEPT
 848:/Library/DaisyToolchain/0.1.3-ARM/arm/arm-none-eabi/include/c++/10.3.1/bits/stl_vector.h ****       { return reverse_iterator(end()); }
 849:/Library/DaisyToolchain/0.1.3-ARM/arm/arm-none-eabi/include/c++/10.3.1/bits/stl_vector.h **** 
 850:/Library/DaisyToolchain/0.1.3-ARM/arm/arm-none-eabi/include/c++/10.3.1/bits/stl_vector.h ****       /**
 851:/Library/DaisyToolchain/0.1.3-ARM/arm/arm-none-eabi/include/c++/10.3.1/bits/stl_vector.h ****        *  Returns a read-only (constant) reverse iterator that points
 852:/Library/DaisyToolchain/0.1.3-ARM/arm/arm-none-eabi/include/c++/10.3.1/bits/stl_vector.h ****        *  to the last element in the %vector.  Iteration is done in
 853:/Library/DaisyToolchain/0.1.3-ARM/arm/arm-none-eabi/include/c++/10.3.1/bits/stl_vector.h ****        *  reverse element order.
 854:/Library/DaisyToolchain/0.1.3-ARM/arm/arm-none-eabi/include/c++/10.3.1/bits/stl_vector.h ****        */
 855:/Library/DaisyToolchain/0.1.3-ARM/arm/arm-none-eabi/include/c++/10.3.1/bits/stl_vector.h ****       const_reverse_iterator
 856:/Library/DaisyToolchain/0.1.3-ARM/arm/arm-none-eabi/include/c++/10.3.1/bits/stl_vector.h ****       rbegin() const _GLIBCXX_NOEXCEPT
 857:/Library/DaisyToolchain/0.1.3-ARM/arm/arm-none-eabi/include/c++/10.3.1/bits/stl_vector.h ****       { return const_reverse_iterator(end()); }
 858:/Library/DaisyToolchain/0.1.3-ARM/arm/arm-none-eabi/include/c++/10.3.1/bits/stl_vector.h **** 
 859:/Library/DaisyToolchain/0.1.3-ARM/arm/arm-none-eabi/include/c++/10.3.1/bits/stl_vector.h ****       /**
 860:/Library/DaisyToolchain/0.1.3-ARM/arm/arm-none-eabi/include/c++/10.3.1/bits/stl_vector.h ****        *  Returns a read/write reverse iterator that points to one
 861:/Library/DaisyToolchain/0.1.3-ARM/arm/arm-none-eabi/include/c++/10.3.1/bits/stl_vector.h ****        *  before the first element in the %vector.  Iteration is done
 862:/Library/DaisyToolchain/0.1.3-ARM/arm/arm-none-eabi/include/c++/10.3.1/bits/stl_vector.h ****        *  in reverse element order.
 863:/Library/DaisyToolchain/0.1.3-ARM/arm/arm-none-eabi/include/c++/10.3.1/bits/stl_vector.h ****        */
 864:/Library/DaisyToolchain/0.1.3-ARM/arm/arm-none-eabi/include/c++/10.3.1/bits/stl_vector.h ****       reverse_iterator
 865:/Library/DaisyToolchain/0.1.3-ARM/arm/arm-none-eabi/include/c++/10.3.1/bits/stl_vector.h ****       rend() _GLIBCXX_NOEXCEPT
 866:/Library/DaisyToolchain/0.1.3-ARM/arm/arm-none-eabi/include/c++/10.3.1/bits/stl_vector.h ****       { return reverse_iterator(begin()); }
 867:/Library/DaisyToolchain/0.1.3-ARM/arm/arm-none-eabi/include/c++/10.3.1/bits/stl_vector.h **** 
 868:/Library/DaisyToolchain/0.1.3-ARM/arm/arm-none-eabi/include/c++/10.3.1/bits/stl_vector.h ****       /**
 869:/Library/DaisyToolchain/0.1.3-ARM/arm/arm-none-eabi/include/c++/10.3.1/bits/stl_vector.h ****        *  Returns a read-only (constant) reverse iterator that points
 870:/Library/DaisyToolchain/0.1.3-ARM/arm/arm-none-eabi/include/c++/10.3.1/bits/stl_vector.h ****        *  to one before the first element in the %vector.  Iteration
 871:/Library/DaisyToolchain/0.1.3-ARM/arm/arm-none-eabi/include/c++/10.3.1/bits/stl_vector.h ****        *  is done in reverse element order.
 872:/Library/DaisyToolchain/0.1.3-ARM/arm/arm-none-eabi/include/c++/10.3.1/bits/stl_vector.h ****        */
 873:/Library/DaisyToolchain/0.1.3-ARM/arm/arm-none-eabi/include/c++/10.3.1/bits/stl_vector.h ****       const_reverse_iterator
 874:/Library/DaisyToolchain/0.1.3-ARM/arm/arm-none-eabi/include/c++/10.3.1/bits/stl_vector.h ****       rend() const _GLIBCXX_NOEXCEPT
 875:/Library/DaisyToolchain/0.1.3-ARM/arm/arm-none-eabi/include/c++/10.3.1/bits/stl_vector.h ****       { return const_reverse_iterator(begin()); }
 876:/Library/DaisyToolchain/0.1.3-ARM/arm/arm-none-eabi/include/c++/10.3.1/bits/stl_vector.h **** 
 877:/Library/DaisyToolchain/0.1.3-ARM/arm/arm-none-eabi/include/c++/10.3.1/bits/stl_vector.h **** #if __cplusplus >= 201103L
 878:/Library/DaisyToolchain/0.1.3-ARM/arm/arm-none-eabi/include/c++/10.3.1/bits/stl_vector.h ****       /**
 879:/Library/DaisyToolchain/0.1.3-ARM/arm/arm-none-eabi/include/c++/10.3.1/bits/stl_vector.h ****        *  Returns a read-only (constant) iterator that points to the
 880:/Library/DaisyToolchain/0.1.3-ARM/arm/arm-none-eabi/include/c++/10.3.1/bits/stl_vector.h ****        *  first element in the %vector.  Iteration is done in ordinary
 881:/Library/DaisyToolchain/0.1.3-ARM/arm/arm-none-eabi/include/c++/10.3.1/bits/stl_vector.h ****        *  element order.
 882:/Library/DaisyToolchain/0.1.3-ARM/arm/arm-none-eabi/include/c++/10.3.1/bits/stl_vector.h ****        */
 883:/Library/DaisyToolchain/0.1.3-ARM/arm/arm-none-eabi/include/c++/10.3.1/bits/stl_vector.h ****       const_iterator
 884:/Library/DaisyToolchain/0.1.3-ARM/arm/arm-none-eabi/include/c++/10.3.1/bits/stl_vector.h ****       cbegin() const noexcept
 885:/Library/DaisyToolchain/0.1.3-ARM/arm/arm-none-eabi/include/c++/10.3.1/bits/stl_vector.h ****       { return const_iterator(this->_M_impl._M_start); }
 886:/Library/DaisyToolchain/0.1.3-ARM/arm/arm-none-eabi/include/c++/10.3.1/bits/stl_vector.h **** 
ARM GAS  /var/folders/xd/16jvbr6j24q9nvtpm0qtw3240000gn/T//cch9jPA2.s 			page 111


 887:/Library/DaisyToolchain/0.1.3-ARM/arm/arm-none-eabi/include/c++/10.3.1/bits/stl_vector.h ****       /**
 888:/Library/DaisyToolchain/0.1.3-ARM/arm/arm-none-eabi/include/c++/10.3.1/bits/stl_vector.h ****        *  Returns a read-only (constant) iterator that points one past
 889:/Library/DaisyToolchain/0.1.3-ARM/arm/arm-none-eabi/include/c++/10.3.1/bits/stl_vector.h ****        *  the last element in the %vector.  Iteration is done in
 890:/Library/DaisyToolchain/0.1.3-ARM/arm/arm-none-eabi/include/c++/10.3.1/bits/stl_vector.h ****        *  ordinary element order.
 891:/Library/DaisyToolchain/0.1.3-ARM/arm/arm-none-eabi/include/c++/10.3.1/bits/stl_vector.h ****        */
 892:/Library/DaisyToolchain/0.1.3-ARM/arm/arm-none-eabi/include/c++/10.3.1/bits/stl_vector.h ****       const_iterator
 893:/Library/DaisyToolchain/0.1.3-ARM/arm/arm-none-eabi/include/c++/10.3.1/bits/stl_vector.h ****       cend() const noexcept
 894:/Library/DaisyToolchain/0.1.3-ARM/arm/arm-none-eabi/include/c++/10.3.1/bits/stl_vector.h ****       { return const_iterator(this->_M_impl._M_finish); }
 895:/Library/DaisyToolchain/0.1.3-ARM/arm/arm-none-eabi/include/c++/10.3.1/bits/stl_vector.h **** 
 896:/Library/DaisyToolchain/0.1.3-ARM/arm/arm-none-eabi/include/c++/10.3.1/bits/stl_vector.h ****       /**
 897:/Library/DaisyToolchain/0.1.3-ARM/arm/arm-none-eabi/include/c++/10.3.1/bits/stl_vector.h ****        *  Returns a read-only (constant) reverse iterator that points
 898:/Library/DaisyToolchain/0.1.3-ARM/arm/arm-none-eabi/include/c++/10.3.1/bits/stl_vector.h ****        *  to the last element in the %vector.  Iteration is done in
 899:/Library/DaisyToolchain/0.1.3-ARM/arm/arm-none-eabi/include/c++/10.3.1/bits/stl_vector.h ****        *  reverse element order.
 900:/Library/DaisyToolchain/0.1.3-ARM/arm/arm-none-eabi/include/c++/10.3.1/bits/stl_vector.h ****        */
 901:/Library/DaisyToolchain/0.1.3-ARM/arm/arm-none-eabi/include/c++/10.3.1/bits/stl_vector.h ****       const_reverse_iterator
 902:/Library/DaisyToolchain/0.1.3-ARM/arm/arm-none-eabi/include/c++/10.3.1/bits/stl_vector.h ****       crbegin() const noexcept
 903:/Library/DaisyToolchain/0.1.3-ARM/arm/arm-none-eabi/include/c++/10.3.1/bits/stl_vector.h ****       { return const_reverse_iterator(end()); }
 904:/Library/DaisyToolchain/0.1.3-ARM/arm/arm-none-eabi/include/c++/10.3.1/bits/stl_vector.h **** 
 905:/Library/DaisyToolchain/0.1.3-ARM/arm/arm-none-eabi/include/c++/10.3.1/bits/stl_vector.h ****       /**
 906:/Library/DaisyToolchain/0.1.3-ARM/arm/arm-none-eabi/include/c++/10.3.1/bits/stl_vector.h ****        *  Returns a read-only (constant) reverse iterator that points
 907:/Library/DaisyToolchain/0.1.3-ARM/arm/arm-none-eabi/include/c++/10.3.1/bits/stl_vector.h ****        *  to one before the first element in the %vector.  Iteration
 908:/Library/DaisyToolchain/0.1.3-ARM/arm/arm-none-eabi/include/c++/10.3.1/bits/stl_vector.h ****        *  is done in reverse element order.
 909:/Library/DaisyToolchain/0.1.3-ARM/arm/arm-none-eabi/include/c++/10.3.1/bits/stl_vector.h ****        */
 910:/Library/DaisyToolchain/0.1.3-ARM/arm/arm-none-eabi/include/c++/10.3.1/bits/stl_vector.h ****       const_reverse_iterator
 911:/Library/DaisyToolchain/0.1.3-ARM/arm/arm-none-eabi/include/c++/10.3.1/bits/stl_vector.h ****       crend() const noexcept
 912:/Library/DaisyToolchain/0.1.3-ARM/arm/arm-none-eabi/include/c++/10.3.1/bits/stl_vector.h ****       { return const_reverse_iterator(begin()); }
 913:/Library/DaisyToolchain/0.1.3-ARM/arm/arm-none-eabi/include/c++/10.3.1/bits/stl_vector.h **** #endif
 914:/Library/DaisyToolchain/0.1.3-ARM/arm/arm-none-eabi/include/c++/10.3.1/bits/stl_vector.h **** 
 915:/Library/DaisyToolchain/0.1.3-ARM/arm/arm-none-eabi/include/c++/10.3.1/bits/stl_vector.h ****       // [23.2.4.2] capacity
 916:/Library/DaisyToolchain/0.1.3-ARM/arm/arm-none-eabi/include/c++/10.3.1/bits/stl_vector.h ****       /**  Returns the number of elements in the %vector.  */
 917:/Library/DaisyToolchain/0.1.3-ARM/arm/arm-none-eabi/include/c++/10.3.1/bits/stl_vector.h ****       size_type
 918:/Library/DaisyToolchain/0.1.3-ARM/arm/arm-none-eabi/include/c++/10.3.1/bits/stl_vector.h ****       size() const _GLIBCXX_NOEXCEPT
 919:/Library/DaisyToolchain/0.1.3-ARM/arm/arm-none-eabi/include/c++/10.3.1/bits/stl_vector.h ****       { return size_type(this->_M_impl._M_finish - this->_M_impl._M_start); }
 920:/Library/DaisyToolchain/0.1.3-ARM/arm/arm-none-eabi/include/c++/10.3.1/bits/stl_vector.h **** 
 921:/Library/DaisyToolchain/0.1.3-ARM/arm/arm-none-eabi/include/c++/10.3.1/bits/stl_vector.h ****       /**  Returns the size() of the largest possible %vector.  */
 922:/Library/DaisyToolchain/0.1.3-ARM/arm/arm-none-eabi/include/c++/10.3.1/bits/stl_vector.h ****       size_type
 923:/Library/DaisyToolchain/0.1.3-ARM/arm/arm-none-eabi/include/c++/10.3.1/bits/stl_vector.h ****       max_size() const _GLIBCXX_NOEXCEPT
 924:/Library/DaisyToolchain/0.1.3-ARM/arm/arm-none-eabi/include/c++/10.3.1/bits/stl_vector.h ****       { return _S_max_size(_M_get_Tp_allocator()); }
 925:/Library/DaisyToolchain/0.1.3-ARM/arm/arm-none-eabi/include/c++/10.3.1/bits/stl_vector.h **** 
 926:/Library/DaisyToolchain/0.1.3-ARM/arm/arm-none-eabi/include/c++/10.3.1/bits/stl_vector.h **** #if __cplusplus >= 201103L
 927:/Library/DaisyToolchain/0.1.3-ARM/arm/arm-none-eabi/include/c++/10.3.1/bits/stl_vector.h ****       /**
 928:/Library/DaisyToolchain/0.1.3-ARM/arm/arm-none-eabi/include/c++/10.3.1/bits/stl_vector.h ****        *  @brief  Resizes the %vector to the specified number of elements.
 929:/Library/DaisyToolchain/0.1.3-ARM/arm/arm-none-eabi/include/c++/10.3.1/bits/stl_vector.h ****        *  @param  __new_size  Number of elements the %vector should contain.
 930:/Library/DaisyToolchain/0.1.3-ARM/arm/arm-none-eabi/include/c++/10.3.1/bits/stl_vector.h ****        *
 931:/Library/DaisyToolchain/0.1.3-ARM/arm/arm-none-eabi/include/c++/10.3.1/bits/stl_vector.h ****        *  This function will %resize the %vector to the specified
 932:/Library/DaisyToolchain/0.1.3-ARM/arm/arm-none-eabi/include/c++/10.3.1/bits/stl_vector.h ****        *  number of elements.  If the number is smaller than the
 933:/Library/DaisyToolchain/0.1.3-ARM/arm/arm-none-eabi/include/c++/10.3.1/bits/stl_vector.h ****        *  %vector's current size the %vector is truncated, otherwise
 934:/Library/DaisyToolchain/0.1.3-ARM/arm/arm-none-eabi/include/c++/10.3.1/bits/stl_vector.h ****        *  default constructed elements are appended.
 935:/Library/DaisyToolchain/0.1.3-ARM/arm/arm-none-eabi/include/c++/10.3.1/bits/stl_vector.h ****        */
 936:/Library/DaisyToolchain/0.1.3-ARM/arm/arm-none-eabi/include/c++/10.3.1/bits/stl_vector.h ****       void
 937:/Library/DaisyToolchain/0.1.3-ARM/arm/arm-none-eabi/include/c++/10.3.1/bits/stl_vector.h ****       resize(size_type __new_size)
 3231              		.loc 10 937 7 view .LVU862
 3232              	.LBB902:
 3233              	.LBI902:
 3234              		.file 13 "/Library/DaisyToolchain/0.1.3-ARM/arm/arm-none-eabi/include/c++/10.3.1/bits/vector.tcc"
   1:/Library/DaisyToolchain/0.1.3-ARM/arm/arm-none-eabi/include/c++/10.3.1/bits/vector.tcc **** // Vector implementation (out of line) -*- C++ -*-
   2:/Library/DaisyToolchain/0.1.3-ARM/arm/arm-none-eabi/include/c++/10.3.1/bits/vector.tcc **** 
ARM GAS  /var/folders/xd/16jvbr6j24q9nvtpm0qtw3240000gn/T//cch9jPA2.s 			page 112


   3:/Library/DaisyToolchain/0.1.3-ARM/arm/arm-none-eabi/include/c++/10.3.1/bits/vector.tcc **** // Copyright (C) 2001-2020 Free Software Foundation, Inc.
   4:/Library/DaisyToolchain/0.1.3-ARM/arm/arm-none-eabi/include/c++/10.3.1/bits/vector.tcc **** //
   5:/Library/DaisyToolchain/0.1.3-ARM/arm/arm-none-eabi/include/c++/10.3.1/bits/vector.tcc **** // This file is part of the GNU ISO C++ Library.  This library is free
   6:/Library/DaisyToolchain/0.1.3-ARM/arm/arm-none-eabi/include/c++/10.3.1/bits/vector.tcc **** // software; you can redistribute it and/or modify it under the
   7:/Library/DaisyToolchain/0.1.3-ARM/arm/arm-none-eabi/include/c++/10.3.1/bits/vector.tcc **** // terms of the GNU General Public License as published by the
   8:/Library/DaisyToolchain/0.1.3-ARM/arm/arm-none-eabi/include/c++/10.3.1/bits/vector.tcc **** // Free Software Foundation; either version 3, or (at your option)
   9:/Library/DaisyToolchain/0.1.3-ARM/arm/arm-none-eabi/include/c++/10.3.1/bits/vector.tcc **** // any later version.
  10:/Library/DaisyToolchain/0.1.3-ARM/arm/arm-none-eabi/include/c++/10.3.1/bits/vector.tcc **** 
  11:/Library/DaisyToolchain/0.1.3-ARM/arm/arm-none-eabi/include/c++/10.3.1/bits/vector.tcc **** // This library is distributed in the hope that it will be useful,
  12:/Library/DaisyToolchain/0.1.3-ARM/arm/arm-none-eabi/include/c++/10.3.1/bits/vector.tcc **** // but WITHOUT ANY WARRANTY; without even the implied warranty of
  13:/Library/DaisyToolchain/0.1.3-ARM/arm/arm-none-eabi/include/c++/10.3.1/bits/vector.tcc **** // MERCHANTABILITY or FITNESS FOR A PARTICULAR PURPOSE.  See the
  14:/Library/DaisyToolchain/0.1.3-ARM/arm/arm-none-eabi/include/c++/10.3.1/bits/vector.tcc **** // GNU General Public License for more details.
  15:/Library/DaisyToolchain/0.1.3-ARM/arm/arm-none-eabi/include/c++/10.3.1/bits/vector.tcc **** 
  16:/Library/DaisyToolchain/0.1.3-ARM/arm/arm-none-eabi/include/c++/10.3.1/bits/vector.tcc **** // Under Section 7 of GPL version 3, you are granted additional
  17:/Library/DaisyToolchain/0.1.3-ARM/arm/arm-none-eabi/include/c++/10.3.1/bits/vector.tcc **** // permissions described in the GCC Runtime Library Exception, version
  18:/Library/DaisyToolchain/0.1.3-ARM/arm/arm-none-eabi/include/c++/10.3.1/bits/vector.tcc **** // 3.1, as published by the Free Software Foundation.
  19:/Library/DaisyToolchain/0.1.3-ARM/arm/arm-none-eabi/include/c++/10.3.1/bits/vector.tcc **** 
  20:/Library/DaisyToolchain/0.1.3-ARM/arm/arm-none-eabi/include/c++/10.3.1/bits/vector.tcc **** // You should have received a copy of the GNU General Public License and
  21:/Library/DaisyToolchain/0.1.3-ARM/arm/arm-none-eabi/include/c++/10.3.1/bits/vector.tcc **** // a copy of the GCC Runtime Library Exception along with this program;
  22:/Library/DaisyToolchain/0.1.3-ARM/arm/arm-none-eabi/include/c++/10.3.1/bits/vector.tcc **** // see the files COPYING3 and COPYING.RUNTIME respectively.  If not, see
  23:/Library/DaisyToolchain/0.1.3-ARM/arm/arm-none-eabi/include/c++/10.3.1/bits/vector.tcc **** // <http://www.gnu.org/licenses/>.
  24:/Library/DaisyToolchain/0.1.3-ARM/arm/arm-none-eabi/include/c++/10.3.1/bits/vector.tcc **** 
  25:/Library/DaisyToolchain/0.1.3-ARM/arm/arm-none-eabi/include/c++/10.3.1/bits/vector.tcc **** /*
  26:/Library/DaisyToolchain/0.1.3-ARM/arm/arm-none-eabi/include/c++/10.3.1/bits/vector.tcc ****  *
  27:/Library/DaisyToolchain/0.1.3-ARM/arm/arm-none-eabi/include/c++/10.3.1/bits/vector.tcc ****  * Copyright (c) 1994
  28:/Library/DaisyToolchain/0.1.3-ARM/arm/arm-none-eabi/include/c++/10.3.1/bits/vector.tcc ****  * Hewlett-Packard Company
  29:/Library/DaisyToolchain/0.1.3-ARM/arm/arm-none-eabi/include/c++/10.3.1/bits/vector.tcc ****  *
  30:/Library/DaisyToolchain/0.1.3-ARM/arm/arm-none-eabi/include/c++/10.3.1/bits/vector.tcc ****  * Permission to use, copy, modify, distribute and sell this software
  31:/Library/DaisyToolchain/0.1.3-ARM/arm/arm-none-eabi/include/c++/10.3.1/bits/vector.tcc ****  * and its documentation for any purpose is hereby granted without fee,
  32:/Library/DaisyToolchain/0.1.3-ARM/arm/arm-none-eabi/include/c++/10.3.1/bits/vector.tcc ****  * provided that the above copyright notice appear in all copies and
  33:/Library/DaisyToolchain/0.1.3-ARM/arm/arm-none-eabi/include/c++/10.3.1/bits/vector.tcc ****  * that both that copyright notice and this permission notice appear
  34:/Library/DaisyToolchain/0.1.3-ARM/arm/arm-none-eabi/include/c++/10.3.1/bits/vector.tcc ****  * in supporting documentation.  Hewlett-Packard Company makes no
  35:/Library/DaisyToolchain/0.1.3-ARM/arm/arm-none-eabi/include/c++/10.3.1/bits/vector.tcc ****  * representations about the suitability of this software for any
  36:/Library/DaisyToolchain/0.1.3-ARM/arm/arm-none-eabi/include/c++/10.3.1/bits/vector.tcc ****  * purpose.  It is provided "as is" without express or implied warranty.
  37:/Library/DaisyToolchain/0.1.3-ARM/arm/arm-none-eabi/include/c++/10.3.1/bits/vector.tcc ****  *
  38:/Library/DaisyToolchain/0.1.3-ARM/arm/arm-none-eabi/include/c++/10.3.1/bits/vector.tcc ****  *
  39:/Library/DaisyToolchain/0.1.3-ARM/arm/arm-none-eabi/include/c++/10.3.1/bits/vector.tcc ****  * Copyright (c) 1996
  40:/Library/DaisyToolchain/0.1.3-ARM/arm/arm-none-eabi/include/c++/10.3.1/bits/vector.tcc ****  * Silicon Graphics Computer Systems, Inc.
  41:/Library/DaisyToolchain/0.1.3-ARM/arm/arm-none-eabi/include/c++/10.3.1/bits/vector.tcc ****  *
  42:/Library/DaisyToolchain/0.1.3-ARM/arm/arm-none-eabi/include/c++/10.3.1/bits/vector.tcc ****  * Permission to use, copy, modify, distribute and sell this software
  43:/Library/DaisyToolchain/0.1.3-ARM/arm/arm-none-eabi/include/c++/10.3.1/bits/vector.tcc ****  * and its documentation for any purpose is hereby granted without fee,
  44:/Library/DaisyToolchain/0.1.3-ARM/arm/arm-none-eabi/include/c++/10.3.1/bits/vector.tcc ****  * provided that the above copyright notice appear in all copies and
  45:/Library/DaisyToolchain/0.1.3-ARM/arm/arm-none-eabi/include/c++/10.3.1/bits/vector.tcc ****  * that both that copyright notice and this permission notice appear
  46:/Library/DaisyToolchain/0.1.3-ARM/arm/arm-none-eabi/include/c++/10.3.1/bits/vector.tcc ****  * in supporting documentation.  Silicon Graphics makes no
  47:/Library/DaisyToolchain/0.1.3-ARM/arm/arm-none-eabi/include/c++/10.3.1/bits/vector.tcc ****  * representations about the suitability of this  software for any
  48:/Library/DaisyToolchain/0.1.3-ARM/arm/arm-none-eabi/include/c++/10.3.1/bits/vector.tcc ****  * purpose.  It is provided "as is" without express or implied warranty.
  49:/Library/DaisyToolchain/0.1.3-ARM/arm/arm-none-eabi/include/c++/10.3.1/bits/vector.tcc ****  */
  50:/Library/DaisyToolchain/0.1.3-ARM/arm/arm-none-eabi/include/c++/10.3.1/bits/vector.tcc **** 
  51:/Library/DaisyToolchain/0.1.3-ARM/arm/arm-none-eabi/include/c++/10.3.1/bits/vector.tcc **** /** @file bits/vector.tcc
  52:/Library/DaisyToolchain/0.1.3-ARM/arm/arm-none-eabi/include/c++/10.3.1/bits/vector.tcc ****  *  This is an internal header file, included by other library headers.
  53:/Library/DaisyToolchain/0.1.3-ARM/arm/arm-none-eabi/include/c++/10.3.1/bits/vector.tcc ****  *  Do not attempt to use it directly. @headername{vector}
  54:/Library/DaisyToolchain/0.1.3-ARM/arm/arm-none-eabi/include/c++/10.3.1/bits/vector.tcc ****  */
  55:/Library/DaisyToolchain/0.1.3-ARM/arm/arm-none-eabi/include/c++/10.3.1/bits/vector.tcc **** 
  56:/Library/DaisyToolchain/0.1.3-ARM/arm/arm-none-eabi/include/c++/10.3.1/bits/vector.tcc **** #ifndef _VECTOR_TCC
  57:/Library/DaisyToolchain/0.1.3-ARM/arm/arm-none-eabi/include/c++/10.3.1/bits/vector.tcc **** #define _VECTOR_TCC 1
  58:/Library/DaisyToolchain/0.1.3-ARM/arm/arm-none-eabi/include/c++/10.3.1/bits/vector.tcc **** 
  59:/Library/DaisyToolchain/0.1.3-ARM/arm/arm-none-eabi/include/c++/10.3.1/bits/vector.tcc **** namespace std _GLIBCXX_VISIBILITY(default)
ARM GAS  /var/folders/xd/16jvbr6j24q9nvtpm0qtw3240000gn/T//cch9jPA2.s 			page 113


  60:/Library/DaisyToolchain/0.1.3-ARM/arm/arm-none-eabi/include/c++/10.3.1/bits/vector.tcc **** {
  61:/Library/DaisyToolchain/0.1.3-ARM/arm/arm-none-eabi/include/c++/10.3.1/bits/vector.tcc **** _GLIBCXX_BEGIN_NAMESPACE_VERSION
  62:/Library/DaisyToolchain/0.1.3-ARM/arm/arm-none-eabi/include/c++/10.3.1/bits/vector.tcc **** _GLIBCXX_BEGIN_NAMESPACE_CONTAINER
  63:/Library/DaisyToolchain/0.1.3-ARM/arm/arm-none-eabi/include/c++/10.3.1/bits/vector.tcc **** 
  64:/Library/DaisyToolchain/0.1.3-ARM/arm/arm-none-eabi/include/c++/10.3.1/bits/vector.tcc ****   template<typename _Tp, typename _Alloc>
  65:/Library/DaisyToolchain/0.1.3-ARM/arm/arm-none-eabi/include/c++/10.3.1/bits/vector.tcc ****     void
  66:/Library/DaisyToolchain/0.1.3-ARM/arm/arm-none-eabi/include/c++/10.3.1/bits/vector.tcc ****     vector<_Tp, _Alloc>::
  67:/Library/DaisyToolchain/0.1.3-ARM/arm/arm-none-eabi/include/c++/10.3.1/bits/vector.tcc ****     reserve(size_type __n)
  68:/Library/DaisyToolchain/0.1.3-ARM/arm/arm-none-eabi/include/c++/10.3.1/bits/vector.tcc ****     {
  69:/Library/DaisyToolchain/0.1.3-ARM/arm/arm-none-eabi/include/c++/10.3.1/bits/vector.tcc ****       if (__n > this->max_size())
  70:/Library/DaisyToolchain/0.1.3-ARM/arm/arm-none-eabi/include/c++/10.3.1/bits/vector.tcc **** 	__throw_length_error(__N("vector::reserve"));
  71:/Library/DaisyToolchain/0.1.3-ARM/arm/arm-none-eabi/include/c++/10.3.1/bits/vector.tcc ****       if (this->capacity() < __n)
  72:/Library/DaisyToolchain/0.1.3-ARM/arm/arm-none-eabi/include/c++/10.3.1/bits/vector.tcc **** 	{
  73:/Library/DaisyToolchain/0.1.3-ARM/arm/arm-none-eabi/include/c++/10.3.1/bits/vector.tcc **** 	  const size_type __old_size = size();
  74:/Library/DaisyToolchain/0.1.3-ARM/arm/arm-none-eabi/include/c++/10.3.1/bits/vector.tcc **** 	  pointer __tmp;
  75:/Library/DaisyToolchain/0.1.3-ARM/arm/arm-none-eabi/include/c++/10.3.1/bits/vector.tcc **** #if __cplusplus >= 201103L
  76:/Library/DaisyToolchain/0.1.3-ARM/arm/arm-none-eabi/include/c++/10.3.1/bits/vector.tcc **** 	  if _GLIBCXX17_CONSTEXPR (_S_use_relocate())
  77:/Library/DaisyToolchain/0.1.3-ARM/arm/arm-none-eabi/include/c++/10.3.1/bits/vector.tcc **** 	    {
  78:/Library/DaisyToolchain/0.1.3-ARM/arm/arm-none-eabi/include/c++/10.3.1/bits/vector.tcc **** 	      __tmp = this->_M_allocate(__n);
  79:/Library/DaisyToolchain/0.1.3-ARM/arm/arm-none-eabi/include/c++/10.3.1/bits/vector.tcc **** 	      _S_relocate(this->_M_impl._M_start, this->_M_impl._M_finish,
  80:/Library/DaisyToolchain/0.1.3-ARM/arm/arm-none-eabi/include/c++/10.3.1/bits/vector.tcc **** 			  __tmp, _M_get_Tp_allocator());
  81:/Library/DaisyToolchain/0.1.3-ARM/arm/arm-none-eabi/include/c++/10.3.1/bits/vector.tcc **** 	    }
  82:/Library/DaisyToolchain/0.1.3-ARM/arm/arm-none-eabi/include/c++/10.3.1/bits/vector.tcc **** 	  else
  83:/Library/DaisyToolchain/0.1.3-ARM/arm/arm-none-eabi/include/c++/10.3.1/bits/vector.tcc **** #endif
  84:/Library/DaisyToolchain/0.1.3-ARM/arm/arm-none-eabi/include/c++/10.3.1/bits/vector.tcc **** 	    {
  85:/Library/DaisyToolchain/0.1.3-ARM/arm/arm-none-eabi/include/c++/10.3.1/bits/vector.tcc **** 	      __tmp = _M_allocate_and_copy(__n,
  86:/Library/DaisyToolchain/0.1.3-ARM/arm/arm-none-eabi/include/c++/10.3.1/bits/vector.tcc **** 		_GLIBCXX_MAKE_MOVE_IF_NOEXCEPT_ITERATOR(this->_M_impl._M_start),
  87:/Library/DaisyToolchain/0.1.3-ARM/arm/arm-none-eabi/include/c++/10.3.1/bits/vector.tcc **** 		_GLIBCXX_MAKE_MOVE_IF_NOEXCEPT_ITERATOR(this->_M_impl._M_finish));
  88:/Library/DaisyToolchain/0.1.3-ARM/arm/arm-none-eabi/include/c++/10.3.1/bits/vector.tcc **** 	      std::_Destroy(this->_M_impl._M_start, this->_M_impl._M_finish,
  89:/Library/DaisyToolchain/0.1.3-ARM/arm/arm-none-eabi/include/c++/10.3.1/bits/vector.tcc **** 			    _M_get_Tp_allocator());
  90:/Library/DaisyToolchain/0.1.3-ARM/arm/arm-none-eabi/include/c++/10.3.1/bits/vector.tcc **** 	    }
  91:/Library/DaisyToolchain/0.1.3-ARM/arm/arm-none-eabi/include/c++/10.3.1/bits/vector.tcc **** 	  _GLIBCXX_ASAN_ANNOTATE_REINIT;
  92:/Library/DaisyToolchain/0.1.3-ARM/arm/arm-none-eabi/include/c++/10.3.1/bits/vector.tcc **** 	  _M_deallocate(this->_M_impl._M_start,
  93:/Library/DaisyToolchain/0.1.3-ARM/arm/arm-none-eabi/include/c++/10.3.1/bits/vector.tcc **** 			this->_M_impl._M_end_of_storage
  94:/Library/DaisyToolchain/0.1.3-ARM/arm/arm-none-eabi/include/c++/10.3.1/bits/vector.tcc **** 			- this->_M_impl._M_start);
  95:/Library/DaisyToolchain/0.1.3-ARM/arm/arm-none-eabi/include/c++/10.3.1/bits/vector.tcc **** 	  this->_M_impl._M_start = __tmp;
  96:/Library/DaisyToolchain/0.1.3-ARM/arm/arm-none-eabi/include/c++/10.3.1/bits/vector.tcc **** 	  this->_M_impl._M_finish = __tmp + __old_size;
  97:/Library/DaisyToolchain/0.1.3-ARM/arm/arm-none-eabi/include/c++/10.3.1/bits/vector.tcc **** 	  this->_M_impl._M_end_of_storage = this->_M_impl._M_start + __n;
  98:/Library/DaisyToolchain/0.1.3-ARM/arm/arm-none-eabi/include/c++/10.3.1/bits/vector.tcc **** 	}
  99:/Library/DaisyToolchain/0.1.3-ARM/arm/arm-none-eabi/include/c++/10.3.1/bits/vector.tcc ****     }
 100:/Library/DaisyToolchain/0.1.3-ARM/arm/arm-none-eabi/include/c++/10.3.1/bits/vector.tcc **** 
 101:/Library/DaisyToolchain/0.1.3-ARM/arm/arm-none-eabi/include/c++/10.3.1/bits/vector.tcc **** #if __cplusplus >= 201103L
 102:/Library/DaisyToolchain/0.1.3-ARM/arm/arm-none-eabi/include/c++/10.3.1/bits/vector.tcc ****   template<typename _Tp, typename _Alloc>
 103:/Library/DaisyToolchain/0.1.3-ARM/arm/arm-none-eabi/include/c++/10.3.1/bits/vector.tcc ****     template<typename... _Args>
 104:/Library/DaisyToolchain/0.1.3-ARM/arm/arm-none-eabi/include/c++/10.3.1/bits/vector.tcc **** #if __cplusplus > 201402L
 105:/Library/DaisyToolchain/0.1.3-ARM/arm/arm-none-eabi/include/c++/10.3.1/bits/vector.tcc ****       typename vector<_Tp, _Alloc>::reference
 106:/Library/DaisyToolchain/0.1.3-ARM/arm/arm-none-eabi/include/c++/10.3.1/bits/vector.tcc **** #else
 107:/Library/DaisyToolchain/0.1.3-ARM/arm/arm-none-eabi/include/c++/10.3.1/bits/vector.tcc ****       void
 108:/Library/DaisyToolchain/0.1.3-ARM/arm/arm-none-eabi/include/c++/10.3.1/bits/vector.tcc **** #endif
 109:/Library/DaisyToolchain/0.1.3-ARM/arm/arm-none-eabi/include/c++/10.3.1/bits/vector.tcc ****       vector<_Tp, _Alloc>::
 110:/Library/DaisyToolchain/0.1.3-ARM/arm/arm-none-eabi/include/c++/10.3.1/bits/vector.tcc ****       emplace_back(_Args&&... __args)
 111:/Library/DaisyToolchain/0.1.3-ARM/arm/arm-none-eabi/include/c++/10.3.1/bits/vector.tcc ****       {
 112:/Library/DaisyToolchain/0.1.3-ARM/arm/arm-none-eabi/include/c++/10.3.1/bits/vector.tcc **** 	if (this->_M_impl._M_finish != this->_M_impl._M_end_of_storage)
 113:/Library/DaisyToolchain/0.1.3-ARM/arm/arm-none-eabi/include/c++/10.3.1/bits/vector.tcc **** 	  {
 114:/Library/DaisyToolchain/0.1.3-ARM/arm/arm-none-eabi/include/c++/10.3.1/bits/vector.tcc **** 	    _GLIBCXX_ASAN_ANNOTATE_GROW(1);
 115:/Library/DaisyToolchain/0.1.3-ARM/arm/arm-none-eabi/include/c++/10.3.1/bits/vector.tcc **** 	    _Alloc_traits::construct(this->_M_impl, this->_M_impl._M_finish,
 116:/Library/DaisyToolchain/0.1.3-ARM/arm/arm-none-eabi/include/c++/10.3.1/bits/vector.tcc **** 				     std::forward<_Args>(__args)...);
ARM GAS  /var/folders/xd/16jvbr6j24q9nvtpm0qtw3240000gn/T//cch9jPA2.s 			page 114


 117:/Library/DaisyToolchain/0.1.3-ARM/arm/arm-none-eabi/include/c++/10.3.1/bits/vector.tcc **** 	    ++this->_M_impl._M_finish;
 118:/Library/DaisyToolchain/0.1.3-ARM/arm/arm-none-eabi/include/c++/10.3.1/bits/vector.tcc **** 	    _GLIBCXX_ASAN_ANNOTATE_GREW(1);
 119:/Library/DaisyToolchain/0.1.3-ARM/arm/arm-none-eabi/include/c++/10.3.1/bits/vector.tcc **** 	  }
 120:/Library/DaisyToolchain/0.1.3-ARM/arm/arm-none-eabi/include/c++/10.3.1/bits/vector.tcc **** 	else
 121:/Library/DaisyToolchain/0.1.3-ARM/arm/arm-none-eabi/include/c++/10.3.1/bits/vector.tcc **** 	  _M_realloc_insert(end(), std::forward<_Args>(__args)...);
 122:/Library/DaisyToolchain/0.1.3-ARM/arm/arm-none-eabi/include/c++/10.3.1/bits/vector.tcc **** #if __cplusplus > 201402L
 123:/Library/DaisyToolchain/0.1.3-ARM/arm/arm-none-eabi/include/c++/10.3.1/bits/vector.tcc **** 	return back();
 124:/Library/DaisyToolchain/0.1.3-ARM/arm/arm-none-eabi/include/c++/10.3.1/bits/vector.tcc **** #endif
 125:/Library/DaisyToolchain/0.1.3-ARM/arm/arm-none-eabi/include/c++/10.3.1/bits/vector.tcc ****       }
 126:/Library/DaisyToolchain/0.1.3-ARM/arm/arm-none-eabi/include/c++/10.3.1/bits/vector.tcc **** #endif
 127:/Library/DaisyToolchain/0.1.3-ARM/arm/arm-none-eabi/include/c++/10.3.1/bits/vector.tcc **** 
 128:/Library/DaisyToolchain/0.1.3-ARM/arm/arm-none-eabi/include/c++/10.3.1/bits/vector.tcc ****   template<typename _Tp, typename _Alloc>
 129:/Library/DaisyToolchain/0.1.3-ARM/arm/arm-none-eabi/include/c++/10.3.1/bits/vector.tcc ****     typename vector<_Tp, _Alloc>::iterator
 130:/Library/DaisyToolchain/0.1.3-ARM/arm/arm-none-eabi/include/c++/10.3.1/bits/vector.tcc ****     vector<_Tp, _Alloc>::
 131:/Library/DaisyToolchain/0.1.3-ARM/arm/arm-none-eabi/include/c++/10.3.1/bits/vector.tcc **** #if __cplusplus >= 201103L
 132:/Library/DaisyToolchain/0.1.3-ARM/arm/arm-none-eabi/include/c++/10.3.1/bits/vector.tcc ****     insert(const_iterator __position, const value_type& __x)
 133:/Library/DaisyToolchain/0.1.3-ARM/arm/arm-none-eabi/include/c++/10.3.1/bits/vector.tcc **** #else
 134:/Library/DaisyToolchain/0.1.3-ARM/arm/arm-none-eabi/include/c++/10.3.1/bits/vector.tcc ****     insert(iterator __position, const value_type& __x)
 135:/Library/DaisyToolchain/0.1.3-ARM/arm/arm-none-eabi/include/c++/10.3.1/bits/vector.tcc **** #endif
 136:/Library/DaisyToolchain/0.1.3-ARM/arm/arm-none-eabi/include/c++/10.3.1/bits/vector.tcc ****     {
 137:/Library/DaisyToolchain/0.1.3-ARM/arm/arm-none-eabi/include/c++/10.3.1/bits/vector.tcc ****       const size_type __n = __position - begin();
 138:/Library/DaisyToolchain/0.1.3-ARM/arm/arm-none-eabi/include/c++/10.3.1/bits/vector.tcc ****       if (this->_M_impl._M_finish != this->_M_impl._M_end_of_storage)
 139:/Library/DaisyToolchain/0.1.3-ARM/arm/arm-none-eabi/include/c++/10.3.1/bits/vector.tcc **** 	if (__position == end())
 140:/Library/DaisyToolchain/0.1.3-ARM/arm/arm-none-eabi/include/c++/10.3.1/bits/vector.tcc **** 	  {
 141:/Library/DaisyToolchain/0.1.3-ARM/arm/arm-none-eabi/include/c++/10.3.1/bits/vector.tcc **** 	    _GLIBCXX_ASAN_ANNOTATE_GROW(1);
 142:/Library/DaisyToolchain/0.1.3-ARM/arm/arm-none-eabi/include/c++/10.3.1/bits/vector.tcc **** 	    _Alloc_traits::construct(this->_M_impl, this->_M_impl._M_finish,
 143:/Library/DaisyToolchain/0.1.3-ARM/arm/arm-none-eabi/include/c++/10.3.1/bits/vector.tcc **** 				     __x);
 144:/Library/DaisyToolchain/0.1.3-ARM/arm/arm-none-eabi/include/c++/10.3.1/bits/vector.tcc **** 	    ++this->_M_impl._M_finish;
 145:/Library/DaisyToolchain/0.1.3-ARM/arm/arm-none-eabi/include/c++/10.3.1/bits/vector.tcc **** 	    _GLIBCXX_ASAN_ANNOTATE_GREW(1);
 146:/Library/DaisyToolchain/0.1.3-ARM/arm/arm-none-eabi/include/c++/10.3.1/bits/vector.tcc **** 	  }
 147:/Library/DaisyToolchain/0.1.3-ARM/arm/arm-none-eabi/include/c++/10.3.1/bits/vector.tcc **** 	else
 148:/Library/DaisyToolchain/0.1.3-ARM/arm/arm-none-eabi/include/c++/10.3.1/bits/vector.tcc **** 	  {
 149:/Library/DaisyToolchain/0.1.3-ARM/arm/arm-none-eabi/include/c++/10.3.1/bits/vector.tcc **** #if __cplusplus >= 201103L
 150:/Library/DaisyToolchain/0.1.3-ARM/arm/arm-none-eabi/include/c++/10.3.1/bits/vector.tcc **** 	    const auto __pos = begin() + (__position - cbegin());
 151:/Library/DaisyToolchain/0.1.3-ARM/arm/arm-none-eabi/include/c++/10.3.1/bits/vector.tcc **** 	    // __x could be an existing element of this vector, so make a
 152:/Library/DaisyToolchain/0.1.3-ARM/arm/arm-none-eabi/include/c++/10.3.1/bits/vector.tcc **** 	    // copy of it before _M_insert_aux moves elements around.
 153:/Library/DaisyToolchain/0.1.3-ARM/arm/arm-none-eabi/include/c++/10.3.1/bits/vector.tcc **** 	    _Temporary_value __x_copy(this, __x);
 154:/Library/DaisyToolchain/0.1.3-ARM/arm/arm-none-eabi/include/c++/10.3.1/bits/vector.tcc **** 	    _M_insert_aux(__pos, std::move(__x_copy._M_val()));
 155:/Library/DaisyToolchain/0.1.3-ARM/arm/arm-none-eabi/include/c++/10.3.1/bits/vector.tcc **** #else
 156:/Library/DaisyToolchain/0.1.3-ARM/arm/arm-none-eabi/include/c++/10.3.1/bits/vector.tcc **** 	    _M_insert_aux(__position, __x);
 157:/Library/DaisyToolchain/0.1.3-ARM/arm/arm-none-eabi/include/c++/10.3.1/bits/vector.tcc **** #endif
 158:/Library/DaisyToolchain/0.1.3-ARM/arm/arm-none-eabi/include/c++/10.3.1/bits/vector.tcc **** 	  }
 159:/Library/DaisyToolchain/0.1.3-ARM/arm/arm-none-eabi/include/c++/10.3.1/bits/vector.tcc ****       else
 160:/Library/DaisyToolchain/0.1.3-ARM/arm/arm-none-eabi/include/c++/10.3.1/bits/vector.tcc **** #if __cplusplus >= 201103L
 161:/Library/DaisyToolchain/0.1.3-ARM/arm/arm-none-eabi/include/c++/10.3.1/bits/vector.tcc **** 	_M_realloc_insert(begin() + (__position - cbegin()), __x);
 162:/Library/DaisyToolchain/0.1.3-ARM/arm/arm-none-eabi/include/c++/10.3.1/bits/vector.tcc **** #else
 163:/Library/DaisyToolchain/0.1.3-ARM/arm/arm-none-eabi/include/c++/10.3.1/bits/vector.tcc **** 	_M_realloc_insert(__position, __x);
 164:/Library/DaisyToolchain/0.1.3-ARM/arm/arm-none-eabi/include/c++/10.3.1/bits/vector.tcc **** #endif
 165:/Library/DaisyToolchain/0.1.3-ARM/arm/arm-none-eabi/include/c++/10.3.1/bits/vector.tcc **** 
 166:/Library/DaisyToolchain/0.1.3-ARM/arm/arm-none-eabi/include/c++/10.3.1/bits/vector.tcc ****       return iterator(this->_M_impl._M_start + __n);
 167:/Library/DaisyToolchain/0.1.3-ARM/arm/arm-none-eabi/include/c++/10.3.1/bits/vector.tcc ****     }
 168:/Library/DaisyToolchain/0.1.3-ARM/arm/arm-none-eabi/include/c++/10.3.1/bits/vector.tcc **** 
 169:/Library/DaisyToolchain/0.1.3-ARM/arm/arm-none-eabi/include/c++/10.3.1/bits/vector.tcc ****   template<typename _Tp, typename _Alloc>
 170:/Library/DaisyToolchain/0.1.3-ARM/arm/arm-none-eabi/include/c++/10.3.1/bits/vector.tcc ****     typename vector<_Tp, _Alloc>::iterator
 171:/Library/DaisyToolchain/0.1.3-ARM/arm/arm-none-eabi/include/c++/10.3.1/bits/vector.tcc ****     vector<_Tp, _Alloc>::
 172:/Library/DaisyToolchain/0.1.3-ARM/arm/arm-none-eabi/include/c++/10.3.1/bits/vector.tcc ****     _M_erase(iterator __position)
 173:/Library/DaisyToolchain/0.1.3-ARM/arm/arm-none-eabi/include/c++/10.3.1/bits/vector.tcc ****     {
ARM GAS  /var/folders/xd/16jvbr6j24q9nvtpm0qtw3240000gn/T//cch9jPA2.s 			page 115


 174:/Library/DaisyToolchain/0.1.3-ARM/arm/arm-none-eabi/include/c++/10.3.1/bits/vector.tcc ****       if (__position + 1 != end())
 175:/Library/DaisyToolchain/0.1.3-ARM/arm/arm-none-eabi/include/c++/10.3.1/bits/vector.tcc **** 	_GLIBCXX_MOVE3(__position + 1, end(), __position);
 176:/Library/DaisyToolchain/0.1.3-ARM/arm/arm-none-eabi/include/c++/10.3.1/bits/vector.tcc ****       --this->_M_impl._M_finish;
 177:/Library/DaisyToolchain/0.1.3-ARM/arm/arm-none-eabi/include/c++/10.3.1/bits/vector.tcc ****       _Alloc_traits::destroy(this->_M_impl, this->_M_impl._M_finish);
 178:/Library/DaisyToolchain/0.1.3-ARM/arm/arm-none-eabi/include/c++/10.3.1/bits/vector.tcc ****       _GLIBCXX_ASAN_ANNOTATE_SHRINK(1);
 179:/Library/DaisyToolchain/0.1.3-ARM/arm/arm-none-eabi/include/c++/10.3.1/bits/vector.tcc ****       return __position;
 180:/Library/DaisyToolchain/0.1.3-ARM/arm/arm-none-eabi/include/c++/10.3.1/bits/vector.tcc ****     }
 181:/Library/DaisyToolchain/0.1.3-ARM/arm/arm-none-eabi/include/c++/10.3.1/bits/vector.tcc **** 
 182:/Library/DaisyToolchain/0.1.3-ARM/arm/arm-none-eabi/include/c++/10.3.1/bits/vector.tcc ****   template<typename _Tp, typename _Alloc>
 183:/Library/DaisyToolchain/0.1.3-ARM/arm/arm-none-eabi/include/c++/10.3.1/bits/vector.tcc ****     typename vector<_Tp, _Alloc>::iterator
 184:/Library/DaisyToolchain/0.1.3-ARM/arm/arm-none-eabi/include/c++/10.3.1/bits/vector.tcc ****     vector<_Tp, _Alloc>::
 185:/Library/DaisyToolchain/0.1.3-ARM/arm/arm-none-eabi/include/c++/10.3.1/bits/vector.tcc ****     _M_erase(iterator __first, iterator __last)
 186:/Library/DaisyToolchain/0.1.3-ARM/arm/arm-none-eabi/include/c++/10.3.1/bits/vector.tcc ****     {
 187:/Library/DaisyToolchain/0.1.3-ARM/arm/arm-none-eabi/include/c++/10.3.1/bits/vector.tcc ****       if (__first != __last)
 188:/Library/DaisyToolchain/0.1.3-ARM/arm/arm-none-eabi/include/c++/10.3.1/bits/vector.tcc **** 	{
 189:/Library/DaisyToolchain/0.1.3-ARM/arm/arm-none-eabi/include/c++/10.3.1/bits/vector.tcc **** 	  if (__last != end())
 190:/Library/DaisyToolchain/0.1.3-ARM/arm/arm-none-eabi/include/c++/10.3.1/bits/vector.tcc **** 	    _GLIBCXX_MOVE3(__last, end(), __first);
 191:/Library/DaisyToolchain/0.1.3-ARM/arm/arm-none-eabi/include/c++/10.3.1/bits/vector.tcc **** 	  _M_erase_at_end(__first.base() + (end() - __last));
 192:/Library/DaisyToolchain/0.1.3-ARM/arm/arm-none-eabi/include/c++/10.3.1/bits/vector.tcc **** 	}
 193:/Library/DaisyToolchain/0.1.3-ARM/arm/arm-none-eabi/include/c++/10.3.1/bits/vector.tcc ****       return __first;
 194:/Library/DaisyToolchain/0.1.3-ARM/arm/arm-none-eabi/include/c++/10.3.1/bits/vector.tcc ****     }
 195:/Library/DaisyToolchain/0.1.3-ARM/arm/arm-none-eabi/include/c++/10.3.1/bits/vector.tcc **** 
 196:/Library/DaisyToolchain/0.1.3-ARM/arm/arm-none-eabi/include/c++/10.3.1/bits/vector.tcc ****   template<typename _Tp, typename _Alloc>
 197:/Library/DaisyToolchain/0.1.3-ARM/arm/arm-none-eabi/include/c++/10.3.1/bits/vector.tcc ****     vector<_Tp, _Alloc>&
 198:/Library/DaisyToolchain/0.1.3-ARM/arm/arm-none-eabi/include/c++/10.3.1/bits/vector.tcc ****     vector<_Tp, _Alloc>::
 199:/Library/DaisyToolchain/0.1.3-ARM/arm/arm-none-eabi/include/c++/10.3.1/bits/vector.tcc ****     operator=(const vector<_Tp, _Alloc>& __x)
 200:/Library/DaisyToolchain/0.1.3-ARM/arm/arm-none-eabi/include/c++/10.3.1/bits/vector.tcc ****     {
 201:/Library/DaisyToolchain/0.1.3-ARM/arm/arm-none-eabi/include/c++/10.3.1/bits/vector.tcc ****       if (&__x != this)
 202:/Library/DaisyToolchain/0.1.3-ARM/arm/arm-none-eabi/include/c++/10.3.1/bits/vector.tcc **** 	{
 203:/Library/DaisyToolchain/0.1.3-ARM/arm/arm-none-eabi/include/c++/10.3.1/bits/vector.tcc **** 	  _GLIBCXX_ASAN_ANNOTATE_REINIT;
 204:/Library/DaisyToolchain/0.1.3-ARM/arm/arm-none-eabi/include/c++/10.3.1/bits/vector.tcc **** #if __cplusplus >= 201103L
 205:/Library/DaisyToolchain/0.1.3-ARM/arm/arm-none-eabi/include/c++/10.3.1/bits/vector.tcc **** 	  if (_Alloc_traits::_S_propagate_on_copy_assign())
 206:/Library/DaisyToolchain/0.1.3-ARM/arm/arm-none-eabi/include/c++/10.3.1/bits/vector.tcc **** 	    {
 207:/Library/DaisyToolchain/0.1.3-ARM/arm/arm-none-eabi/include/c++/10.3.1/bits/vector.tcc **** 	      if (!_Alloc_traits::_S_always_equal()
 208:/Library/DaisyToolchain/0.1.3-ARM/arm/arm-none-eabi/include/c++/10.3.1/bits/vector.tcc **** 	          && _M_get_Tp_allocator() != __x._M_get_Tp_allocator())
 209:/Library/DaisyToolchain/0.1.3-ARM/arm/arm-none-eabi/include/c++/10.3.1/bits/vector.tcc **** 	        {
 210:/Library/DaisyToolchain/0.1.3-ARM/arm/arm-none-eabi/include/c++/10.3.1/bits/vector.tcc **** 		  // replacement allocator cannot free existing storage
 211:/Library/DaisyToolchain/0.1.3-ARM/arm/arm-none-eabi/include/c++/10.3.1/bits/vector.tcc **** 		  this->clear();
 212:/Library/DaisyToolchain/0.1.3-ARM/arm/arm-none-eabi/include/c++/10.3.1/bits/vector.tcc **** 		  _M_deallocate(this->_M_impl._M_start,
 213:/Library/DaisyToolchain/0.1.3-ARM/arm/arm-none-eabi/include/c++/10.3.1/bits/vector.tcc **** 				this->_M_impl._M_end_of_storage
 214:/Library/DaisyToolchain/0.1.3-ARM/arm/arm-none-eabi/include/c++/10.3.1/bits/vector.tcc **** 				- this->_M_impl._M_start);
 215:/Library/DaisyToolchain/0.1.3-ARM/arm/arm-none-eabi/include/c++/10.3.1/bits/vector.tcc **** 		  this->_M_impl._M_start = nullptr;
 216:/Library/DaisyToolchain/0.1.3-ARM/arm/arm-none-eabi/include/c++/10.3.1/bits/vector.tcc **** 		  this->_M_impl._M_finish = nullptr;
 217:/Library/DaisyToolchain/0.1.3-ARM/arm/arm-none-eabi/include/c++/10.3.1/bits/vector.tcc **** 		  this->_M_impl._M_end_of_storage = nullptr;
 218:/Library/DaisyToolchain/0.1.3-ARM/arm/arm-none-eabi/include/c++/10.3.1/bits/vector.tcc **** 		}
 219:/Library/DaisyToolchain/0.1.3-ARM/arm/arm-none-eabi/include/c++/10.3.1/bits/vector.tcc **** 	      std::__alloc_on_copy(_M_get_Tp_allocator(),
 220:/Library/DaisyToolchain/0.1.3-ARM/arm/arm-none-eabi/include/c++/10.3.1/bits/vector.tcc **** 				   __x._M_get_Tp_allocator());
 221:/Library/DaisyToolchain/0.1.3-ARM/arm/arm-none-eabi/include/c++/10.3.1/bits/vector.tcc **** 	    }
 222:/Library/DaisyToolchain/0.1.3-ARM/arm/arm-none-eabi/include/c++/10.3.1/bits/vector.tcc **** #endif
 223:/Library/DaisyToolchain/0.1.3-ARM/arm/arm-none-eabi/include/c++/10.3.1/bits/vector.tcc **** 	  const size_type __xlen = __x.size();
 224:/Library/DaisyToolchain/0.1.3-ARM/arm/arm-none-eabi/include/c++/10.3.1/bits/vector.tcc **** 	  if (__xlen > capacity())
 225:/Library/DaisyToolchain/0.1.3-ARM/arm/arm-none-eabi/include/c++/10.3.1/bits/vector.tcc **** 	    {
 226:/Library/DaisyToolchain/0.1.3-ARM/arm/arm-none-eabi/include/c++/10.3.1/bits/vector.tcc **** 	      pointer __tmp = _M_allocate_and_copy(__xlen, __x.begin(),
 227:/Library/DaisyToolchain/0.1.3-ARM/arm/arm-none-eabi/include/c++/10.3.1/bits/vector.tcc **** 						   __x.end());
 228:/Library/DaisyToolchain/0.1.3-ARM/arm/arm-none-eabi/include/c++/10.3.1/bits/vector.tcc **** 	      std::_Destroy(this->_M_impl._M_start, this->_M_impl._M_finish,
 229:/Library/DaisyToolchain/0.1.3-ARM/arm/arm-none-eabi/include/c++/10.3.1/bits/vector.tcc **** 			    _M_get_Tp_allocator());
 230:/Library/DaisyToolchain/0.1.3-ARM/arm/arm-none-eabi/include/c++/10.3.1/bits/vector.tcc **** 	      _M_deallocate(this->_M_impl._M_start,
ARM GAS  /var/folders/xd/16jvbr6j24q9nvtpm0qtw3240000gn/T//cch9jPA2.s 			page 116


 231:/Library/DaisyToolchain/0.1.3-ARM/arm/arm-none-eabi/include/c++/10.3.1/bits/vector.tcc **** 			    this->_M_impl._M_end_of_storage
 232:/Library/DaisyToolchain/0.1.3-ARM/arm/arm-none-eabi/include/c++/10.3.1/bits/vector.tcc **** 			    - this->_M_impl._M_start);
 233:/Library/DaisyToolchain/0.1.3-ARM/arm/arm-none-eabi/include/c++/10.3.1/bits/vector.tcc **** 	      this->_M_impl._M_start = __tmp;
 234:/Library/DaisyToolchain/0.1.3-ARM/arm/arm-none-eabi/include/c++/10.3.1/bits/vector.tcc **** 	      this->_M_impl._M_end_of_storage = this->_M_impl._M_start + __xlen;
 235:/Library/DaisyToolchain/0.1.3-ARM/arm/arm-none-eabi/include/c++/10.3.1/bits/vector.tcc **** 	    }
 236:/Library/DaisyToolchain/0.1.3-ARM/arm/arm-none-eabi/include/c++/10.3.1/bits/vector.tcc **** 	  else if (size() >= __xlen)
 237:/Library/DaisyToolchain/0.1.3-ARM/arm/arm-none-eabi/include/c++/10.3.1/bits/vector.tcc **** 	    {
 238:/Library/DaisyToolchain/0.1.3-ARM/arm/arm-none-eabi/include/c++/10.3.1/bits/vector.tcc **** 	      std::_Destroy(std::copy(__x.begin(), __x.end(), begin()),
 239:/Library/DaisyToolchain/0.1.3-ARM/arm/arm-none-eabi/include/c++/10.3.1/bits/vector.tcc **** 			    end(), _M_get_Tp_allocator());
 240:/Library/DaisyToolchain/0.1.3-ARM/arm/arm-none-eabi/include/c++/10.3.1/bits/vector.tcc **** 	    }
 241:/Library/DaisyToolchain/0.1.3-ARM/arm/arm-none-eabi/include/c++/10.3.1/bits/vector.tcc **** 	  else
 242:/Library/DaisyToolchain/0.1.3-ARM/arm/arm-none-eabi/include/c++/10.3.1/bits/vector.tcc **** 	    {
 243:/Library/DaisyToolchain/0.1.3-ARM/arm/arm-none-eabi/include/c++/10.3.1/bits/vector.tcc **** 	      std::copy(__x._M_impl._M_start, __x._M_impl._M_start + size(),
 244:/Library/DaisyToolchain/0.1.3-ARM/arm/arm-none-eabi/include/c++/10.3.1/bits/vector.tcc **** 			this->_M_impl._M_start);
 245:/Library/DaisyToolchain/0.1.3-ARM/arm/arm-none-eabi/include/c++/10.3.1/bits/vector.tcc **** 	      std::__uninitialized_copy_a(__x._M_impl._M_start + size(),
 246:/Library/DaisyToolchain/0.1.3-ARM/arm/arm-none-eabi/include/c++/10.3.1/bits/vector.tcc **** 					  __x._M_impl._M_finish,
 247:/Library/DaisyToolchain/0.1.3-ARM/arm/arm-none-eabi/include/c++/10.3.1/bits/vector.tcc **** 					  this->_M_impl._M_finish,
 248:/Library/DaisyToolchain/0.1.3-ARM/arm/arm-none-eabi/include/c++/10.3.1/bits/vector.tcc **** 					  _M_get_Tp_allocator());
 249:/Library/DaisyToolchain/0.1.3-ARM/arm/arm-none-eabi/include/c++/10.3.1/bits/vector.tcc **** 	    }
 250:/Library/DaisyToolchain/0.1.3-ARM/arm/arm-none-eabi/include/c++/10.3.1/bits/vector.tcc **** 	  this->_M_impl._M_finish = this->_M_impl._M_start + __xlen;
 251:/Library/DaisyToolchain/0.1.3-ARM/arm/arm-none-eabi/include/c++/10.3.1/bits/vector.tcc **** 	}
 252:/Library/DaisyToolchain/0.1.3-ARM/arm/arm-none-eabi/include/c++/10.3.1/bits/vector.tcc ****       return *this;
 253:/Library/DaisyToolchain/0.1.3-ARM/arm/arm-none-eabi/include/c++/10.3.1/bits/vector.tcc ****     }
 254:/Library/DaisyToolchain/0.1.3-ARM/arm/arm-none-eabi/include/c++/10.3.1/bits/vector.tcc **** 
 255:/Library/DaisyToolchain/0.1.3-ARM/arm/arm-none-eabi/include/c++/10.3.1/bits/vector.tcc ****   template<typename _Tp, typename _Alloc>
 256:/Library/DaisyToolchain/0.1.3-ARM/arm/arm-none-eabi/include/c++/10.3.1/bits/vector.tcc ****     void
 257:/Library/DaisyToolchain/0.1.3-ARM/arm/arm-none-eabi/include/c++/10.3.1/bits/vector.tcc ****     vector<_Tp, _Alloc>::
 258:/Library/DaisyToolchain/0.1.3-ARM/arm/arm-none-eabi/include/c++/10.3.1/bits/vector.tcc ****     _M_fill_assign(size_t __n, const value_type& __val)
 259:/Library/DaisyToolchain/0.1.3-ARM/arm/arm-none-eabi/include/c++/10.3.1/bits/vector.tcc ****     {
 260:/Library/DaisyToolchain/0.1.3-ARM/arm/arm-none-eabi/include/c++/10.3.1/bits/vector.tcc ****       if (__n > capacity())
 261:/Library/DaisyToolchain/0.1.3-ARM/arm/arm-none-eabi/include/c++/10.3.1/bits/vector.tcc **** 	{
 262:/Library/DaisyToolchain/0.1.3-ARM/arm/arm-none-eabi/include/c++/10.3.1/bits/vector.tcc **** 	  vector __tmp(__n, __val, _M_get_Tp_allocator());
 263:/Library/DaisyToolchain/0.1.3-ARM/arm/arm-none-eabi/include/c++/10.3.1/bits/vector.tcc **** 	  __tmp._M_impl._M_swap_data(this->_M_impl);
 264:/Library/DaisyToolchain/0.1.3-ARM/arm/arm-none-eabi/include/c++/10.3.1/bits/vector.tcc **** 	}
 265:/Library/DaisyToolchain/0.1.3-ARM/arm/arm-none-eabi/include/c++/10.3.1/bits/vector.tcc ****       else if (__n > size())
 266:/Library/DaisyToolchain/0.1.3-ARM/arm/arm-none-eabi/include/c++/10.3.1/bits/vector.tcc **** 	{
 267:/Library/DaisyToolchain/0.1.3-ARM/arm/arm-none-eabi/include/c++/10.3.1/bits/vector.tcc **** 	  std::fill(begin(), end(), __val);
 268:/Library/DaisyToolchain/0.1.3-ARM/arm/arm-none-eabi/include/c++/10.3.1/bits/vector.tcc **** 	  const size_type __add = __n - size();
 269:/Library/DaisyToolchain/0.1.3-ARM/arm/arm-none-eabi/include/c++/10.3.1/bits/vector.tcc **** 	  _GLIBCXX_ASAN_ANNOTATE_GROW(__add);
 270:/Library/DaisyToolchain/0.1.3-ARM/arm/arm-none-eabi/include/c++/10.3.1/bits/vector.tcc **** 	  this->_M_impl._M_finish =
 271:/Library/DaisyToolchain/0.1.3-ARM/arm/arm-none-eabi/include/c++/10.3.1/bits/vector.tcc **** 	    std::__uninitialized_fill_n_a(this->_M_impl._M_finish,
 272:/Library/DaisyToolchain/0.1.3-ARM/arm/arm-none-eabi/include/c++/10.3.1/bits/vector.tcc **** 					  __add, __val, _M_get_Tp_allocator());
 273:/Library/DaisyToolchain/0.1.3-ARM/arm/arm-none-eabi/include/c++/10.3.1/bits/vector.tcc **** 	  _GLIBCXX_ASAN_ANNOTATE_GREW(__add);
 274:/Library/DaisyToolchain/0.1.3-ARM/arm/arm-none-eabi/include/c++/10.3.1/bits/vector.tcc **** 	}
 275:/Library/DaisyToolchain/0.1.3-ARM/arm/arm-none-eabi/include/c++/10.3.1/bits/vector.tcc ****       else
 276:/Library/DaisyToolchain/0.1.3-ARM/arm/arm-none-eabi/include/c++/10.3.1/bits/vector.tcc ****         _M_erase_at_end(std::fill_n(this->_M_impl._M_start, __n, __val));
 277:/Library/DaisyToolchain/0.1.3-ARM/arm/arm-none-eabi/include/c++/10.3.1/bits/vector.tcc ****     }
 278:/Library/DaisyToolchain/0.1.3-ARM/arm/arm-none-eabi/include/c++/10.3.1/bits/vector.tcc **** 
 279:/Library/DaisyToolchain/0.1.3-ARM/arm/arm-none-eabi/include/c++/10.3.1/bits/vector.tcc ****   template<typename _Tp, typename _Alloc>
 280:/Library/DaisyToolchain/0.1.3-ARM/arm/arm-none-eabi/include/c++/10.3.1/bits/vector.tcc ****     template<typename _InputIterator>
 281:/Library/DaisyToolchain/0.1.3-ARM/arm/arm-none-eabi/include/c++/10.3.1/bits/vector.tcc ****       void
 282:/Library/DaisyToolchain/0.1.3-ARM/arm/arm-none-eabi/include/c++/10.3.1/bits/vector.tcc ****       vector<_Tp, _Alloc>::
 283:/Library/DaisyToolchain/0.1.3-ARM/arm/arm-none-eabi/include/c++/10.3.1/bits/vector.tcc ****       _M_assign_aux(_InputIterator __first, _InputIterator __last,
 284:/Library/DaisyToolchain/0.1.3-ARM/arm/arm-none-eabi/include/c++/10.3.1/bits/vector.tcc **** 		    std::input_iterator_tag)
 285:/Library/DaisyToolchain/0.1.3-ARM/arm/arm-none-eabi/include/c++/10.3.1/bits/vector.tcc ****       {
 286:/Library/DaisyToolchain/0.1.3-ARM/arm/arm-none-eabi/include/c++/10.3.1/bits/vector.tcc **** 	pointer __cur(this->_M_impl._M_start);
 287:/Library/DaisyToolchain/0.1.3-ARM/arm/arm-none-eabi/include/c++/10.3.1/bits/vector.tcc **** 	for (; __first != __last && __cur != this->_M_impl._M_finish;
ARM GAS  /var/folders/xd/16jvbr6j24q9nvtpm0qtw3240000gn/T//cch9jPA2.s 			page 117


 288:/Library/DaisyToolchain/0.1.3-ARM/arm/arm-none-eabi/include/c++/10.3.1/bits/vector.tcc **** 	     ++__cur, (void)++__first)
 289:/Library/DaisyToolchain/0.1.3-ARM/arm/arm-none-eabi/include/c++/10.3.1/bits/vector.tcc **** 	  *__cur = *__first;
 290:/Library/DaisyToolchain/0.1.3-ARM/arm/arm-none-eabi/include/c++/10.3.1/bits/vector.tcc **** 	if (__first == __last)
 291:/Library/DaisyToolchain/0.1.3-ARM/arm/arm-none-eabi/include/c++/10.3.1/bits/vector.tcc **** 	  _M_erase_at_end(__cur);
 292:/Library/DaisyToolchain/0.1.3-ARM/arm/arm-none-eabi/include/c++/10.3.1/bits/vector.tcc **** 	else
 293:/Library/DaisyToolchain/0.1.3-ARM/arm/arm-none-eabi/include/c++/10.3.1/bits/vector.tcc **** 	  _M_range_insert(end(), __first, __last,
 294:/Library/DaisyToolchain/0.1.3-ARM/arm/arm-none-eabi/include/c++/10.3.1/bits/vector.tcc **** 			  std::__iterator_category(__first));
 295:/Library/DaisyToolchain/0.1.3-ARM/arm/arm-none-eabi/include/c++/10.3.1/bits/vector.tcc ****       }
 296:/Library/DaisyToolchain/0.1.3-ARM/arm/arm-none-eabi/include/c++/10.3.1/bits/vector.tcc **** 
 297:/Library/DaisyToolchain/0.1.3-ARM/arm/arm-none-eabi/include/c++/10.3.1/bits/vector.tcc ****   template<typename _Tp, typename _Alloc>
 298:/Library/DaisyToolchain/0.1.3-ARM/arm/arm-none-eabi/include/c++/10.3.1/bits/vector.tcc ****     template<typename _ForwardIterator>
 299:/Library/DaisyToolchain/0.1.3-ARM/arm/arm-none-eabi/include/c++/10.3.1/bits/vector.tcc ****       void
 300:/Library/DaisyToolchain/0.1.3-ARM/arm/arm-none-eabi/include/c++/10.3.1/bits/vector.tcc ****       vector<_Tp, _Alloc>::
 301:/Library/DaisyToolchain/0.1.3-ARM/arm/arm-none-eabi/include/c++/10.3.1/bits/vector.tcc ****       _M_assign_aux(_ForwardIterator __first, _ForwardIterator __last,
 302:/Library/DaisyToolchain/0.1.3-ARM/arm/arm-none-eabi/include/c++/10.3.1/bits/vector.tcc **** 		    std::forward_iterator_tag)
 303:/Library/DaisyToolchain/0.1.3-ARM/arm/arm-none-eabi/include/c++/10.3.1/bits/vector.tcc ****       {
 304:/Library/DaisyToolchain/0.1.3-ARM/arm/arm-none-eabi/include/c++/10.3.1/bits/vector.tcc **** 	const size_type __len = std::distance(__first, __last);
 305:/Library/DaisyToolchain/0.1.3-ARM/arm/arm-none-eabi/include/c++/10.3.1/bits/vector.tcc **** 
 306:/Library/DaisyToolchain/0.1.3-ARM/arm/arm-none-eabi/include/c++/10.3.1/bits/vector.tcc **** 	if (__len > capacity())
 307:/Library/DaisyToolchain/0.1.3-ARM/arm/arm-none-eabi/include/c++/10.3.1/bits/vector.tcc **** 	  {
 308:/Library/DaisyToolchain/0.1.3-ARM/arm/arm-none-eabi/include/c++/10.3.1/bits/vector.tcc **** 	    _S_check_init_len(__len, _M_get_Tp_allocator());
 309:/Library/DaisyToolchain/0.1.3-ARM/arm/arm-none-eabi/include/c++/10.3.1/bits/vector.tcc **** 	    pointer __tmp(_M_allocate_and_copy(__len, __first, __last));
 310:/Library/DaisyToolchain/0.1.3-ARM/arm/arm-none-eabi/include/c++/10.3.1/bits/vector.tcc **** 	    std::_Destroy(this->_M_impl._M_start, this->_M_impl._M_finish,
 311:/Library/DaisyToolchain/0.1.3-ARM/arm/arm-none-eabi/include/c++/10.3.1/bits/vector.tcc **** 			  _M_get_Tp_allocator());
 312:/Library/DaisyToolchain/0.1.3-ARM/arm/arm-none-eabi/include/c++/10.3.1/bits/vector.tcc **** 	    _GLIBCXX_ASAN_ANNOTATE_REINIT;
 313:/Library/DaisyToolchain/0.1.3-ARM/arm/arm-none-eabi/include/c++/10.3.1/bits/vector.tcc **** 	    _M_deallocate(this->_M_impl._M_start,
 314:/Library/DaisyToolchain/0.1.3-ARM/arm/arm-none-eabi/include/c++/10.3.1/bits/vector.tcc **** 			  this->_M_impl._M_end_of_storage
 315:/Library/DaisyToolchain/0.1.3-ARM/arm/arm-none-eabi/include/c++/10.3.1/bits/vector.tcc **** 			  - this->_M_impl._M_start);
 316:/Library/DaisyToolchain/0.1.3-ARM/arm/arm-none-eabi/include/c++/10.3.1/bits/vector.tcc **** 	    this->_M_impl._M_start = __tmp;
 317:/Library/DaisyToolchain/0.1.3-ARM/arm/arm-none-eabi/include/c++/10.3.1/bits/vector.tcc **** 	    this->_M_impl._M_finish = this->_M_impl._M_start + __len;
 318:/Library/DaisyToolchain/0.1.3-ARM/arm/arm-none-eabi/include/c++/10.3.1/bits/vector.tcc **** 	    this->_M_impl._M_end_of_storage = this->_M_impl._M_finish;
 319:/Library/DaisyToolchain/0.1.3-ARM/arm/arm-none-eabi/include/c++/10.3.1/bits/vector.tcc **** 	  }
 320:/Library/DaisyToolchain/0.1.3-ARM/arm/arm-none-eabi/include/c++/10.3.1/bits/vector.tcc **** 	else if (size() >= __len)
 321:/Library/DaisyToolchain/0.1.3-ARM/arm/arm-none-eabi/include/c++/10.3.1/bits/vector.tcc **** 	  _M_erase_at_end(std::copy(__first, __last, this->_M_impl._M_start));
 322:/Library/DaisyToolchain/0.1.3-ARM/arm/arm-none-eabi/include/c++/10.3.1/bits/vector.tcc **** 	else
 323:/Library/DaisyToolchain/0.1.3-ARM/arm/arm-none-eabi/include/c++/10.3.1/bits/vector.tcc **** 	  {
 324:/Library/DaisyToolchain/0.1.3-ARM/arm/arm-none-eabi/include/c++/10.3.1/bits/vector.tcc **** 	    _ForwardIterator __mid = __first;
 325:/Library/DaisyToolchain/0.1.3-ARM/arm/arm-none-eabi/include/c++/10.3.1/bits/vector.tcc **** 	    std::advance(__mid, size());
 326:/Library/DaisyToolchain/0.1.3-ARM/arm/arm-none-eabi/include/c++/10.3.1/bits/vector.tcc **** 	    std::copy(__first, __mid, this->_M_impl._M_start);
 327:/Library/DaisyToolchain/0.1.3-ARM/arm/arm-none-eabi/include/c++/10.3.1/bits/vector.tcc **** 	    const size_type __attribute__((__unused__)) __n = __len - size();
 328:/Library/DaisyToolchain/0.1.3-ARM/arm/arm-none-eabi/include/c++/10.3.1/bits/vector.tcc **** 	    _GLIBCXX_ASAN_ANNOTATE_GROW(__n);
 329:/Library/DaisyToolchain/0.1.3-ARM/arm/arm-none-eabi/include/c++/10.3.1/bits/vector.tcc **** 	    this->_M_impl._M_finish =
 330:/Library/DaisyToolchain/0.1.3-ARM/arm/arm-none-eabi/include/c++/10.3.1/bits/vector.tcc **** 	      std::__uninitialized_copy_a(__mid, __last,
 331:/Library/DaisyToolchain/0.1.3-ARM/arm/arm-none-eabi/include/c++/10.3.1/bits/vector.tcc **** 					  this->_M_impl._M_finish,
 332:/Library/DaisyToolchain/0.1.3-ARM/arm/arm-none-eabi/include/c++/10.3.1/bits/vector.tcc **** 					  _M_get_Tp_allocator());
 333:/Library/DaisyToolchain/0.1.3-ARM/arm/arm-none-eabi/include/c++/10.3.1/bits/vector.tcc **** 	    _GLIBCXX_ASAN_ANNOTATE_GREW(__n);
 334:/Library/DaisyToolchain/0.1.3-ARM/arm/arm-none-eabi/include/c++/10.3.1/bits/vector.tcc **** 	  }
 335:/Library/DaisyToolchain/0.1.3-ARM/arm/arm-none-eabi/include/c++/10.3.1/bits/vector.tcc ****       }
 336:/Library/DaisyToolchain/0.1.3-ARM/arm/arm-none-eabi/include/c++/10.3.1/bits/vector.tcc **** 
 337:/Library/DaisyToolchain/0.1.3-ARM/arm/arm-none-eabi/include/c++/10.3.1/bits/vector.tcc **** #if __cplusplus >= 201103L
 338:/Library/DaisyToolchain/0.1.3-ARM/arm/arm-none-eabi/include/c++/10.3.1/bits/vector.tcc ****   template<typename _Tp, typename _Alloc>
 339:/Library/DaisyToolchain/0.1.3-ARM/arm/arm-none-eabi/include/c++/10.3.1/bits/vector.tcc ****     auto
 340:/Library/DaisyToolchain/0.1.3-ARM/arm/arm-none-eabi/include/c++/10.3.1/bits/vector.tcc ****     vector<_Tp, _Alloc>::
 341:/Library/DaisyToolchain/0.1.3-ARM/arm/arm-none-eabi/include/c++/10.3.1/bits/vector.tcc ****     _M_insert_rval(const_iterator __position, value_type&& __v) -> iterator
 342:/Library/DaisyToolchain/0.1.3-ARM/arm/arm-none-eabi/include/c++/10.3.1/bits/vector.tcc ****     {
 343:/Library/DaisyToolchain/0.1.3-ARM/arm/arm-none-eabi/include/c++/10.3.1/bits/vector.tcc ****       const auto __n = __position - cbegin();
 344:/Library/DaisyToolchain/0.1.3-ARM/arm/arm-none-eabi/include/c++/10.3.1/bits/vector.tcc ****       if (this->_M_impl._M_finish != this->_M_impl._M_end_of_storage)
ARM GAS  /var/folders/xd/16jvbr6j24q9nvtpm0qtw3240000gn/T//cch9jPA2.s 			page 118


 345:/Library/DaisyToolchain/0.1.3-ARM/arm/arm-none-eabi/include/c++/10.3.1/bits/vector.tcc **** 	if (__position == cend())
 346:/Library/DaisyToolchain/0.1.3-ARM/arm/arm-none-eabi/include/c++/10.3.1/bits/vector.tcc **** 	  {
 347:/Library/DaisyToolchain/0.1.3-ARM/arm/arm-none-eabi/include/c++/10.3.1/bits/vector.tcc **** 	    _GLIBCXX_ASAN_ANNOTATE_GROW(1);
 348:/Library/DaisyToolchain/0.1.3-ARM/arm/arm-none-eabi/include/c++/10.3.1/bits/vector.tcc **** 	    _Alloc_traits::construct(this->_M_impl, this->_M_impl._M_finish,
 349:/Library/DaisyToolchain/0.1.3-ARM/arm/arm-none-eabi/include/c++/10.3.1/bits/vector.tcc **** 				     std::move(__v));
 350:/Library/DaisyToolchain/0.1.3-ARM/arm/arm-none-eabi/include/c++/10.3.1/bits/vector.tcc **** 	    ++this->_M_impl._M_finish;
 351:/Library/DaisyToolchain/0.1.3-ARM/arm/arm-none-eabi/include/c++/10.3.1/bits/vector.tcc **** 	    _GLIBCXX_ASAN_ANNOTATE_GREW(1);
 352:/Library/DaisyToolchain/0.1.3-ARM/arm/arm-none-eabi/include/c++/10.3.1/bits/vector.tcc **** 	  }
 353:/Library/DaisyToolchain/0.1.3-ARM/arm/arm-none-eabi/include/c++/10.3.1/bits/vector.tcc **** 	else
 354:/Library/DaisyToolchain/0.1.3-ARM/arm/arm-none-eabi/include/c++/10.3.1/bits/vector.tcc **** 	  _M_insert_aux(begin() + __n, std::move(__v));
 355:/Library/DaisyToolchain/0.1.3-ARM/arm/arm-none-eabi/include/c++/10.3.1/bits/vector.tcc ****       else
 356:/Library/DaisyToolchain/0.1.3-ARM/arm/arm-none-eabi/include/c++/10.3.1/bits/vector.tcc **** 	_M_realloc_insert(begin() + __n, std::move(__v));
 357:/Library/DaisyToolchain/0.1.3-ARM/arm/arm-none-eabi/include/c++/10.3.1/bits/vector.tcc **** 
 358:/Library/DaisyToolchain/0.1.3-ARM/arm/arm-none-eabi/include/c++/10.3.1/bits/vector.tcc ****       return iterator(this->_M_impl._M_start + __n);
 359:/Library/DaisyToolchain/0.1.3-ARM/arm/arm-none-eabi/include/c++/10.3.1/bits/vector.tcc ****     }
 360:/Library/DaisyToolchain/0.1.3-ARM/arm/arm-none-eabi/include/c++/10.3.1/bits/vector.tcc **** 
 361:/Library/DaisyToolchain/0.1.3-ARM/arm/arm-none-eabi/include/c++/10.3.1/bits/vector.tcc ****   template<typename _Tp, typename _Alloc>
 362:/Library/DaisyToolchain/0.1.3-ARM/arm/arm-none-eabi/include/c++/10.3.1/bits/vector.tcc ****     template<typename... _Args>
 363:/Library/DaisyToolchain/0.1.3-ARM/arm/arm-none-eabi/include/c++/10.3.1/bits/vector.tcc ****       auto
 364:/Library/DaisyToolchain/0.1.3-ARM/arm/arm-none-eabi/include/c++/10.3.1/bits/vector.tcc ****       vector<_Tp, _Alloc>::
 365:/Library/DaisyToolchain/0.1.3-ARM/arm/arm-none-eabi/include/c++/10.3.1/bits/vector.tcc ****       _M_emplace_aux(const_iterator __position, _Args&&... __args)
 366:/Library/DaisyToolchain/0.1.3-ARM/arm/arm-none-eabi/include/c++/10.3.1/bits/vector.tcc ****       -> iterator
 367:/Library/DaisyToolchain/0.1.3-ARM/arm/arm-none-eabi/include/c++/10.3.1/bits/vector.tcc ****       {
 368:/Library/DaisyToolchain/0.1.3-ARM/arm/arm-none-eabi/include/c++/10.3.1/bits/vector.tcc **** 	const auto __n = __position - cbegin();
 369:/Library/DaisyToolchain/0.1.3-ARM/arm/arm-none-eabi/include/c++/10.3.1/bits/vector.tcc **** 	if (this->_M_impl._M_finish != this->_M_impl._M_end_of_storage)
 370:/Library/DaisyToolchain/0.1.3-ARM/arm/arm-none-eabi/include/c++/10.3.1/bits/vector.tcc **** 	  if (__position == cend())
 371:/Library/DaisyToolchain/0.1.3-ARM/arm/arm-none-eabi/include/c++/10.3.1/bits/vector.tcc **** 	    {
 372:/Library/DaisyToolchain/0.1.3-ARM/arm/arm-none-eabi/include/c++/10.3.1/bits/vector.tcc **** 	      _GLIBCXX_ASAN_ANNOTATE_GROW(1);
 373:/Library/DaisyToolchain/0.1.3-ARM/arm/arm-none-eabi/include/c++/10.3.1/bits/vector.tcc **** 	      _Alloc_traits::construct(this->_M_impl, this->_M_impl._M_finish,
 374:/Library/DaisyToolchain/0.1.3-ARM/arm/arm-none-eabi/include/c++/10.3.1/bits/vector.tcc **** 				       std::forward<_Args>(__args)...);
 375:/Library/DaisyToolchain/0.1.3-ARM/arm/arm-none-eabi/include/c++/10.3.1/bits/vector.tcc **** 	      ++this->_M_impl._M_finish;
 376:/Library/DaisyToolchain/0.1.3-ARM/arm/arm-none-eabi/include/c++/10.3.1/bits/vector.tcc **** 	      _GLIBCXX_ASAN_ANNOTATE_GREW(1);
 377:/Library/DaisyToolchain/0.1.3-ARM/arm/arm-none-eabi/include/c++/10.3.1/bits/vector.tcc **** 	    }
 378:/Library/DaisyToolchain/0.1.3-ARM/arm/arm-none-eabi/include/c++/10.3.1/bits/vector.tcc **** 	  else
 379:/Library/DaisyToolchain/0.1.3-ARM/arm/arm-none-eabi/include/c++/10.3.1/bits/vector.tcc **** 	    {
 380:/Library/DaisyToolchain/0.1.3-ARM/arm/arm-none-eabi/include/c++/10.3.1/bits/vector.tcc **** 	      // We need to construct a temporary because something in __args...
 381:/Library/DaisyToolchain/0.1.3-ARM/arm/arm-none-eabi/include/c++/10.3.1/bits/vector.tcc **** 	      // could alias one of the elements of the container and so we
 382:/Library/DaisyToolchain/0.1.3-ARM/arm/arm-none-eabi/include/c++/10.3.1/bits/vector.tcc **** 	      // need to use it before _M_insert_aux moves elements around.
 383:/Library/DaisyToolchain/0.1.3-ARM/arm/arm-none-eabi/include/c++/10.3.1/bits/vector.tcc **** 	      _Temporary_value __tmp(this, std::forward<_Args>(__args)...);
 384:/Library/DaisyToolchain/0.1.3-ARM/arm/arm-none-eabi/include/c++/10.3.1/bits/vector.tcc **** 	      _M_insert_aux(begin() + __n, std::move(__tmp._M_val()));
 385:/Library/DaisyToolchain/0.1.3-ARM/arm/arm-none-eabi/include/c++/10.3.1/bits/vector.tcc **** 	    }
 386:/Library/DaisyToolchain/0.1.3-ARM/arm/arm-none-eabi/include/c++/10.3.1/bits/vector.tcc **** 	else
 387:/Library/DaisyToolchain/0.1.3-ARM/arm/arm-none-eabi/include/c++/10.3.1/bits/vector.tcc **** 	  _M_realloc_insert(begin() + __n, std::forward<_Args>(__args)...);
 388:/Library/DaisyToolchain/0.1.3-ARM/arm/arm-none-eabi/include/c++/10.3.1/bits/vector.tcc **** 
 389:/Library/DaisyToolchain/0.1.3-ARM/arm/arm-none-eabi/include/c++/10.3.1/bits/vector.tcc **** 	return iterator(this->_M_impl._M_start + __n);
 390:/Library/DaisyToolchain/0.1.3-ARM/arm/arm-none-eabi/include/c++/10.3.1/bits/vector.tcc ****       }
 391:/Library/DaisyToolchain/0.1.3-ARM/arm/arm-none-eabi/include/c++/10.3.1/bits/vector.tcc **** 
 392:/Library/DaisyToolchain/0.1.3-ARM/arm/arm-none-eabi/include/c++/10.3.1/bits/vector.tcc ****   template<typename _Tp, typename _Alloc>
 393:/Library/DaisyToolchain/0.1.3-ARM/arm/arm-none-eabi/include/c++/10.3.1/bits/vector.tcc ****     template<typename _Arg>
 394:/Library/DaisyToolchain/0.1.3-ARM/arm/arm-none-eabi/include/c++/10.3.1/bits/vector.tcc ****       void
 395:/Library/DaisyToolchain/0.1.3-ARM/arm/arm-none-eabi/include/c++/10.3.1/bits/vector.tcc ****       vector<_Tp, _Alloc>::
 396:/Library/DaisyToolchain/0.1.3-ARM/arm/arm-none-eabi/include/c++/10.3.1/bits/vector.tcc ****       _M_insert_aux(iterator __position, _Arg&& __arg)
 397:/Library/DaisyToolchain/0.1.3-ARM/arm/arm-none-eabi/include/c++/10.3.1/bits/vector.tcc **** #else
 398:/Library/DaisyToolchain/0.1.3-ARM/arm/arm-none-eabi/include/c++/10.3.1/bits/vector.tcc ****   template<typename _Tp, typename _Alloc>
 399:/Library/DaisyToolchain/0.1.3-ARM/arm/arm-none-eabi/include/c++/10.3.1/bits/vector.tcc ****     void
 400:/Library/DaisyToolchain/0.1.3-ARM/arm/arm-none-eabi/include/c++/10.3.1/bits/vector.tcc ****     vector<_Tp, _Alloc>::
 401:/Library/DaisyToolchain/0.1.3-ARM/arm/arm-none-eabi/include/c++/10.3.1/bits/vector.tcc ****     _M_insert_aux(iterator __position, const _Tp& __x)
ARM GAS  /var/folders/xd/16jvbr6j24q9nvtpm0qtw3240000gn/T//cch9jPA2.s 			page 119


 402:/Library/DaisyToolchain/0.1.3-ARM/arm/arm-none-eabi/include/c++/10.3.1/bits/vector.tcc **** #endif
 403:/Library/DaisyToolchain/0.1.3-ARM/arm/arm-none-eabi/include/c++/10.3.1/bits/vector.tcc ****     {
 404:/Library/DaisyToolchain/0.1.3-ARM/arm/arm-none-eabi/include/c++/10.3.1/bits/vector.tcc ****       _GLIBCXX_ASAN_ANNOTATE_GROW(1);
 405:/Library/DaisyToolchain/0.1.3-ARM/arm/arm-none-eabi/include/c++/10.3.1/bits/vector.tcc ****       _Alloc_traits::construct(this->_M_impl, this->_M_impl._M_finish,
 406:/Library/DaisyToolchain/0.1.3-ARM/arm/arm-none-eabi/include/c++/10.3.1/bits/vector.tcc **** 			       _GLIBCXX_MOVE(*(this->_M_impl._M_finish - 1)));
 407:/Library/DaisyToolchain/0.1.3-ARM/arm/arm-none-eabi/include/c++/10.3.1/bits/vector.tcc ****       ++this->_M_impl._M_finish;
 408:/Library/DaisyToolchain/0.1.3-ARM/arm/arm-none-eabi/include/c++/10.3.1/bits/vector.tcc ****       _GLIBCXX_ASAN_ANNOTATE_GREW(1);
 409:/Library/DaisyToolchain/0.1.3-ARM/arm/arm-none-eabi/include/c++/10.3.1/bits/vector.tcc **** #if __cplusplus < 201103L
 410:/Library/DaisyToolchain/0.1.3-ARM/arm/arm-none-eabi/include/c++/10.3.1/bits/vector.tcc ****       _Tp __x_copy = __x;
 411:/Library/DaisyToolchain/0.1.3-ARM/arm/arm-none-eabi/include/c++/10.3.1/bits/vector.tcc **** #endif
 412:/Library/DaisyToolchain/0.1.3-ARM/arm/arm-none-eabi/include/c++/10.3.1/bits/vector.tcc ****       _GLIBCXX_MOVE_BACKWARD3(__position.base(),
 413:/Library/DaisyToolchain/0.1.3-ARM/arm/arm-none-eabi/include/c++/10.3.1/bits/vector.tcc **** 			      this->_M_impl._M_finish - 2,
 414:/Library/DaisyToolchain/0.1.3-ARM/arm/arm-none-eabi/include/c++/10.3.1/bits/vector.tcc **** 			      this->_M_impl._M_finish - 1);
 415:/Library/DaisyToolchain/0.1.3-ARM/arm/arm-none-eabi/include/c++/10.3.1/bits/vector.tcc **** #if __cplusplus < 201103L
 416:/Library/DaisyToolchain/0.1.3-ARM/arm/arm-none-eabi/include/c++/10.3.1/bits/vector.tcc ****       *__position = __x_copy;
 417:/Library/DaisyToolchain/0.1.3-ARM/arm/arm-none-eabi/include/c++/10.3.1/bits/vector.tcc **** #else
 418:/Library/DaisyToolchain/0.1.3-ARM/arm/arm-none-eabi/include/c++/10.3.1/bits/vector.tcc ****       *__position = std::forward<_Arg>(__arg);
 419:/Library/DaisyToolchain/0.1.3-ARM/arm/arm-none-eabi/include/c++/10.3.1/bits/vector.tcc **** #endif
 420:/Library/DaisyToolchain/0.1.3-ARM/arm/arm-none-eabi/include/c++/10.3.1/bits/vector.tcc ****     }
 421:/Library/DaisyToolchain/0.1.3-ARM/arm/arm-none-eabi/include/c++/10.3.1/bits/vector.tcc **** 
 422:/Library/DaisyToolchain/0.1.3-ARM/arm/arm-none-eabi/include/c++/10.3.1/bits/vector.tcc **** #if __cplusplus >= 201103L
 423:/Library/DaisyToolchain/0.1.3-ARM/arm/arm-none-eabi/include/c++/10.3.1/bits/vector.tcc ****   template<typename _Tp, typename _Alloc>
 424:/Library/DaisyToolchain/0.1.3-ARM/arm/arm-none-eabi/include/c++/10.3.1/bits/vector.tcc ****     template<typename... _Args>
 425:/Library/DaisyToolchain/0.1.3-ARM/arm/arm-none-eabi/include/c++/10.3.1/bits/vector.tcc ****       void
 426:/Library/DaisyToolchain/0.1.3-ARM/arm/arm-none-eabi/include/c++/10.3.1/bits/vector.tcc ****       vector<_Tp, _Alloc>::
 427:/Library/DaisyToolchain/0.1.3-ARM/arm/arm-none-eabi/include/c++/10.3.1/bits/vector.tcc ****       _M_realloc_insert(iterator __position, _Args&&... __args)
 428:/Library/DaisyToolchain/0.1.3-ARM/arm/arm-none-eabi/include/c++/10.3.1/bits/vector.tcc **** #else
 429:/Library/DaisyToolchain/0.1.3-ARM/arm/arm-none-eabi/include/c++/10.3.1/bits/vector.tcc ****   template<typename _Tp, typename _Alloc>
 430:/Library/DaisyToolchain/0.1.3-ARM/arm/arm-none-eabi/include/c++/10.3.1/bits/vector.tcc ****     void
 431:/Library/DaisyToolchain/0.1.3-ARM/arm/arm-none-eabi/include/c++/10.3.1/bits/vector.tcc ****     vector<_Tp, _Alloc>::
 432:/Library/DaisyToolchain/0.1.3-ARM/arm/arm-none-eabi/include/c++/10.3.1/bits/vector.tcc ****     _M_realloc_insert(iterator __position, const _Tp& __x)
 433:/Library/DaisyToolchain/0.1.3-ARM/arm/arm-none-eabi/include/c++/10.3.1/bits/vector.tcc **** #endif
 434:/Library/DaisyToolchain/0.1.3-ARM/arm/arm-none-eabi/include/c++/10.3.1/bits/vector.tcc ****     {
 435:/Library/DaisyToolchain/0.1.3-ARM/arm/arm-none-eabi/include/c++/10.3.1/bits/vector.tcc ****       const size_type __len =
 436:/Library/DaisyToolchain/0.1.3-ARM/arm/arm-none-eabi/include/c++/10.3.1/bits/vector.tcc **** 	_M_check_len(size_type(1), "vector::_M_realloc_insert");
 437:/Library/DaisyToolchain/0.1.3-ARM/arm/arm-none-eabi/include/c++/10.3.1/bits/vector.tcc ****       pointer __old_start = this->_M_impl._M_start;
 438:/Library/DaisyToolchain/0.1.3-ARM/arm/arm-none-eabi/include/c++/10.3.1/bits/vector.tcc ****       pointer __old_finish = this->_M_impl._M_finish;
 439:/Library/DaisyToolchain/0.1.3-ARM/arm/arm-none-eabi/include/c++/10.3.1/bits/vector.tcc ****       const size_type __elems_before = __position - begin();
 440:/Library/DaisyToolchain/0.1.3-ARM/arm/arm-none-eabi/include/c++/10.3.1/bits/vector.tcc ****       pointer __new_start(this->_M_allocate(__len));
 441:/Library/DaisyToolchain/0.1.3-ARM/arm/arm-none-eabi/include/c++/10.3.1/bits/vector.tcc ****       pointer __new_finish(__new_start);
 442:/Library/DaisyToolchain/0.1.3-ARM/arm/arm-none-eabi/include/c++/10.3.1/bits/vector.tcc ****       __try
 443:/Library/DaisyToolchain/0.1.3-ARM/arm/arm-none-eabi/include/c++/10.3.1/bits/vector.tcc **** 	{
 444:/Library/DaisyToolchain/0.1.3-ARM/arm/arm-none-eabi/include/c++/10.3.1/bits/vector.tcc **** 	  // The order of the three operations is dictated by the C++11
 445:/Library/DaisyToolchain/0.1.3-ARM/arm/arm-none-eabi/include/c++/10.3.1/bits/vector.tcc **** 	  // case, where the moves could alter a new element belonging
 446:/Library/DaisyToolchain/0.1.3-ARM/arm/arm-none-eabi/include/c++/10.3.1/bits/vector.tcc **** 	  // to the existing vector.  This is an issue only for callers
 447:/Library/DaisyToolchain/0.1.3-ARM/arm/arm-none-eabi/include/c++/10.3.1/bits/vector.tcc **** 	  // taking the element by lvalue ref (see last bullet of C++11
 448:/Library/DaisyToolchain/0.1.3-ARM/arm/arm-none-eabi/include/c++/10.3.1/bits/vector.tcc **** 	  // [res.on.arguments]).
 449:/Library/DaisyToolchain/0.1.3-ARM/arm/arm-none-eabi/include/c++/10.3.1/bits/vector.tcc **** 	  _Alloc_traits::construct(this->_M_impl,
 450:/Library/DaisyToolchain/0.1.3-ARM/arm/arm-none-eabi/include/c++/10.3.1/bits/vector.tcc **** 				   __new_start + __elems_before,
 451:/Library/DaisyToolchain/0.1.3-ARM/arm/arm-none-eabi/include/c++/10.3.1/bits/vector.tcc **** #if __cplusplus >= 201103L
 452:/Library/DaisyToolchain/0.1.3-ARM/arm/arm-none-eabi/include/c++/10.3.1/bits/vector.tcc **** 				   std::forward<_Args>(__args)...);
 453:/Library/DaisyToolchain/0.1.3-ARM/arm/arm-none-eabi/include/c++/10.3.1/bits/vector.tcc **** #else
 454:/Library/DaisyToolchain/0.1.3-ARM/arm/arm-none-eabi/include/c++/10.3.1/bits/vector.tcc **** 				   __x);
 455:/Library/DaisyToolchain/0.1.3-ARM/arm/arm-none-eabi/include/c++/10.3.1/bits/vector.tcc **** #endif
 456:/Library/DaisyToolchain/0.1.3-ARM/arm/arm-none-eabi/include/c++/10.3.1/bits/vector.tcc **** 	  __new_finish = pointer();
 457:/Library/DaisyToolchain/0.1.3-ARM/arm/arm-none-eabi/include/c++/10.3.1/bits/vector.tcc **** 
 458:/Library/DaisyToolchain/0.1.3-ARM/arm/arm-none-eabi/include/c++/10.3.1/bits/vector.tcc **** #if __cplusplus >= 201103L
ARM GAS  /var/folders/xd/16jvbr6j24q9nvtpm0qtw3240000gn/T//cch9jPA2.s 			page 120


 459:/Library/DaisyToolchain/0.1.3-ARM/arm/arm-none-eabi/include/c++/10.3.1/bits/vector.tcc **** 	  if _GLIBCXX17_CONSTEXPR (_S_use_relocate())
 460:/Library/DaisyToolchain/0.1.3-ARM/arm/arm-none-eabi/include/c++/10.3.1/bits/vector.tcc **** 	    {
 461:/Library/DaisyToolchain/0.1.3-ARM/arm/arm-none-eabi/include/c++/10.3.1/bits/vector.tcc **** 	      __new_finish = _S_relocate(__old_start, __position.base(),
 462:/Library/DaisyToolchain/0.1.3-ARM/arm/arm-none-eabi/include/c++/10.3.1/bits/vector.tcc **** 					 __new_start, _M_get_Tp_allocator());
 463:/Library/DaisyToolchain/0.1.3-ARM/arm/arm-none-eabi/include/c++/10.3.1/bits/vector.tcc **** 
 464:/Library/DaisyToolchain/0.1.3-ARM/arm/arm-none-eabi/include/c++/10.3.1/bits/vector.tcc **** 	      ++__new_finish;
 465:/Library/DaisyToolchain/0.1.3-ARM/arm/arm-none-eabi/include/c++/10.3.1/bits/vector.tcc **** 
 466:/Library/DaisyToolchain/0.1.3-ARM/arm/arm-none-eabi/include/c++/10.3.1/bits/vector.tcc **** 	      __new_finish = _S_relocate(__position.base(), __old_finish,
 467:/Library/DaisyToolchain/0.1.3-ARM/arm/arm-none-eabi/include/c++/10.3.1/bits/vector.tcc **** 					 __new_finish, _M_get_Tp_allocator());
 468:/Library/DaisyToolchain/0.1.3-ARM/arm/arm-none-eabi/include/c++/10.3.1/bits/vector.tcc **** 	    }
 469:/Library/DaisyToolchain/0.1.3-ARM/arm/arm-none-eabi/include/c++/10.3.1/bits/vector.tcc **** 	  else
 470:/Library/DaisyToolchain/0.1.3-ARM/arm/arm-none-eabi/include/c++/10.3.1/bits/vector.tcc **** #endif
 471:/Library/DaisyToolchain/0.1.3-ARM/arm/arm-none-eabi/include/c++/10.3.1/bits/vector.tcc **** 	    {
 472:/Library/DaisyToolchain/0.1.3-ARM/arm/arm-none-eabi/include/c++/10.3.1/bits/vector.tcc **** 	      __new_finish
 473:/Library/DaisyToolchain/0.1.3-ARM/arm/arm-none-eabi/include/c++/10.3.1/bits/vector.tcc **** 		= std::__uninitialized_move_if_noexcept_a
 474:/Library/DaisyToolchain/0.1.3-ARM/arm/arm-none-eabi/include/c++/10.3.1/bits/vector.tcc **** 		(__old_start, __position.base(),
 475:/Library/DaisyToolchain/0.1.3-ARM/arm/arm-none-eabi/include/c++/10.3.1/bits/vector.tcc **** 		 __new_start, _M_get_Tp_allocator());
 476:/Library/DaisyToolchain/0.1.3-ARM/arm/arm-none-eabi/include/c++/10.3.1/bits/vector.tcc **** 
 477:/Library/DaisyToolchain/0.1.3-ARM/arm/arm-none-eabi/include/c++/10.3.1/bits/vector.tcc **** 	      ++__new_finish;
 478:/Library/DaisyToolchain/0.1.3-ARM/arm/arm-none-eabi/include/c++/10.3.1/bits/vector.tcc **** 
 479:/Library/DaisyToolchain/0.1.3-ARM/arm/arm-none-eabi/include/c++/10.3.1/bits/vector.tcc **** 	      __new_finish
 480:/Library/DaisyToolchain/0.1.3-ARM/arm/arm-none-eabi/include/c++/10.3.1/bits/vector.tcc **** 		= std::__uninitialized_move_if_noexcept_a
 481:/Library/DaisyToolchain/0.1.3-ARM/arm/arm-none-eabi/include/c++/10.3.1/bits/vector.tcc **** 		(__position.base(), __old_finish,
 482:/Library/DaisyToolchain/0.1.3-ARM/arm/arm-none-eabi/include/c++/10.3.1/bits/vector.tcc **** 		 __new_finish, _M_get_Tp_allocator());
 483:/Library/DaisyToolchain/0.1.3-ARM/arm/arm-none-eabi/include/c++/10.3.1/bits/vector.tcc **** 	    }
 484:/Library/DaisyToolchain/0.1.3-ARM/arm/arm-none-eabi/include/c++/10.3.1/bits/vector.tcc **** 	}
 485:/Library/DaisyToolchain/0.1.3-ARM/arm/arm-none-eabi/include/c++/10.3.1/bits/vector.tcc ****       __catch(...)
 486:/Library/DaisyToolchain/0.1.3-ARM/arm/arm-none-eabi/include/c++/10.3.1/bits/vector.tcc **** 	{
 487:/Library/DaisyToolchain/0.1.3-ARM/arm/arm-none-eabi/include/c++/10.3.1/bits/vector.tcc **** 	  if (!__new_finish)
 488:/Library/DaisyToolchain/0.1.3-ARM/arm/arm-none-eabi/include/c++/10.3.1/bits/vector.tcc **** 	    _Alloc_traits::destroy(this->_M_impl,
 489:/Library/DaisyToolchain/0.1.3-ARM/arm/arm-none-eabi/include/c++/10.3.1/bits/vector.tcc **** 				   __new_start + __elems_before);
 490:/Library/DaisyToolchain/0.1.3-ARM/arm/arm-none-eabi/include/c++/10.3.1/bits/vector.tcc **** 	  else
 491:/Library/DaisyToolchain/0.1.3-ARM/arm/arm-none-eabi/include/c++/10.3.1/bits/vector.tcc **** 	    std::_Destroy(__new_start, __new_finish, _M_get_Tp_allocator());
 492:/Library/DaisyToolchain/0.1.3-ARM/arm/arm-none-eabi/include/c++/10.3.1/bits/vector.tcc **** 	  _M_deallocate(__new_start, __len);
 493:/Library/DaisyToolchain/0.1.3-ARM/arm/arm-none-eabi/include/c++/10.3.1/bits/vector.tcc **** 	  __throw_exception_again;
 494:/Library/DaisyToolchain/0.1.3-ARM/arm/arm-none-eabi/include/c++/10.3.1/bits/vector.tcc **** 	}
 495:/Library/DaisyToolchain/0.1.3-ARM/arm/arm-none-eabi/include/c++/10.3.1/bits/vector.tcc **** #if __cplusplus >= 201103L
 496:/Library/DaisyToolchain/0.1.3-ARM/arm/arm-none-eabi/include/c++/10.3.1/bits/vector.tcc ****       if _GLIBCXX17_CONSTEXPR (!_S_use_relocate())
 497:/Library/DaisyToolchain/0.1.3-ARM/arm/arm-none-eabi/include/c++/10.3.1/bits/vector.tcc **** #endif
 498:/Library/DaisyToolchain/0.1.3-ARM/arm/arm-none-eabi/include/c++/10.3.1/bits/vector.tcc **** 	std::_Destroy(__old_start, __old_finish, _M_get_Tp_allocator());
 499:/Library/DaisyToolchain/0.1.3-ARM/arm/arm-none-eabi/include/c++/10.3.1/bits/vector.tcc ****       _GLIBCXX_ASAN_ANNOTATE_REINIT;
 500:/Library/DaisyToolchain/0.1.3-ARM/arm/arm-none-eabi/include/c++/10.3.1/bits/vector.tcc ****       _M_deallocate(__old_start,
 501:/Library/DaisyToolchain/0.1.3-ARM/arm/arm-none-eabi/include/c++/10.3.1/bits/vector.tcc **** 		    this->_M_impl._M_end_of_storage - __old_start);
 502:/Library/DaisyToolchain/0.1.3-ARM/arm/arm-none-eabi/include/c++/10.3.1/bits/vector.tcc ****       this->_M_impl._M_start = __new_start;
 503:/Library/DaisyToolchain/0.1.3-ARM/arm/arm-none-eabi/include/c++/10.3.1/bits/vector.tcc ****       this->_M_impl._M_finish = __new_finish;
 504:/Library/DaisyToolchain/0.1.3-ARM/arm/arm-none-eabi/include/c++/10.3.1/bits/vector.tcc ****       this->_M_impl._M_end_of_storage = __new_start + __len;
 505:/Library/DaisyToolchain/0.1.3-ARM/arm/arm-none-eabi/include/c++/10.3.1/bits/vector.tcc ****     }
 506:/Library/DaisyToolchain/0.1.3-ARM/arm/arm-none-eabi/include/c++/10.3.1/bits/vector.tcc **** 
 507:/Library/DaisyToolchain/0.1.3-ARM/arm/arm-none-eabi/include/c++/10.3.1/bits/vector.tcc ****   template<typename _Tp, typename _Alloc>
 508:/Library/DaisyToolchain/0.1.3-ARM/arm/arm-none-eabi/include/c++/10.3.1/bits/vector.tcc ****     void
 509:/Library/DaisyToolchain/0.1.3-ARM/arm/arm-none-eabi/include/c++/10.3.1/bits/vector.tcc ****     vector<_Tp, _Alloc>::
 510:/Library/DaisyToolchain/0.1.3-ARM/arm/arm-none-eabi/include/c++/10.3.1/bits/vector.tcc ****     _M_fill_insert(iterator __position, size_type __n, const value_type& __x)
 511:/Library/DaisyToolchain/0.1.3-ARM/arm/arm-none-eabi/include/c++/10.3.1/bits/vector.tcc ****     {
 512:/Library/DaisyToolchain/0.1.3-ARM/arm/arm-none-eabi/include/c++/10.3.1/bits/vector.tcc ****       if (__n != 0)
 513:/Library/DaisyToolchain/0.1.3-ARM/arm/arm-none-eabi/include/c++/10.3.1/bits/vector.tcc **** 	{
 514:/Library/DaisyToolchain/0.1.3-ARM/arm/arm-none-eabi/include/c++/10.3.1/bits/vector.tcc **** 	  if (size_type(this->_M_impl._M_end_of_storage
 515:/Library/DaisyToolchain/0.1.3-ARM/arm/arm-none-eabi/include/c++/10.3.1/bits/vector.tcc **** 			- this->_M_impl._M_finish) >= __n)
ARM GAS  /var/folders/xd/16jvbr6j24q9nvtpm0qtw3240000gn/T//cch9jPA2.s 			page 121


 516:/Library/DaisyToolchain/0.1.3-ARM/arm/arm-none-eabi/include/c++/10.3.1/bits/vector.tcc **** 	    {
 517:/Library/DaisyToolchain/0.1.3-ARM/arm/arm-none-eabi/include/c++/10.3.1/bits/vector.tcc **** #if __cplusplus < 201103L
 518:/Library/DaisyToolchain/0.1.3-ARM/arm/arm-none-eabi/include/c++/10.3.1/bits/vector.tcc **** 	      value_type __x_copy = __x;
 519:/Library/DaisyToolchain/0.1.3-ARM/arm/arm-none-eabi/include/c++/10.3.1/bits/vector.tcc **** #else
 520:/Library/DaisyToolchain/0.1.3-ARM/arm/arm-none-eabi/include/c++/10.3.1/bits/vector.tcc **** 	      _Temporary_value __tmp(this, __x);
 521:/Library/DaisyToolchain/0.1.3-ARM/arm/arm-none-eabi/include/c++/10.3.1/bits/vector.tcc **** 	      value_type& __x_copy = __tmp._M_val();
 522:/Library/DaisyToolchain/0.1.3-ARM/arm/arm-none-eabi/include/c++/10.3.1/bits/vector.tcc **** #endif
 523:/Library/DaisyToolchain/0.1.3-ARM/arm/arm-none-eabi/include/c++/10.3.1/bits/vector.tcc **** 	      const size_type __elems_after = end() - __position;
 524:/Library/DaisyToolchain/0.1.3-ARM/arm/arm-none-eabi/include/c++/10.3.1/bits/vector.tcc **** 	      pointer __old_finish(this->_M_impl._M_finish);
 525:/Library/DaisyToolchain/0.1.3-ARM/arm/arm-none-eabi/include/c++/10.3.1/bits/vector.tcc **** 	      if (__elems_after > __n)
 526:/Library/DaisyToolchain/0.1.3-ARM/arm/arm-none-eabi/include/c++/10.3.1/bits/vector.tcc **** 		{
 527:/Library/DaisyToolchain/0.1.3-ARM/arm/arm-none-eabi/include/c++/10.3.1/bits/vector.tcc **** 		  _GLIBCXX_ASAN_ANNOTATE_GROW(__n);
 528:/Library/DaisyToolchain/0.1.3-ARM/arm/arm-none-eabi/include/c++/10.3.1/bits/vector.tcc **** 		  std::__uninitialized_move_a(this->_M_impl._M_finish - __n,
 529:/Library/DaisyToolchain/0.1.3-ARM/arm/arm-none-eabi/include/c++/10.3.1/bits/vector.tcc **** 					      this->_M_impl._M_finish,
 530:/Library/DaisyToolchain/0.1.3-ARM/arm/arm-none-eabi/include/c++/10.3.1/bits/vector.tcc **** 					      this->_M_impl._M_finish,
 531:/Library/DaisyToolchain/0.1.3-ARM/arm/arm-none-eabi/include/c++/10.3.1/bits/vector.tcc **** 					      _M_get_Tp_allocator());
 532:/Library/DaisyToolchain/0.1.3-ARM/arm/arm-none-eabi/include/c++/10.3.1/bits/vector.tcc **** 		  this->_M_impl._M_finish += __n;
 533:/Library/DaisyToolchain/0.1.3-ARM/arm/arm-none-eabi/include/c++/10.3.1/bits/vector.tcc **** 		  _GLIBCXX_ASAN_ANNOTATE_GREW(__n);
 534:/Library/DaisyToolchain/0.1.3-ARM/arm/arm-none-eabi/include/c++/10.3.1/bits/vector.tcc **** 		  _GLIBCXX_MOVE_BACKWARD3(__position.base(),
 535:/Library/DaisyToolchain/0.1.3-ARM/arm/arm-none-eabi/include/c++/10.3.1/bits/vector.tcc **** 					  __old_finish - __n, __old_finish);
 536:/Library/DaisyToolchain/0.1.3-ARM/arm/arm-none-eabi/include/c++/10.3.1/bits/vector.tcc **** 		  std::fill(__position.base(), __position.base() + __n,
 537:/Library/DaisyToolchain/0.1.3-ARM/arm/arm-none-eabi/include/c++/10.3.1/bits/vector.tcc **** 			    __x_copy);
 538:/Library/DaisyToolchain/0.1.3-ARM/arm/arm-none-eabi/include/c++/10.3.1/bits/vector.tcc **** 		}
 539:/Library/DaisyToolchain/0.1.3-ARM/arm/arm-none-eabi/include/c++/10.3.1/bits/vector.tcc **** 	      else
 540:/Library/DaisyToolchain/0.1.3-ARM/arm/arm-none-eabi/include/c++/10.3.1/bits/vector.tcc **** 		{
 541:/Library/DaisyToolchain/0.1.3-ARM/arm/arm-none-eabi/include/c++/10.3.1/bits/vector.tcc **** 		  _GLIBCXX_ASAN_ANNOTATE_GROW(__n);
 542:/Library/DaisyToolchain/0.1.3-ARM/arm/arm-none-eabi/include/c++/10.3.1/bits/vector.tcc **** 		  this->_M_impl._M_finish =
 543:/Library/DaisyToolchain/0.1.3-ARM/arm/arm-none-eabi/include/c++/10.3.1/bits/vector.tcc **** 		    std::__uninitialized_fill_n_a(this->_M_impl._M_finish,
 544:/Library/DaisyToolchain/0.1.3-ARM/arm/arm-none-eabi/include/c++/10.3.1/bits/vector.tcc **** 						  __n - __elems_after,
 545:/Library/DaisyToolchain/0.1.3-ARM/arm/arm-none-eabi/include/c++/10.3.1/bits/vector.tcc **** 						  __x_copy,
 546:/Library/DaisyToolchain/0.1.3-ARM/arm/arm-none-eabi/include/c++/10.3.1/bits/vector.tcc **** 						  _M_get_Tp_allocator());
 547:/Library/DaisyToolchain/0.1.3-ARM/arm/arm-none-eabi/include/c++/10.3.1/bits/vector.tcc **** 		  _GLIBCXX_ASAN_ANNOTATE_GREW(__n - __elems_after);
 548:/Library/DaisyToolchain/0.1.3-ARM/arm/arm-none-eabi/include/c++/10.3.1/bits/vector.tcc **** 		  std::__uninitialized_move_a(__position.base(), __old_finish,
 549:/Library/DaisyToolchain/0.1.3-ARM/arm/arm-none-eabi/include/c++/10.3.1/bits/vector.tcc **** 					      this->_M_impl._M_finish,
 550:/Library/DaisyToolchain/0.1.3-ARM/arm/arm-none-eabi/include/c++/10.3.1/bits/vector.tcc **** 					      _M_get_Tp_allocator());
 551:/Library/DaisyToolchain/0.1.3-ARM/arm/arm-none-eabi/include/c++/10.3.1/bits/vector.tcc **** 		  this->_M_impl._M_finish += __elems_after;
 552:/Library/DaisyToolchain/0.1.3-ARM/arm/arm-none-eabi/include/c++/10.3.1/bits/vector.tcc **** 		  _GLIBCXX_ASAN_ANNOTATE_GREW(__elems_after);
 553:/Library/DaisyToolchain/0.1.3-ARM/arm/arm-none-eabi/include/c++/10.3.1/bits/vector.tcc **** 		  std::fill(__position.base(), __old_finish, __x_copy);
 554:/Library/DaisyToolchain/0.1.3-ARM/arm/arm-none-eabi/include/c++/10.3.1/bits/vector.tcc **** 		}
 555:/Library/DaisyToolchain/0.1.3-ARM/arm/arm-none-eabi/include/c++/10.3.1/bits/vector.tcc **** 	    }
 556:/Library/DaisyToolchain/0.1.3-ARM/arm/arm-none-eabi/include/c++/10.3.1/bits/vector.tcc **** 	  else
 557:/Library/DaisyToolchain/0.1.3-ARM/arm/arm-none-eabi/include/c++/10.3.1/bits/vector.tcc **** 	    {
 558:/Library/DaisyToolchain/0.1.3-ARM/arm/arm-none-eabi/include/c++/10.3.1/bits/vector.tcc **** 	      const size_type __len =
 559:/Library/DaisyToolchain/0.1.3-ARM/arm/arm-none-eabi/include/c++/10.3.1/bits/vector.tcc **** 		_M_check_len(__n, "vector::_M_fill_insert");
 560:/Library/DaisyToolchain/0.1.3-ARM/arm/arm-none-eabi/include/c++/10.3.1/bits/vector.tcc **** 	      const size_type __elems_before = __position - begin();
 561:/Library/DaisyToolchain/0.1.3-ARM/arm/arm-none-eabi/include/c++/10.3.1/bits/vector.tcc **** 	      pointer __new_start(this->_M_allocate(__len));
 562:/Library/DaisyToolchain/0.1.3-ARM/arm/arm-none-eabi/include/c++/10.3.1/bits/vector.tcc **** 	      pointer __new_finish(__new_start);
 563:/Library/DaisyToolchain/0.1.3-ARM/arm/arm-none-eabi/include/c++/10.3.1/bits/vector.tcc **** 	      __try
 564:/Library/DaisyToolchain/0.1.3-ARM/arm/arm-none-eabi/include/c++/10.3.1/bits/vector.tcc **** 		{
 565:/Library/DaisyToolchain/0.1.3-ARM/arm/arm-none-eabi/include/c++/10.3.1/bits/vector.tcc **** 		  // See _M_realloc_insert above.
 566:/Library/DaisyToolchain/0.1.3-ARM/arm/arm-none-eabi/include/c++/10.3.1/bits/vector.tcc **** 		  std::__uninitialized_fill_n_a(__new_start + __elems_before,
 567:/Library/DaisyToolchain/0.1.3-ARM/arm/arm-none-eabi/include/c++/10.3.1/bits/vector.tcc **** 						__n, __x,
 568:/Library/DaisyToolchain/0.1.3-ARM/arm/arm-none-eabi/include/c++/10.3.1/bits/vector.tcc **** 						_M_get_Tp_allocator());
 569:/Library/DaisyToolchain/0.1.3-ARM/arm/arm-none-eabi/include/c++/10.3.1/bits/vector.tcc **** 		  __new_finish = pointer();
 570:/Library/DaisyToolchain/0.1.3-ARM/arm/arm-none-eabi/include/c++/10.3.1/bits/vector.tcc **** 
 571:/Library/DaisyToolchain/0.1.3-ARM/arm/arm-none-eabi/include/c++/10.3.1/bits/vector.tcc **** 		  __new_finish
 572:/Library/DaisyToolchain/0.1.3-ARM/arm/arm-none-eabi/include/c++/10.3.1/bits/vector.tcc **** 		    = std::__uninitialized_move_if_noexcept_a
ARM GAS  /var/folders/xd/16jvbr6j24q9nvtpm0qtw3240000gn/T//cch9jPA2.s 			page 122


 573:/Library/DaisyToolchain/0.1.3-ARM/arm/arm-none-eabi/include/c++/10.3.1/bits/vector.tcc **** 		    (this->_M_impl._M_start, __position.base(),
 574:/Library/DaisyToolchain/0.1.3-ARM/arm/arm-none-eabi/include/c++/10.3.1/bits/vector.tcc **** 		     __new_start, _M_get_Tp_allocator());
 575:/Library/DaisyToolchain/0.1.3-ARM/arm/arm-none-eabi/include/c++/10.3.1/bits/vector.tcc **** 
 576:/Library/DaisyToolchain/0.1.3-ARM/arm/arm-none-eabi/include/c++/10.3.1/bits/vector.tcc **** 		  __new_finish += __n;
 577:/Library/DaisyToolchain/0.1.3-ARM/arm/arm-none-eabi/include/c++/10.3.1/bits/vector.tcc **** 
 578:/Library/DaisyToolchain/0.1.3-ARM/arm/arm-none-eabi/include/c++/10.3.1/bits/vector.tcc **** 		  __new_finish
 579:/Library/DaisyToolchain/0.1.3-ARM/arm/arm-none-eabi/include/c++/10.3.1/bits/vector.tcc **** 		    = std::__uninitialized_move_if_noexcept_a
 580:/Library/DaisyToolchain/0.1.3-ARM/arm/arm-none-eabi/include/c++/10.3.1/bits/vector.tcc **** 		    (__position.base(), this->_M_impl._M_finish,
 581:/Library/DaisyToolchain/0.1.3-ARM/arm/arm-none-eabi/include/c++/10.3.1/bits/vector.tcc **** 		     __new_finish, _M_get_Tp_allocator());
 582:/Library/DaisyToolchain/0.1.3-ARM/arm/arm-none-eabi/include/c++/10.3.1/bits/vector.tcc **** 		}
 583:/Library/DaisyToolchain/0.1.3-ARM/arm/arm-none-eabi/include/c++/10.3.1/bits/vector.tcc **** 	      __catch(...)
 584:/Library/DaisyToolchain/0.1.3-ARM/arm/arm-none-eabi/include/c++/10.3.1/bits/vector.tcc **** 		{
 585:/Library/DaisyToolchain/0.1.3-ARM/arm/arm-none-eabi/include/c++/10.3.1/bits/vector.tcc **** 		  if (!__new_finish)
 586:/Library/DaisyToolchain/0.1.3-ARM/arm/arm-none-eabi/include/c++/10.3.1/bits/vector.tcc **** 		    std::_Destroy(__new_start + __elems_before,
 587:/Library/DaisyToolchain/0.1.3-ARM/arm/arm-none-eabi/include/c++/10.3.1/bits/vector.tcc **** 				  __new_start + __elems_before + __n,
 588:/Library/DaisyToolchain/0.1.3-ARM/arm/arm-none-eabi/include/c++/10.3.1/bits/vector.tcc **** 				  _M_get_Tp_allocator());
 589:/Library/DaisyToolchain/0.1.3-ARM/arm/arm-none-eabi/include/c++/10.3.1/bits/vector.tcc **** 		  else
 590:/Library/DaisyToolchain/0.1.3-ARM/arm/arm-none-eabi/include/c++/10.3.1/bits/vector.tcc **** 		    std::_Destroy(__new_start, __new_finish,
 591:/Library/DaisyToolchain/0.1.3-ARM/arm/arm-none-eabi/include/c++/10.3.1/bits/vector.tcc **** 				  _M_get_Tp_allocator());
 592:/Library/DaisyToolchain/0.1.3-ARM/arm/arm-none-eabi/include/c++/10.3.1/bits/vector.tcc **** 		  _M_deallocate(__new_start, __len);
 593:/Library/DaisyToolchain/0.1.3-ARM/arm/arm-none-eabi/include/c++/10.3.1/bits/vector.tcc **** 		  __throw_exception_again;
 594:/Library/DaisyToolchain/0.1.3-ARM/arm/arm-none-eabi/include/c++/10.3.1/bits/vector.tcc **** 		}
 595:/Library/DaisyToolchain/0.1.3-ARM/arm/arm-none-eabi/include/c++/10.3.1/bits/vector.tcc **** 	      std::_Destroy(this->_M_impl._M_start, this->_M_impl._M_finish,
 596:/Library/DaisyToolchain/0.1.3-ARM/arm/arm-none-eabi/include/c++/10.3.1/bits/vector.tcc **** 			    _M_get_Tp_allocator());
 597:/Library/DaisyToolchain/0.1.3-ARM/arm/arm-none-eabi/include/c++/10.3.1/bits/vector.tcc **** 	      _GLIBCXX_ASAN_ANNOTATE_REINIT;
 598:/Library/DaisyToolchain/0.1.3-ARM/arm/arm-none-eabi/include/c++/10.3.1/bits/vector.tcc **** 	      _M_deallocate(this->_M_impl._M_start,
 599:/Library/DaisyToolchain/0.1.3-ARM/arm/arm-none-eabi/include/c++/10.3.1/bits/vector.tcc **** 			    this->_M_impl._M_end_of_storage
 600:/Library/DaisyToolchain/0.1.3-ARM/arm/arm-none-eabi/include/c++/10.3.1/bits/vector.tcc **** 			    - this->_M_impl._M_start);
 601:/Library/DaisyToolchain/0.1.3-ARM/arm/arm-none-eabi/include/c++/10.3.1/bits/vector.tcc **** 	      this->_M_impl._M_start = __new_start;
 602:/Library/DaisyToolchain/0.1.3-ARM/arm/arm-none-eabi/include/c++/10.3.1/bits/vector.tcc **** 	      this->_M_impl._M_finish = __new_finish;
 603:/Library/DaisyToolchain/0.1.3-ARM/arm/arm-none-eabi/include/c++/10.3.1/bits/vector.tcc **** 	      this->_M_impl._M_end_of_storage = __new_start + __len;
 604:/Library/DaisyToolchain/0.1.3-ARM/arm/arm-none-eabi/include/c++/10.3.1/bits/vector.tcc **** 	    }
 605:/Library/DaisyToolchain/0.1.3-ARM/arm/arm-none-eabi/include/c++/10.3.1/bits/vector.tcc **** 	}
 606:/Library/DaisyToolchain/0.1.3-ARM/arm/arm-none-eabi/include/c++/10.3.1/bits/vector.tcc ****     }
 607:/Library/DaisyToolchain/0.1.3-ARM/arm/arm-none-eabi/include/c++/10.3.1/bits/vector.tcc **** 
 608:/Library/DaisyToolchain/0.1.3-ARM/arm/arm-none-eabi/include/c++/10.3.1/bits/vector.tcc **** #if __cplusplus >= 201103L
 609:/Library/DaisyToolchain/0.1.3-ARM/arm/arm-none-eabi/include/c++/10.3.1/bits/vector.tcc ****   template<typename _Tp, typename _Alloc>
 610:/Library/DaisyToolchain/0.1.3-ARM/arm/arm-none-eabi/include/c++/10.3.1/bits/vector.tcc ****     void
 611:/Library/DaisyToolchain/0.1.3-ARM/arm/arm-none-eabi/include/c++/10.3.1/bits/vector.tcc ****     vector<_Tp, _Alloc>::
 3235              		.loc 13 611 5 view .LVU863
 3236              	.LBB903:
 3237              	.LBB904:
 3238              	.LBB905:
 3239              	.LBI905:
 343:/Library/DaisyToolchain/0.1.3-ARM/arm/arm-none-eabi/include/c++/10.3.1/bits/stl_vector.h ****       {
 3240              		.loc 10 343 7 view .LVU864
 3241              	.LBB906:
 3242              	.LBB907:
 3243              	.LBI907:
 3244              		.file 14 "/Library/DaisyToolchain/0.1.3-ARM/arm/arm-none-eabi/include/c++/10.3.1/bits/alloc_traits
   1:/Library/DaisyToolchain/0.1.3-ARM/arm/arm-none-eabi/include/c++/10.3.1/bits/alloc_traits.h **** // Allocator traits -*- C++ -*-
   2:/Library/DaisyToolchain/0.1.3-ARM/arm/arm-none-eabi/include/c++/10.3.1/bits/alloc_traits.h **** 
   3:/Library/DaisyToolchain/0.1.3-ARM/arm/arm-none-eabi/include/c++/10.3.1/bits/alloc_traits.h **** // Copyright (C) 2011-2020 Free Software Foundation, Inc.
   4:/Library/DaisyToolchain/0.1.3-ARM/arm/arm-none-eabi/include/c++/10.3.1/bits/alloc_traits.h **** //
   5:/Library/DaisyToolchain/0.1.3-ARM/arm/arm-none-eabi/include/c++/10.3.1/bits/alloc_traits.h **** // This file is part of the GNU ISO C++ Library.  This library is free
   6:/Library/DaisyToolchain/0.1.3-ARM/arm/arm-none-eabi/include/c++/10.3.1/bits/alloc_traits.h **** // software; you can redistribute it and/or modify it under the
   7:/Library/DaisyToolchain/0.1.3-ARM/arm/arm-none-eabi/include/c++/10.3.1/bits/alloc_traits.h **** // terms of the GNU General Public License as published by the
ARM GAS  /var/folders/xd/16jvbr6j24q9nvtpm0qtw3240000gn/T//cch9jPA2.s 			page 123


   8:/Library/DaisyToolchain/0.1.3-ARM/arm/arm-none-eabi/include/c++/10.3.1/bits/alloc_traits.h **** // Free Software Foundation; either version 3, or (at your option)
   9:/Library/DaisyToolchain/0.1.3-ARM/arm/arm-none-eabi/include/c++/10.3.1/bits/alloc_traits.h **** // any later version.
  10:/Library/DaisyToolchain/0.1.3-ARM/arm/arm-none-eabi/include/c++/10.3.1/bits/alloc_traits.h **** 
  11:/Library/DaisyToolchain/0.1.3-ARM/arm/arm-none-eabi/include/c++/10.3.1/bits/alloc_traits.h **** // This library is distributed in the hope that it will be useful,
  12:/Library/DaisyToolchain/0.1.3-ARM/arm/arm-none-eabi/include/c++/10.3.1/bits/alloc_traits.h **** // but WITHOUT ANY WARRANTY; without even the implied warranty of
  13:/Library/DaisyToolchain/0.1.3-ARM/arm/arm-none-eabi/include/c++/10.3.1/bits/alloc_traits.h **** // MERCHANTABILITY or FITNESS FOR A PARTICULAR PURPOSE.  See the
  14:/Library/DaisyToolchain/0.1.3-ARM/arm/arm-none-eabi/include/c++/10.3.1/bits/alloc_traits.h **** // GNU General Public License for more details.
  15:/Library/DaisyToolchain/0.1.3-ARM/arm/arm-none-eabi/include/c++/10.3.1/bits/alloc_traits.h **** 
  16:/Library/DaisyToolchain/0.1.3-ARM/arm/arm-none-eabi/include/c++/10.3.1/bits/alloc_traits.h **** // Under Section 7 of GPL version 3, you are granted additional
  17:/Library/DaisyToolchain/0.1.3-ARM/arm/arm-none-eabi/include/c++/10.3.1/bits/alloc_traits.h **** // permissions described in the GCC Runtime Library Exception, version
  18:/Library/DaisyToolchain/0.1.3-ARM/arm/arm-none-eabi/include/c++/10.3.1/bits/alloc_traits.h **** // 3.1, as published by the Free Software Foundation.
  19:/Library/DaisyToolchain/0.1.3-ARM/arm/arm-none-eabi/include/c++/10.3.1/bits/alloc_traits.h **** 
  20:/Library/DaisyToolchain/0.1.3-ARM/arm/arm-none-eabi/include/c++/10.3.1/bits/alloc_traits.h **** // You should have received a copy of the GNU General Public License and
  21:/Library/DaisyToolchain/0.1.3-ARM/arm/arm-none-eabi/include/c++/10.3.1/bits/alloc_traits.h **** // a copy of the GCC Runtime Library Exception along with this program;
  22:/Library/DaisyToolchain/0.1.3-ARM/arm/arm-none-eabi/include/c++/10.3.1/bits/alloc_traits.h **** // see the files COPYING3 and COPYING.RUNTIME respectively.  If not, see
  23:/Library/DaisyToolchain/0.1.3-ARM/arm/arm-none-eabi/include/c++/10.3.1/bits/alloc_traits.h **** // <http://www.gnu.org/licenses/>.
  24:/Library/DaisyToolchain/0.1.3-ARM/arm/arm-none-eabi/include/c++/10.3.1/bits/alloc_traits.h **** 
  25:/Library/DaisyToolchain/0.1.3-ARM/arm/arm-none-eabi/include/c++/10.3.1/bits/alloc_traits.h **** /** @file bits/alloc_traits.h
  26:/Library/DaisyToolchain/0.1.3-ARM/arm/arm-none-eabi/include/c++/10.3.1/bits/alloc_traits.h ****  *  This is an internal header file, included by other library headers.
  27:/Library/DaisyToolchain/0.1.3-ARM/arm/arm-none-eabi/include/c++/10.3.1/bits/alloc_traits.h ****  *  Do not attempt to use it directly. @headername{memory}
  28:/Library/DaisyToolchain/0.1.3-ARM/arm/arm-none-eabi/include/c++/10.3.1/bits/alloc_traits.h ****  */
  29:/Library/DaisyToolchain/0.1.3-ARM/arm/arm-none-eabi/include/c++/10.3.1/bits/alloc_traits.h **** 
  30:/Library/DaisyToolchain/0.1.3-ARM/arm/arm-none-eabi/include/c++/10.3.1/bits/alloc_traits.h **** #ifndef _ALLOC_TRAITS_H
  31:/Library/DaisyToolchain/0.1.3-ARM/arm/arm-none-eabi/include/c++/10.3.1/bits/alloc_traits.h **** #define _ALLOC_TRAITS_H 1
  32:/Library/DaisyToolchain/0.1.3-ARM/arm/arm-none-eabi/include/c++/10.3.1/bits/alloc_traits.h **** 
  33:/Library/DaisyToolchain/0.1.3-ARM/arm/arm-none-eabi/include/c++/10.3.1/bits/alloc_traits.h **** #include <bits/stl_construct.h>
  34:/Library/DaisyToolchain/0.1.3-ARM/arm/arm-none-eabi/include/c++/10.3.1/bits/alloc_traits.h **** #include <bits/memoryfwd.h>
  35:/Library/DaisyToolchain/0.1.3-ARM/arm/arm-none-eabi/include/c++/10.3.1/bits/alloc_traits.h **** #if __cplusplus >= 201103L
  36:/Library/DaisyToolchain/0.1.3-ARM/arm/arm-none-eabi/include/c++/10.3.1/bits/alloc_traits.h **** # include <bits/allocator.h>
  37:/Library/DaisyToolchain/0.1.3-ARM/arm/arm-none-eabi/include/c++/10.3.1/bits/alloc_traits.h **** # include <bits/ptr_traits.h>
  38:/Library/DaisyToolchain/0.1.3-ARM/arm/arm-none-eabi/include/c++/10.3.1/bits/alloc_traits.h **** # include <ext/numeric_traits.h>
  39:/Library/DaisyToolchain/0.1.3-ARM/arm/arm-none-eabi/include/c++/10.3.1/bits/alloc_traits.h **** #endif
  40:/Library/DaisyToolchain/0.1.3-ARM/arm/arm-none-eabi/include/c++/10.3.1/bits/alloc_traits.h **** 
  41:/Library/DaisyToolchain/0.1.3-ARM/arm/arm-none-eabi/include/c++/10.3.1/bits/alloc_traits.h **** namespace std _GLIBCXX_VISIBILITY(default)
  42:/Library/DaisyToolchain/0.1.3-ARM/arm/arm-none-eabi/include/c++/10.3.1/bits/alloc_traits.h **** {
  43:/Library/DaisyToolchain/0.1.3-ARM/arm/arm-none-eabi/include/c++/10.3.1/bits/alloc_traits.h **** _GLIBCXX_BEGIN_NAMESPACE_VERSION
  44:/Library/DaisyToolchain/0.1.3-ARM/arm/arm-none-eabi/include/c++/10.3.1/bits/alloc_traits.h **** 
  45:/Library/DaisyToolchain/0.1.3-ARM/arm/arm-none-eabi/include/c++/10.3.1/bits/alloc_traits.h **** #if __cplusplus >= 201103L
  46:/Library/DaisyToolchain/0.1.3-ARM/arm/arm-none-eabi/include/c++/10.3.1/bits/alloc_traits.h **** #define __cpp_lib_allocator_traits_is_always_equal 201411
  47:/Library/DaisyToolchain/0.1.3-ARM/arm/arm-none-eabi/include/c++/10.3.1/bits/alloc_traits.h **** 
  48:/Library/DaisyToolchain/0.1.3-ARM/arm/arm-none-eabi/include/c++/10.3.1/bits/alloc_traits.h ****   struct __allocator_traits_base
  49:/Library/DaisyToolchain/0.1.3-ARM/arm/arm-none-eabi/include/c++/10.3.1/bits/alloc_traits.h ****   {
  50:/Library/DaisyToolchain/0.1.3-ARM/arm/arm-none-eabi/include/c++/10.3.1/bits/alloc_traits.h ****     template<typename _Tp, typename _Up, typename = void>
  51:/Library/DaisyToolchain/0.1.3-ARM/arm/arm-none-eabi/include/c++/10.3.1/bits/alloc_traits.h ****       struct __rebind : __replace_first_arg<_Tp, _Up> { };
  52:/Library/DaisyToolchain/0.1.3-ARM/arm/arm-none-eabi/include/c++/10.3.1/bits/alloc_traits.h **** 
  53:/Library/DaisyToolchain/0.1.3-ARM/arm/arm-none-eabi/include/c++/10.3.1/bits/alloc_traits.h ****     template<typename _Tp, typename _Up>
  54:/Library/DaisyToolchain/0.1.3-ARM/arm/arm-none-eabi/include/c++/10.3.1/bits/alloc_traits.h ****       struct __rebind<_Tp, _Up,
  55:/Library/DaisyToolchain/0.1.3-ARM/arm/arm-none-eabi/include/c++/10.3.1/bits/alloc_traits.h **** 		      __void_t<typename _Tp::template rebind<_Up>::other>>
  56:/Library/DaisyToolchain/0.1.3-ARM/arm/arm-none-eabi/include/c++/10.3.1/bits/alloc_traits.h ****       { using type = typename _Tp::template rebind<_Up>::other; };
  57:/Library/DaisyToolchain/0.1.3-ARM/arm/arm-none-eabi/include/c++/10.3.1/bits/alloc_traits.h **** 
  58:/Library/DaisyToolchain/0.1.3-ARM/arm/arm-none-eabi/include/c++/10.3.1/bits/alloc_traits.h ****   protected:
  59:/Library/DaisyToolchain/0.1.3-ARM/arm/arm-none-eabi/include/c++/10.3.1/bits/alloc_traits.h ****     template<typename _Tp>
  60:/Library/DaisyToolchain/0.1.3-ARM/arm/arm-none-eabi/include/c++/10.3.1/bits/alloc_traits.h ****       using __pointer = typename _Tp::pointer;
  61:/Library/DaisyToolchain/0.1.3-ARM/arm/arm-none-eabi/include/c++/10.3.1/bits/alloc_traits.h ****     template<typename _Tp>
  62:/Library/DaisyToolchain/0.1.3-ARM/arm/arm-none-eabi/include/c++/10.3.1/bits/alloc_traits.h ****       using __c_pointer = typename _Tp::const_pointer;
  63:/Library/DaisyToolchain/0.1.3-ARM/arm/arm-none-eabi/include/c++/10.3.1/bits/alloc_traits.h ****     template<typename _Tp>
  64:/Library/DaisyToolchain/0.1.3-ARM/arm/arm-none-eabi/include/c++/10.3.1/bits/alloc_traits.h ****       using __v_pointer = typename _Tp::void_pointer;
ARM GAS  /var/folders/xd/16jvbr6j24q9nvtpm0qtw3240000gn/T//cch9jPA2.s 			page 124


  65:/Library/DaisyToolchain/0.1.3-ARM/arm/arm-none-eabi/include/c++/10.3.1/bits/alloc_traits.h ****     template<typename _Tp>
  66:/Library/DaisyToolchain/0.1.3-ARM/arm/arm-none-eabi/include/c++/10.3.1/bits/alloc_traits.h ****       using __cv_pointer = typename _Tp::const_void_pointer;
  67:/Library/DaisyToolchain/0.1.3-ARM/arm/arm-none-eabi/include/c++/10.3.1/bits/alloc_traits.h ****     template<typename _Tp>
  68:/Library/DaisyToolchain/0.1.3-ARM/arm/arm-none-eabi/include/c++/10.3.1/bits/alloc_traits.h ****       using __pocca = typename _Tp::propagate_on_container_copy_assignment;
  69:/Library/DaisyToolchain/0.1.3-ARM/arm/arm-none-eabi/include/c++/10.3.1/bits/alloc_traits.h ****     template<typename _Tp>
  70:/Library/DaisyToolchain/0.1.3-ARM/arm/arm-none-eabi/include/c++/10.3.1/bits/alloc_traits.h ****       using __pocma = typename _Tp::propagate_on_container_move_assignment;
  71:/Library/DaisyToolchain/0.1.3-ARM/arm/arm-none-eabi/include/c++/10.3.1/bits/alloc_traits.h ****     template<typename _Tp>
  72:/Library/DaisyToolchain/0.1.3-ARM/arm/arm-none-eabi/include/c++/10.3.1/bits/alloc_traits.h ****       using __pocs = typename _Tp::propagate_on_container_swap;
  73:/Library/DaisyToolchain/0.1.3-ARM/arm/arm-none-eabi/include/c++/10.3.1/bits/alloc_traits.h ****     template<typename _Tp>
  74:/Library/DaisyToolchain/0.1.3-ARM/arm/arm-none-eabi/include/c++/10.3.1/bits/alloc_traits.h ****       using __equal = typename _Tp::is_always_equal;
  75:/Library/DaisyToolchain/0.1.3-ARM/arm/arm-none-eabi/include/c++/10.3.1/bits/alloc_traits.h ****   };
  76:/Library/DaisyToolchain/0.1.3-ARM/arm/arm-none-eabi/include/c++/10.3.1/bits/alloc_traits.h **** 
  77:/Library/DaisyToolchain/0.1.3-ARM/arm/arm-none-eabi/include/c++/10.3.1/bits/alloc_traits.h ****   template<typename _Alloc, typename _Up>
  78:/Library/DaisyToolchain/0.1.3-ARM/arm/arm-none-eabi/include/c++/10.3.1/bits/alloc_traits.h ****     using __alloc_rebind
  79:/Library/DaisyToolchain/0.1.3-ARM/arm/arm-none-eabi/include/c++/10.3.1/bits/alloc_traits.h ****       = typename __allocator_traits_base::template __rebind<_Alloc, _Up>::type;
  80:/Library/DaisyToolchain/0.1.3-ARM/arm/arm-none-eabi/include/c++/10.3.1/bits/alloc_traits.h **** 
  81:/Library/DaisyToolchain/0.1.3-ARM/arm/arm-none-eabi/include/c++/10.3.1/bits/alloc_traits.h ****   /**
  82:/Library/DaisyToolchain/0.1.3-ARM/arm/arm-none-eabi/include/c++/10.3.1/bits/alloc_traits.h ****    * @brief  Uniform interface to all allocator types.
  83:/Library/DaisyToolchain/0.1.3-ARM/arm/arm-none-eabi/include/c++/10.3.1/bits/alloc_traits.h ****    * @ingroup allocators
  84:/Library/DaisyToolchain/0.1.3-ARM/arm/arm-none-eabi/include/c++/10.3.1/bits/alloc_traits.h ****   */
  85:/Library/DaisyToolchain/0.1.3-ARM/arm/arm-none-eabi/include/c++/10.3.1/bits/alloc_traits.h ****   template<typename _Alloc>
  86:/Library/DaisyToolchain/0.1.3-ARM/arm/arm-none-eabi/include/c++/10.3.1/bits/alloc_traits.h ****     struct allocator_traits : __allocator_traits_base
  87:/Library/DaisyToolchain/0.1.3-ARM/arm/arm-none-eabi/include/c++/10.3.1/bits/alloc_traits.h ****     {
  88:/Library/DaisyToolchain/0.1.3-ARM/arm/arm-none-eabi/include/c++/10.3.1/bits/alloc_traits.h ****       /// The allocator type
  89:/Library/DaisyToolchain/0.1.3-ARM/arm/arm-none-eabi/include/c++/10.3.1/bits/alloc_traits.h ****       typedef _Alloc allocator_type;
  90:/Library/DaisyToolchain/0.1.3-ARM/arm/arm-none-eabi/include/c++/10.3.1/bits/alloc_traits.h ****       /// The allocated type
  91:/Library/DaisyToolchain/0.1.3-ARM/arm/arm-none-eabi/include/c++/10.3.1/bits/alloc_traits.h ****       typedef typename _Alloc::value_type value_type;
  92:/Library/DaisyToolchain/0.1.3-ARM/arm/arm-none-eabi/include/c++/10.3.1/bits/alloc_traits.h **** 
  93:/Library/DaisyToolchain/0.1.3-ARM/arm/arm-none-eabi/include/c++/10.3.1/bits/alloc_traits.h ****       /**
  94:/Library/DaisyToolchain/0.1.3-ARM/arm/arm-none-eabi/include/c++/10.3.1/bits/alloc_traits.h ****        * @brief   The allocator's pointer type.
  95:/Library/DaisyToolchain/0.1.3-ARM/arm/arm-none-eabi/include/c++/10.3.1/bits/alloc_traits.h ****        *
  96:/Library/DaisyToolchain/0.1.3-ARM/arm/arm-none-eabi/include/c++/10.3.1/bits/alloc_traits.h ****        * @c Alloc::pointer if that type exists, otherwise @c value_type*
  97:/Library/DaisyToolchain/0.1.3-ARM/arm/arm-none-eabi/include/c++/10.3.1/bits/alloc_traits.h ****       */
  98:/Library/DaisyToolchain/0.1.3-ARM/arm/arm-none-eabi/include/c++/10.3.1/bits/alloc_traits.h ****       using pointer = __detected_or_t<value_type*, __pointer, _Alloc>;
  99:/Library/DaisyToolchain/0.1.3-ARM/arm/arm-none-eabi/include/c++/10.3.1/bits/alloc_traits.h **** 
 100:/Library/DaisyToolchain/0.1.3-ARM/arm/arm-none-eabi/include/c++/10.3.1/bits/alloc_traits.h ****     private:
 101:/Library/DaisyToolchain/0.1.3-ARM/arm/arm-none-eabi/include/c++/10.3.1/bits/alloc_traits.h ****       // Select _Func<_Alloc> or pointer_traits<pointer>::rebind<_Tp>
 102:/Library/DaisyToolchain/0.1.3-ARM/arm/arm-none-eabi/include/c++/10.3.1/bits/alloc_traits.h ****       template<template<typename> class _Func, typename _Tp, typename = void>
 103:/Library/DaisyToolchain/0.1.3-ARM/arm/arm-none-eabi/include/c++/10.3.1/bits/alloc_traits.h **** 	struct _Ptr
 104:/Library/DaisyToolchain/0.1.3-ARM/arm/arm-none-eabi/include/c++/10.3.1/bits/alloc_traits.h **** 	{
 105:/Library/DaisyToolchain/0.1.3-ARM/arm/arm-none-eabi/include/c++/10.3.1/bits/alloc_traits.h **** 	  using type = typename pointer_traits<pointer>::template rebind<_Tp>;
 106:/Library/DaisyToolchain/0.1.3-ARM/arm/arm-none-eabi/include/c++/10.3.1/bits/alloc_traits.h **** 	};
 107:/Library/DaisyToolchain/0.1.3-ARM/arm/arm-none-eabi/include/c++/10.3.1/bits/alloc_traits.h **** 
 108:/Library/DaisyToolchain/0.1.3-ARM/arm/arm-none-eabi/include/c++/10.3.1/bits/alloc_traits.h ****       template<template<typename> class _Func, typename _Tp>
 109:/Library/DaisyToolchain/0.1.3-ARM/arm/arm-none-eabi/include/c++/10.3.1/bits/alloc_traits.h **** 	struct _Ptr<_Func, _Tp, __void_t<_Func<_Alloc>>>
 110:/Library/DaisyToolchain/0.1.3-ARM/arm/arm-none-eabi/include/c++/10.3.1/bits/alloc_traits.h **** 	{
 111:/Library/DaisyToolchain/0.1.3-ARM/arm/arm-none-eabi/include/c++/10.3.1/bits/alloc_traits.h **** 	  using type = _Func<_Alloc>;
 112:/Library/DaisyToolchain/0.1.3-ARM/arm/arm-none-eabi/include/c++/10.3.1/bits/alloc_traits.h **** 	};
 113:/Library/DaisyToolchain/0.1.3-ARM/arm/arm-none-eabi/include/c++/10.3.1/bits/alloc_traits.h **** 
 114:/Library/DaisyToolchain/0.1.3-ARM/arm/arm-none-eabi/include/c++/10.3.1/bits/alloc_traits.h ****       // Select _A2::difference_type or pointer_traits<_Ptr>::difference_type
 115:/Library/DaisyToolchain/0.1.3-ARM/arm/arm-none-eabi/include/c++/10.3.1/bits/alloc_traits.h ****       template<typename _A2, typename _PtrT, typename = void>
 116:/Library/DaisyToolchain/0.1.3-ARM/arm/arm-none-eabi/include/c++/10.3.1/bits/alloc_traits.h **** 	struct _Diff
 117:/Library/DaisyToolchain/0.1.3-ARM/arm/arm-none-eabi/include/c++/10.3.1/bits/alloc_traits.h **** 	{ using type = typename pointer_traits<_PtrT>::difference_type; };
 118:/Library/DaisyToolchain/0.1.3-ARM/arm/arm-none-eabi/include/c++/10.3.1/bits/alloc_traits.h **** 
 119:/Library/DaisyToolchain/0.1.3-ARM/arm/arm-none-eabi/include/c++/10.3.1/bits/alloc_traits.h ****       template<typename _A2, typename _PtrT>
 120:/Library/DaisyToolchain/0.1.3-ARM/arm/arm-none-eabi/include/c++/10.3.1/bits/alloc_traits.h **** 	struct _Diff<_A2, _PtrT, __void_t<typename _A2::difference_type>>
 121:/Library/DaisyToolchain/0.1.3-ARM/arm/arm-none-eabi/include/c++/10.3.1/bits/alloc_traits.h **** 	{ using type = typename _A2::difference_type; };
ARM GAS  /var/folders/xd/16jvbr6j24q9nvtpm0qtw3240000gn/T//cch9jPA2.s 			page 125


 122:/Library/DaisyToolchain/0.1.3-ARM/arm/arm-none-eabi/include/c++/10.3.1/bits/alloc_traits.h **** 
 123:/Library/DaisyToolchain/0.1.3-ARM/arm/arm-none-eabi/include/c++/10.3.1/bits/alloc_traits.h ****       // Select _A2::size_type or make_unsigned<_DiffT>::type
 124:/Library/DaisyToolchain/0.1.3-ARM/arm/arm-none-eabi/include/c++/10.3.1/bits/alloc_traits.h ****       template<typename _A2, typename _DiffT, typename = void>
 125:/Library/DaisyToolchain/0.1.3-ARM/arm/arm-none-eabi/include/c++/10.3.1/bits/alloc_traits.h **** 	struct _Size : make_unsigned<_DiffT> { };
 126:/Library/DaisyToolchain/0.1.3-ARM/arm/arm-none-eabi/include/c++/10.3.1/bits/alloc_traits.h **** 
 127:/Library/DaisyToolchain/0.1.3-ARM/arm/arm-none-eabi/include/c++/10.3.1/bits/alloc_traits.h ****       template<typename _A2, typename _DiffT>
 128:/Library/DaisyToolchain/0.1.3-ARM/arm/arm-none-eabi/include/c++/10.3.1/bits/alloc_traits.h **** 	struct _Size<_A2, _DiffT, __void_t<typename _A2::size_type>>
 129:/Library/DaisyToolchain/0.1.3-ARM/arm/arm-none-eabi/include/c++/10.3.1/bits/alloc_traits.h **** 	{ using type = typename _A2::size_type; };
 130:/Library/DaisyToolchain/0.1.3-ARM/arm/arm-none-eabi/include/c++/10.3.1/bits/alloc_traits.h **** 
 131:/Library/DaisyToolchain/0.1.3-ARM/arm/arm-none-eabi/include/c++/10.3.1/bits/alloc_traits.h ****     public:
 132:/Library/DaisyToolchain/0.1.3-ARM/arm/arm-none-eabi/include/c++/10.3.1/bits/alloc_traits.h ****       /**
 133:/Library/DaisyToolchain/0.1.3-ARM/arm/arm-none-eabi/include/c++/10.3.1/bits/alloc_traits.h ****        * @brief   The allocator's const pointer type.
 134:/Library/DaisyToolchain/0.1.3-ARM/arm/arm-none-eabi/include/c++/10.3.1/bits/alloc_traits.h ****        *
 135:/Library/DaisyToolchain/0.1.3-ARM/arm/arm-none-eabi/include/c++/10.3.1/bits/alloc_traits.h ****        * @c Alloc::const_pointer if that type exists, otherwise
 136:/Library/DaisyToolchain/0.1.3-ARM/arm/arm-none-eabi/include/c++/10.3.1/bits/alloc_traits.h ****        * <tt> pointer_traits<pointer>::rebind<const value_type> </tt>
 137:/Library/DaisyToolchain/0.1.3-ARM/arm/arm-none-eabi/include/c++/10.3.1/bits/alloc_traits.h ****       */
 138:/Library/DaisyToolchain/0.1.3-ARM/arm/arm-none-eabi/include/c++/10.3.1/bits/alloc_traits.h ****       using const_pointer = typename _Ptr<__c_pointer, const value_type>::type;
 139:/Library/DaisyToolchain/0.1.3-ARM/arm/arm-none-eabi/include/c++/10.3.1/bits/alloc_traits.h **** 
 140:/Library/DaisyToolchain/0.1.3-ARM/arm/arm-none-eabi/include/c++/10.3.1/bits/alloc_traits.h ****       /**
 141:/Library/DaisyToolchain/0.1.3-ARM/arm/arm-none-eabi/include/c++/10.3.1/bits/alloc_traits.h ****        * @brief   The allocator's void pointer type.
 142:/Library/DaisyToolchain/0.1.3-ARM/arm/arm-none-eabi/include/c++/10.3.1/bits/alloc_traits.h ****        *
 143:/Library/DaisyToolchain/0.1.3-ARM/arm/arm-none-eabi/include/c++/10.3.1/bits/alloc_traits.h ****        * @c Alloc::void_pointer if that type exists, otherwise
 144:/Library/DaisyToolchain/0.1.3-ARM/arm/arm-none-eabi/include/c++/10.3.1/bits/alloc_traits.h ****        * <tt> pointer_traits<pointer>::rebind<void> </tt>
 145:/Library/DaisyToolchain/0.1.3-ARM/arm/arm-none-eabi/include/c++/10.3.1/bits/alloc_traits.h ****       */
 146:/Library/DaisyToolchain/0.1.3-ARM/arm/arm-none-eabi/include/c++/10.3.1/bits/alloc_traits.h ****       using void_pointer = typename _Ptr<__v_pointer, void>::type;
 147:/Library/DaisyToolchain/0.1.3-ARM/arm/arm-none-eabi/include/c++/10.3.1/bits/alloc_traits.h **** 
 148:/Library/DaisyToolchain/0.1.3-ARM/arm/arm-none-eabi/include/c++/10.3.1/bits/alloc_traits.h ****       /**
 149:/Library/DaisyToolchain/0.1.3-ARM/arm/arm-none-eabi/include/c++/10.3.1/bits/alloc_traits.h ****        * @brief   The allocator's const void pointer type.
 150:/Library/DaisyToolchain/0.1.3-ARM/arm/arm-none-eabi/include/c++/10.3.1/bits/alloc_traits.h ****        *
 151:/Library/DaisyToolchain/0.1.3-ARM/arm/arm-none-eabi/include/c++/10.3.1/bits/alloc_traits.h ****        * @c Alloc::const_void_pointer if that type exists, otherwise
 152:/Library/DaisyToolchain/0.1.3-ARM/arm/arm-none-eabi/include/c++/10.3.1/bits/alloc_traits.h ****        * <tt> pointer_traits<pointer>::rebind<const void> </tt>
 153:/Library/DaisyToolchain/0.1.3-ARM/arm/arm-none-eabi/include/c++/10.3.1/bits/alloc_traits.h ****       */
 154:/Library/DaisyToolchain/0.1.3-ARM/arm/arm-none-eabi/include/c++/10.3.1/bits/alloc_traits.h ****       using const_void_pointer = typename _Ptr<__cv_pointer, const void>::type;
 155:/Library/DaisyToolchain/0.1.3-ARM/arm/arm-none-eabi/include/c++/10.3.1/bits/alloc_traits.h **** 
 156:/Library/DaisyToolchain/0.1.3-ARM/arm/arm-none-eabi/include/c++/10.3.1/bits/alloc_traits.h ****       /**
 157:/Library/DaisyToolchain/0.1.3-ARM/arm/arm-none-eabi/include/c++/10.3.1/bits/alloc_traits.h ****        * @brief   The allocator's difference type
 158:/Library/DaisyToolchain/0.1.3-ARM/arm/arm-none-eabi/include/c++/10.3.1/bits/alloc_traits.h ****        *
 159:/Library/DaisyToolchain/0.1.3-ARM/arm/arm-none-eabi/include/c++/10.3.1/bits/alloc_traits.h ****        * @c Alloc::difference_type if that type exists, otherwise
 160:/Library/DaisyToolchain/0.1.3-ARM/arm/arm-none-eabi/include/c++/10.3.1/bits/alloc_traits.h ****        * <tt> pointer_traits<pointer>::difference_type </tt>
 161:/Library/DaisyToolchain/0.1.3-ARM/arm/arm-none-eabi/include/c++/10.3.1/bits/alloc_traits.h ****       */
 162:/Library/DaisyToolchain/0.1.3-ARM/arm/arm-none-eabi/include/c++/10.3.1/bits/alloc_traits.h ****       using difference_type = typename _Diff<_Alloc, pointer>::type;
 163:/Library/DaisyToolchain/0.1.3-ARM/arm/arm-none-eabi/include/c++/10.3.1/bits/alloc_traits.h **** 
 164:/Library/DaisyToolchain/0.1.3-ARM/arm/arm-none-eabi/include/c++/10.3.1/bits/alloc_traits.h ****       /**
 165:/Library/DaisyToolchain/0.1.3-ARM/arm/arm-none-eabi/include/c++/10.3.1/bits/alloc_traits.h ****        * @brief   The allocator's size type
 166:/Library/DaisyToolchain/0.1.3-ARM/arm/arm-none-eabi/include/c++/10.3.1/bits/alloc_traits.h ****        *
 167:/Library/DaisyToolchain/0.1.3-ARM/arm/arm-none-eabi/include/c++/10.3.1/bits/alloc_traits.h ****        * @c Alloc::size_type if that type exists, otherwise
 168:/Library/DaisyToolchain/0.1.3-ARM/arm/arm-none-eabi/include/c++/10.3.1/bits/alloc_traits.h ****        * <tt> make_unsigned<difference_type>::type </tt>
 169:/Library/DaisyToolchain/0.1.3-ARM/arm/arm-none-eabi/include/c++/10.3.1/bits/alloc_traits.h ****       */
 170:/Library/DaisyToolchain/0.1.3-ARM/arm/arm-none-eabi/include/c++/10.3.1/bits/alloc_traits.h ****       using size_type = typename _Size<_Alloc, difference_type>::type;
 171:/Library/DaisyToolchain/0.1.3-ARM/arm/arm-none-eabi/include/c++/10.3.1/bits/alloc_traits.h **** 
 172:/Library/DaisyToolchain/0.1.3-ARM/arm/arm-none-eabi/include/c++/10.3.1/bits/alloc_traits.h ****       /**
 173:/Library/DaisyToolchain/0.1.3-ARM/arm/arm-none-eabi/include/c++/10.3.1/bits/alloc_traits.h ****        * @brief   How the allocator is propagated on copy assignment
 174:/Library/DaisyToolchain/0.1.3-ARM/arm/arm-none-eabi/include/c++/10.3.1/bits/alloc_traits.h ****        *
 175:/Library/DaisyToolchain/0.1.3-ARM/arm/arm-none-eabi/include/c++/10.3.1/bits/alloc_traits.h ****        * @c Alloc::propagate_on_container_copy_assignment if that type exists,
 176:/Library/DaisyToolchain/0.1.3-ARM/arm/arm-none-eabi/include/c++/10.3.1/bits/alloc_traits.h ****        * otherwise @c false_type
 177:/Library/DaisyToolchain/0.1.3-ARM/arm/arm-none-eabi/include/c++/10.3.1/bits/alloc_traits.h ****       */
 178:/Library/DaisyToolchain/0.1.3-ARM/arm/arm-none-eabi/include/c++/10.3.1/bits/alloc_traits.h ****       using propagate_on_container_copy_assignment
ARM GAS  /var/folders/xd/16jvbr6j24q9nvtpm0qtw3240000gn/T//cch9jPA2.s 			page 126


 179:/Library/DaisyToolchain/0.1.3-ARM/arm/arm-none-eabi/include/c++/10.3.1/bits/alloc_traits.h **** 	= __detected_or_t<false_type, __pocca, _Alloc>;
 180:/Library/DaisyToolchain/0.1.3-ARM/arm/arm-none-eabi/include/c++/10.3.1/bits/alloc_traits.h **** 
 181:/Library/DaisyToolchain/0.1.3-ARM/arm/arm-none-eabi/include/c++/10.3.1/bits/alloc_traits.h ****       /**
 182:/Library/DaisyToolchain/0.1.3-ARM/arm/arm-none-eabi/include/c++/10.3.1/bits/alloc_traits.h ****        * @brief   How the allocator is propagated on move assignment
 183:/Library/DaisyToolchain/0.1.3-ARM/arm/arm-none-eabi/include/c++/10.3.1/bits/alloc_traits.h ****        *
 184:/Library/DaisyToolchain/0.1.3-ARM/arm/arm-none-eabi/include/c++/10.3.1/bits/alloc_traits.h ****        * @c Alloc::propagate_on_container_move_assignment if that type exists,
 185:/Library/DaisyToolchain/0.1.3-ARM/arm/arm-none-eabi/include/c++/10.3.1/bits/alloc_traits.h ****        * otherwise @c false_type
 186:/Library/DaisyToolchain/0.1.3-ARM/arm/arm-none-eabi/include/c++/10.3.1/bits/alloc_traits.h ****       */
 187:/Library/DaisyToolchain/0.1.3-ARM/arm/arm-none-eabi/include/c++/10.3.1/bits/alloc_traits.h ****       using propagate_on_container_move_assignment
 188:/Library/DaisyToolchain/0.1.3-ARM/arm/arm-none-eabi/include/c++/10.3.1/bits/alloc_traits.h **** 	= __detected_or_t<false_type, __pocma, _Alloc>;
 189:/Library/DaisyToolchain/0.1.3-ARM/arm/arm-none-eabi/include/c++/10.3.1/bits/alloc_traits.h **** 
 190:/Library/DaisyToolchain/0.1.3-ARM/arm/arm-none-eabi/include/c++/10.3.1/bits/alloc_traits.h ****       /**
 191:/Library/DaisyToolchain/0.1.3-ARM/arm/arm-none-eabi/include/c++/10.3.1/bits/alloc_traits.h ****        * @brief   How the allocator is propagated on swap
 192:/Library/DaisyToolchain/0.1.3-ARM/arm/arm-none-eabi/include/c++/10.3.1/bits/alloc_traits.h ****        *
 193:/Library/DaisyToolchain/0.1.3-ARM/arm/arm-none-eabi/include/c++/10.3.1/bits/alloc_traits.h ****        * @c Alloc::propagate_on_container_swap if that type exists,
 194:/Library/DaisyToolchain/0.1.3-ARM/arm/arm-none-eabi/include/c++/10.3.1/bits/alloc_traits.h ****        * otherwise @c false_type
 195:/Library/DaisyToolchain/0.1.3-ARM/arm/arm-none-eabi/include/c++/10.3.1/bits/alloc_traits.h ****       */
 196:/Library/DaisyToolchain/0.1.3-ARM/arm/arm-none-eabi/include/c++/10.3.1/bits/alloc_traits.h ****       using propagate_on_container_swap
 197:/Library/DaisyToolchain/0.1.3-ARM/arm/arm-none-eabi/include/c++/10.3.1/bits/alloc_traits.h **** 	= __detected_or_t<false_type, __pocs, _Alloc>;
 198:/Library/DaisyToolchain/0.1.3-ARM/arm/arm-none-eabi/include/c++/10.3.1/bits/alloc_traits.h **** 
 199:/Library/DaisyToolchain/0.1.3-ARM/arm/arm-none-eabi/include/c++/10.3.1/bits/alloc_traits.h ****       /**
 200:/Library/DaisyToolchain/0.1.3-ARM/arm/arm-none-eabi/include/c++/10.3.1/bits/alloc_traits.h ****        * @brief   Whether all instances of the allocator type compare equal.
 201:/Library/DaisyToolchain/0.1.3-ARM/arm/arm-none-eabi/include/c++/10.3.1/bits/alloc_traits.h ****        *
 202:/Library/DaisyToolchain/0.1.3-ARM/arm/arm-none-eabi/include/c++/10.3.1/bits/alloc_traits.h ****        * @c Alloc::is_always_equal if that type exists,
 203:/Library/DaisyToolchain/0.1.3-ARM/arm/arm-none-eabi/include/c++/10.3.1/bits/alloc_traits.h ****        * otherwise @c is_empty<Alloc>::type
 204:/Library/DaisyToolchain/0.1.3-ARM/arm/arm-none-eabi/include/c++/10.3.1/bits/alloc_traits.h ****       */
 205:/Library/DaisyToolchain/0.1.3-ARM/arm/arm-none-eabi/include/c++/10.3.1/bits/alloc_traits.h ****       using is_always_equal
 206:/Library/DaisyToolchain/0.1.3-ARM/arm/arm-none-eabi/include/c++/10.3.1/bits/alloc_traits.h **** 	= __detected_or_t<typename is_empty<_Alloc>::type, __equal, _Alloc>;
 207:/Library/DaisyToolchain/0.1.3-ARM/arm/arm-none-eabi/include/c++/10.3.1/bits/alloc_traits.h **** 
 208:/Library/DaisyToolchain/0.1.3-ARM/arm/arm-none-eabi/include/c++/10.3.1/bits/alloc_traits.h ****       template<typename _Tp>
 209:/Library/DaisyToolchain/0.1.3-ARM/arm/arm-none-eabi/include/c++/10.3.1/bits/alloc_traits.h **** 	using rebind_alloc = __alloc_rebind<_Alloc, _Tp>;
 210:/Library/DaisyToolchain/0.1.3-ARM/arm/arm-none-eabi/include/c++/10.3.1/bits/alloc_traits.h ****       template<typename _Tp>
 211:/Library/DaisyToolchain/0.1.3-ARM/arm/arm-none-eabi/include/c++/10.3.1/bits/alloc_traits.h **** 	using rebind_traits = allocator_traits<rebind_alloc<_Tp>>;
 212:/Library/DaisyToolchain/0.1.3-ARM/arm/arm-none-eabi/include/c++/10.3.1/bits/alloc_traits.h **** 
 213:/Library/DaisyToolchain/0.1.3-ARM/arm/arm-none-eabi/include/c++/10.3.1/bits/alloc_traits.h ****     private:
 214:/Library/DaisyToolchain/0.1.3-ARM/arm/arm-none-eabi/include/c++/10.3.1/bits/alloc_traits.h ****       template<typename _Alloc2>
 215:/Library/DaisyToolchain/0.1.3-ARM/arm/arm-none-eabi/include/c++/10.3.1/bits/alloc_traits.h **** 	static constexpr auto
 216:/Library/DaisyToolchain/0.1.3-ARM/arm/arm-none-eabi/include/c++/10.3.1/bits/alloc_traits.h **** 	_S_allocate(_Alloc2& __a, size_type __n, const_void_pointer __hint, int)
 217:/Library/DaisyToolchain/0.1.3-ARM/arm/arm-none-eabi/include/c++/10.3.1/bits/alloc_traits.h **** 	-> decltype(__a.allocate(__n, __hint))
 218:/Library/DaisyToolchain/0.1.3-ARM/arm/arm-none-eabi/include/c++/10.3.1/bits/alloc_traits.h **** 	{ return __a.allocate(__n, __hint); }
 219:/Library/DaisyToolchain/0.1.3-ARM/arm/arm-none-eabi/include/c++/10.3.1/bits/alloc_traits.h **** 
 220:/Library/DaisyToolchain/0.1.3-ARM/arm/arm-none-eabi/include/c++/10.3.1/bits/alloc_traits.h ****       template<typename _Alloc2>
 221:/Library/DaisyToolchain/0.1.3-ARM/arm/arm-none-eabi/include/c++/10.3.1/bits/alloc_traits.h **** 	static constexpr pointer
 222:/Library/DaisyToolchain/0.1.3-ARM/arm/arm-none-eabi/include/c++/10.3.1/bits/alloc_traits.h **** 	_S_allocate(_Alloc2& __a, size_type __n, const_void_pointer, ...)
 223:/Library/DaisyToolchain/0.1.3-ARM/arm/arm-none-eabi/include/c++/10.3.1/bits/alloc_traits.h **** 	{ return __a.allocate(__n); }
 224:/Library/DaisyToolchain/0.1.3-ARM/arm/arm-none-eabi/include/c++/10.3.1/bits/alloc_traits.h **** 
 225:/Library/DaisyToolchain/0.1.3-ARM/arm/arm-none-eabi/include/c++/10.3.1/bits/alloc_traits.h ****       template<typename _Tp, typename... _Args>
 226:/Library/DaisyToolchain/0.1.3-ARM/arm/arm-none-eabi/include/c++/10.3.1/bits/alloc_traits.h **** 	struct __construct_helper
 227:/Library/DaisyToolchain/0.1.3-ARM/arm/arm-none-eabi/include/c++/10.3.1/bits/alloc_traits.h **** 	{
 228:/Library/DaisyToolchain/0.1.3-ARM/arm/arm-none-eabi/include/c++/10.3.1/bits/alloc_traits.h **** 	  template<typename _Alloc2,
 229:/Library/DaisyToolchain/0.1.3-ARM/arm/arm-none-eabi/include/c++/10.3.1/bits/alloc_traits.h **** 	    typename = decltype(std::declval<_Alloc2*>()->construct(
 230:/Library/DaisyToolchain/0.1.3-ARM/arm/arm-none-eabi/include/c++/10.3.1/bits/alloc_traits.h **** 		  std::declval<_Tp*>(), std::declval<_Args>()...))>
 231:/Library/DaisyToolchain/0.1.3-ARM/arm/arm-none-eabi/include/c++/10.3.1/bits/alloc_traits.h **** 	    static true_type __test(int);
 232:/Library/DaisyToolchain/0.1.3-ARM/arm/arm-none-eabi/include/c++/10.3.1/bits/alloc_traits.h **** 
 233:/Library/DaisyToolchain/0.1.3-ARM/arm/arm-none-eabi/include/c++/10.3.1/bits/alloc_traits.h **** 	  template<typename>
 234:/Library/DaisyToolchain/0.1.3-ARM/arm/arm-none-eabi/include/c++/10.3.1/bits/alloc_traits.h **** 	    static false_type __test(...);
 235:/Library/DaisyToolchain/0.1.3-ARM/arm/arm-none-eabi/include/c++/10.3.1/bits/alloc_traits.h **** 
ARM GAS  /var/folders/xd/16jvbr6j24q9nvtpm0qtw3240000gn/T//cch9jPA2.s 			page 127


 236:/Library/DaisyToolchain/0.1.3-ARM/arm/arm-none-eabi/include/c++/10.3.1/bits/alloc_traits.h **** 	  using type = decltype(__test<_Alloc>(0));
 237:/Library/DaisyToolchain/0.1.3-ARM/arm/arm-none-eabi/include/c++/10.3.1/bits/alloc_traits.h **** 	};
 238:/Library/DaisyToolchain/0.1.3-ARM/arm/arm-none-eabi/include/c++/10.3.1/bits/alloc_traits.h **** 
 239:/Library/DaisyToolchain/0.1.3-ARM/arm/arm-none-eabi/include/c++/10.3.1/bits/alloc_traits.h ****       template<typename _Tp, typename... _Args>
 240:/Library/DaisyToolchain/0.1.3-ARM/arm/arm-none-eabi/include/c++/10.3.1/bits/alloc_traits.h **** 	using __has_construct
 241:/Library/DaisyToolchain/0.1.3-ARM/arm/arm-none-eabi/include/c++/10.3.1/bits/alloc_traits.h **** 	  = typename __construct_helper<_Tp, _Args...>::type;
 242:/Library/DaisyToolchain/0.1.3-ARM/arm/arm-none-eabi/include/c++/10.3.1/bits/alloc_traits.h **** 
 243:/Library/DaisyToolchain/0.1.3-ARM/arm/arm-none-eabi/include/c++/10.3.1/bits/alloc_traits.h ****       template<typename _Tp, typename... _Args>
 244:/Library/DaisyToolchain/0.1.3-ARM/arm/arm-none-eabi/include/c++/10.3.1/bits/alloc_traits.h **** 	static _GLIBCXX14_CONSTEXPR _Require<__has_construct<_Tp, _Args...>>
 245:/Library/DaisyToolchain/0.1.3-ARM/arm/arm-none-eabi/include/c++/10.3.1/bits/alloc_traits.h **** 	_S_construct(_Alloc& __a, _Tp* __p, _Args&&... __args)
 246:/Library/DaisyToolchain/0.1.3-ARM/arm/arm-none-eabi/include/c++/10.3.1/bits/alloc_traits.h **** 	noexcept(noexcept(__a.construct(__p, std::forward<_Args>(__args)...)))
 247:/Library/DaisyToolchain/0.1.3-ARM/arm/arm-none-eabi/include/c++/10.3.1/bits/alloc_traits.h **** 	{ __a.construct(__p, std::forward<_Args>(__args)...); }
 248:/Library/DaisyToolchain/0.1.3-ARM/arm/arm-none-eabi/include/c++/10.3.1/bits/alloc_traits.h **** 
 249:/Library/DaisyToolchain/0.1.3-ARM/arm/arm-none-eabi/include/c++/10.3.1/bits/alloc_traits.h ****       template<typename _Tp, typename... _Args>
 250:/Library/DaisyToolchain/0.1.3-ARM/arm/arm-none-eabi/include/c++/10.3.1/bits/alloc_traits.h **** 	static _GLIBCXX14_CONSTEXPR
 251:/Library/DaisyToolchain/0.1.3-ARM/arm/arm-none-eabi/include/c++/10.3.1/bits/alloc_traits.h **** 	_Require<__and_<__not_<__has_construct<_Tp, _Args...>>,
 252:/Library/DaisyToolchain/0.1.3-ARM/arm/arm-none-eabi/include/c++/10.3.1/bits/alloc_traits.h **** 			       is_constructible<_Tp, _Args...>>>
 253:/Library/DaisyToolchain/0.1.3-ARM/arm/arm-none-eabi/include/c++/10.3.1/bits/alloc_traits.h **** 	_S_construct(_Alloc&, _Tp* __p, _Args&&... __args)
 254:/Library/DaisyToolchain/0.1.3-ARM/arm/arm-none-eabi/include/c++/10.3.1/bits/alloc_traits.h **** 	noexcept(std::is_nothrow_constructible<_Tp, _Args...>::value)
 255:/Library/DaisyToolchain/0.1.3-ARM/arm/arm-none-eabi/include/c++/10.3.1/bits/alloc_traits.h **** 	{
 256:/Library/DaisyToolchain/0.1.3-ARM/arm/arm-none-eabi/include/c++/10.3.1/bits/alloc_traits.h **** #if __cplusplus <= 201703L
 257:/Library/DaisyToolchain/0.1.3-ARM/arm/arm-none-eabi/include/c++/10.3.1/bits/alloc_traits.h **** 	  ::new((void*)__p) _Tp(std::forward<_Args>(__args)...);
 258:/Library/DaisyToolchain/0.1.3-ARM/arm/arm-none-eabi/include/c++/10.3.1/bits/alloc_traits.h **** #else
 259:/Library/DaisyToolchain/0.1.3-ARM/arm/arm-none-eabi/include/c++/10.3.1/bits/alloc_traits.h **** 	  std::construct_at(__p, std::forward<_Args>(__args)...);
 260:/Library/DaisyToolchain/0.1.3-ARM/arm/arm-none-eabi/include/c++/10.3.1/bits/alloc_traits.h **** #endif
 261:/Library/DaisyToolchain/0.1.3-ARM/arm/arm-none-eabi/include/c++/10.3.1/bits/alloc_traits.h **** 	}
 262:/Library/DaisyToolchain/0.1.3-ARM/arm/arm-none-eabi/include/c++/10.3.1/bits/alloc_traits.h **** 
 263:/Library/DaisyToolchain/0.1.3-ARM/arm/arm-none-eabi/include/c++/10.3.1/bits/alloc_traits.h ****       template<typename _Alloc2, typename _Tp>
 264:/Library/DaisyToolchain/0.1.3-ARM/arm/arm-none-eabi/include/c++/10.3.1/bits/alloc_traits.h **** 	static _GLIBCXX14_CONSTEXPR auto
 265:/Library/DaisyToolchain/0.1.3-ARM/arm/arm-none-eabi/include/c++/10.3.1/bits/alloc_traits.h **** 	_S_destroy(_Alloc2& __a, _Tp* __p, int)
 266:/Library/DaisyToolchain/0.1.3-ARM/arm/arm-none-eabi/include/c++/10.3.1/bits/alloc_traits.h **** 	noexcept(noexcept(__a.destroy(__p)))
 267:/Library/DaisyToolchain/0.1.3-ARM/arm/arm-none-eabi/include/c++/10.3.1/bits/alloc_traits.h **** 	-> decltype(__a.destroy(__p))
 268:/Library/DaisyToolchain/0.1.3-ARM/arm/arm-none-eabi/include/c++/10.3.1/bits/alloc_traits.h **** 	{ __a.destroy(__p); }
 269:/Library/DaisyToolchain/0.1.3-ARM/arm/arm-none-eabi/include/c++/10.3.1/bits/alloc_traits.h **** 
 270:/Library/DaisyToolchain/0.1.3-ARM/arm/arm-none-eabi/include/c++/10.3.1/bits/alloc_traits.h ****       template<typename _Alloc2, typename _Tp>
 271:/Library/DaisyToolchain/0.1.3-ARM/arm/arm-none-eabi/include/c++/10.3.1/bits/alloc_traits.h **** 	static _GLIBCXX14_CONSTEXPR void
 272:/Library/DaisyToolchain/0.1.3-ARM/arm/arm-none-eabi/include/c++/10.3.1/bits/alloc_traits.h **** 	_S_destroy(_Alloc2&, _Tp* __p, ...)
 273:/Library/DaisyToolchain/0.1.3-ARM/arm/arm-none-eabi/include/c++/10.3.1/bits/alloc_traits.h **** 	noexcept(std::is_nothrow_destructible<_Tp>::value)
 274:/Library/DaisyToolchain/0.1.3-ARM/arm/arm-none-eabi/include/c++/10.3.1/bits/alloc_traits.h **** 	{ std::_Destroy(__p); }
 275:/Library/DaisyToolchain/0.1.3-ARM/arm/arm-none-eabi/include/c++/10.3.1/bits/alloc_traits.h **** 
 276:/Library/DaisyToolchain/0.1.3-ARM/arm/arm-none-eabi/include/c++/10.3.1/bits/alloc_traits.h ****       template<typename _Alloc2>
 277:/Library/DaisyToolchain/0.1.3-ARM/arm/arm-none-eabi/include/c++/10.3.1/bits/alloc_traits.h **** 	static constexpr auto
 278:/Library/DaisyToolchain/0.1.3-ARM/arm/arm-none-eabi/include/c++/10.3.1/bits/alloc_traits.h **** 	_S_max_size(_Alloc2& __a, int)
 279:/Library/DaisyToolchain/0.1.3-ARM/arm/arm-none-eabi/include/c++/10.3.1/bits/alloc_traits.h **** 	-> decltype(__a.max_size())
 280:/Library/DaisyToolchain/0.1.3-ARM/arm/arm-none-eabi/include/c++/10.3.1/bits/alloc_traits.h **** 	{ return __a.max_size(); }
 281:/Library/DaisyToolchain/0.1.3-ARM/arm/arm-none-eabi/include/c++/10.3.1/bits/alloc_traits.h **** 
 282:/Library/DaisyToolchain/0.1.3-ARM/arm/arm-none-eabi/include/c++/10.3.1/bits/alloc_traits.h ****       template<typename _Alloc2>
 283:/Library/DaisyToolchain/0.1.3-ARM/arm/arm-none-eabi/include/c++/10.3.1/bits/alloc_traits.h **** 	static constexpr size_type
 284:/Library/DaisyToolchain/0.1.3-ARM/arm/arm-none-eabi/include/c++/10.3.1/bits/alloc_traits.h **** 	_S_max_size(_Alloc2&, ...)
 285:/Library/DaisyToolchain/0.1.3-ARM/arm/arm-none-eabi/include/c++/10.3.1/bits/alloc_traits.h **** 	{
 286:/Library/DaisyToolchain/0.1.3-ARM/arm/arm-none-eabi/include/c++/10.3.1/bits/alloc_traits.h **** 	  // _GLIBCXX_RESOLVE_LIB_DEFECTS
 287:/Library/DaisyToolchain/0.1.3-ARM/arm/arm-none-eabi/include/c++/10.3.1/bits/alloc_traits.h **** 	  // 2466. allocator_traits::max_size() default behavior is incorrect
 288:/Library/DaisyToolchain/0.1.3-ARM/arm/arm-none-eabi/include/c++/10.3.1/bits/alloc_traits.h **** 	  return __gnu_cxx::__numeric_traits<size_type>::__max
 289:/Library/DaisyToolchain/0.1.3-ARM/arm/arm-none-eabi/include/c++/10.3.1/bits/alloc_traits.h **** 	    / sizeof(value_type);
 290:/Library/DaisyToolchain/0.1.3-ARM/arm/arm-none-eabi/include/c++/10.3.1/bits/alloc_traits.h **** 	}
 291:/Library/DaisyToolchain/0.1.3-ARM/arm/arm-none-eabi/include/c++/10.3.1/bits/alloc_traits.h **** 
 292:/Library/DaisyToolchain/0.1.3-ARM/arm/arm-none-eabi/include/c++/10.3.1/bits/alloc_traits.h ****       template<typename _Alloc2>
ARM GAS  /var/folders/xd/16jvbr6j24q9nvtpm0qtw3240000gn/T//cch9jPA2.s 			page 128


 293:/Library/DaisyToolchain/0.1.3-ARM/arm/arm-none-eabi/include/c++/10.3.1/bits/alloc_traits.h **** 	static constexpr auto
 294:/Library/DaisyToolchain/0.1.3-ARM/arm/arm-none-eabi/include/c++/10.3.1/bits/alloc_traits.h **** 	_S_select(_Alloc2& __a, int)
 295:/Library/DaisyToolchain/0.1.3-ARM/arm/arm-none-eabi/include/c++/10.3.1/bits/alloc_traits.h **** 	-> decltype(__a.select_on_container_copy_construction())
 296:/Library/DaisyToolchain/0.1.3-ARM/arm/arm-none-eabi/include/c++/10.3.1/bits/alloc_traits.h **** 	{ return __a.select_on_container_copy_construction(); }
 297:/Library/DaisyToolchain/0.1.3-ARM/arm/arm-none-eabi/include/c++/10.3.1/bits/alloc_traits.h **** 
 298:/Library/DaisyToolchain/0.1.3-ARM/arm/arm-none-eabi/include/c++/10.3.1/bits/alloc_traits.h ****       template<typename _Alloc2>
 299:/Library/DaisyToolchain/0.1.3-ARM/arm/arm-none-eabi/include/c++/10.3.1/bits/alloc_traits.h **** 	static constexpr _Alloc2
 300:/Library/DaisyToolchain/0.1.3-ARM/arm/arm-none-eabi/include/c++/10.3.1/bits/alloc_traits.h **** 	_S_select(_Alloc2& __a, ...)
 301:/Library/DaisyToolchain/0.1.3-ARM/arm/arm-none-eabi/include/c++/10.3.1/bits/alloc_traits.h **** 	{ return __a; }
 302:/Library/DaisyToolchain/0.1.3-ARM/arm/arm-none-eabi/include/c++/10.3.1/bits/alloc_traits.h **** 
 303:/Library/DaisyToolchain/0.1.3-ARM/arm/arm-none-eabi/include/c++/10.3.1/bits/alloc_traits.h ****     public:
 304:/Library/DaisyToolchain/0.1.3-ARM/arm/arm-none-eabi/include/c++/10.3.1/bits/alloc_traits.h **** 
 305:/Library/DaisyToolchain/0.1.3-ARM/arm/arm-none-eabi/include/c++/10.3.1/bits/alloc_traits.h ****       /**
 306:/Library/DaisyToolchain/0.1.3-ARM/arm/arm-none-eabi/include/c++/10.3.1/bits/alloc_traits.h ****        *  @brief  Allocate memory.
 307:/Library/DaisyToolchain/0.1.3-ARM/arm/arm-none-eabi/include/c++/10.3.1/bits/alloc_traits.h ****        *  @param  __a  An allocator.
 308:/Library/DaisyToolchain/0.1.3-ARM/arm/arm-none-eabi/include/c++/10.3.1/bits/alloc_traits.h ****        *  @param  __n  The number of objects to allocate space for.
 309:/Library/DaisyToolchain/0.1.3-ARM/arm/arm-none-eabi/include/c++/10.3.1/bits/alloc_traits.h ****        *
 310:/Library/DaisyToolchain/0.1.3-ARM/arm/arm-none-eabi/include/c++/10.3.1/bits/alloc_traits.h ****        *  Calls @c a.allocate(n)
 311:/Library/DaisyToolchain/0.1.3-ARM/arm/arm-none-eabi/include/c++/10.3.1/bits/alloc_traits.h ****       */
 312:/Library/DaisyToolchain/0.1.3-ARM/arm/arm-none-eabi/include/c++/10.3.1/bits/alloc_traits.h ****       _GLIBCXX_NODISCARD static _GLIBCXX20_CONSTEXPR pointer
 313:/Library/DaisyToolchain/0.1.3-ARM/arm/arm-none-eabi/include/c++/10.3.1/bits/alloc_traits.h ****       allocate(_Alloc& __a, size_type __n)
 314:/Library/DaisyToolchain/0.1.3-ARM/arm/arm-none-eabi/include/c++/10.3.1/bits/alloc_traits.h ****       { return __a.allocate(__n); }
 315:/Library/DaisyToolchain/0.1.3-ARM/arm/arm-none-eabi/include/c++/10.3.1/bits/alloc_traits.h **** 
 316:/Library/DaisyToolchain/0.1.3-ARM/arm/arm-none-eabi/include/c++/10.3.1/bits/alloc_traits.h ****       /**
 317:/Library/DaisyToolchain/0.1.3-ARM/arm/arm-none-eabi/include/c++/10.3.1/bits/alloc_traits.h ****        *  @brief  Allocate memory.
 318:/Library/DaisyToolchain/0.1.3-ARM/arm/arm-none-eabi/include/c++/10.3.1/bits/alloc_traits.h ****        *  @param  __a  An allocator.
 319:/Library/DaisyToolchain/0.1.3-ARM/arm/arm-none-eabi/include/c++/10.3.1/bits/alloc_traits.h ****        *  @param  __n  The number of objects to allocate space for.
 320:/Library/DaisyToolchain/0.1.3-ARM/arm/arm-none-eabi/include/c++/10.3.1/bits/alloc_traits.h ****        *  @param  __hint Aid to locality.
 321:/Library/DaisyToolchain/0.1.3-ARM/arm/arm-none-eabi/include/c++/10.3.1/bits/alloc_traits.h ****        *  @return Memory of suitable size and alignment for @a n objects
 322:/Library/DaisyToolchain/0.1.3-ARM/arm/arm-none-eabi/include/c++/10.3.1/bits/alloc_traits.h ****        *          of type @c value_type
 323:/Library/DaisyToolchain/0.1.3-ARM/arm/arm-none-eabi/include/c++/10.3.1/bits/alloc_traits.h ****        *
 324:/Library/DaisyToolchain/0.1.3-ARM/arm/arm-none-eabi/include/c++/10.3.1/bits/alloc_traits.h ****        *  Returns <tt> a.allocate(n, hint) </tt> if that expression is
 325:/Library/DaisyToolchain/0.1.3-ARM/arm/arm-none-eabi/include/c++/10.3.1/bits/alloc_traits.h ****        *  well-formed, otherwise returns @c a.allocate(n)
 326:/Library/DaisyToolchain/0.1.3-ARM/arm/arm-none-eabi/include/c++/10.3.1/bits/alloc_traits.h ****       */
 327:/Library/DaisyToolchain/0.1.3-ARM/arm/arm-none-eabi/include/c++/10.3.1/bits/alloc_traits.h ****       _GLIBCXX_NODISCARD static _GLIBCXX20_CONSTEXPR pointer
 328:/Library/DaisyToolchain/0.1.3-ARM/arm/arm-none-eabi/include/c++/10.3.1/bits/alloc_traits.h ****       allocate(_Alloc& __a, size_type __n, const_void_pointer __hint)
 329:/Library/DaisyToolchain/0.1.3-ARM/arm/arm-none-eabi/include/c++/10.3.1/bits/alloc_traits.h ****       { return _S_allocate(__a, __n, __hint, 0); }
 330:/Library/DaisyToolchain/0.1.3-ARM/arm/arm-none-eabi/include/c++/10.3.1/bits/alloc_traits.h **** 
 331:/Library/DaisyToolchain/0.1.3-ARM/arm/arm-none-eabi/include/c++/10.3.1/bits/alloc_traits.h ****       /**
 332:/Library/DaisyToolchain/0.1.3-ARM/arm/arm-none-eabi/include/c++/10.3.1/bits/alloc_traits.h ****        *  @brief  Deallocate memory.
 333:/Library/DaisyToolchain/0.1.3-ARM/arm/arm-none-eabi/include/c++/10.3.1/bits/alloc_traits.h ****        *  @param  __a  An allocator.
 334:/Library/DaisyToolchain/0.1.3-ARM/arm/arm-none-eabi/include/c++/10.3.1/bits/alloc_traits.h ****        *  @param  __p  Pointer to the memory to deallocate.
 335:/Library/DaisyToolchain/0.1.3-ARM/arm/arm-none-eabi/include/c++/10.3.1/bits/alloc_traits.h ****        *  @param  __n  The number of objects space was allocated for.
 336:/Library/DaisyToolchain/0.1.3-ARM/arm/arm-none-eabi/include/c++/10.3.1/bits/alloc_traits.h ****        *
 337:/Library/DaisyToolchain/0.1.3-ARM/arm/arm-none-eabi/include/c++/10.3.1/bits/alloc_traits.h ****        *  Calls <tt> a.deallocate(p, n) </tt>
 338:/Library/DaisyToolchain/0.1.3-ARM/arm/arm-none-eabi/include/c++/10.3.1/bits/alloc_traits.h ****       */
 339:/Library/DaisyToolchain/0.1.3-ARM/arm/arm-none-eabi/include/c++/10.3.1/bits/alloc_traits.h ****       static _GLIBCXX20_CONSTEXPR void
 340:/Library/DaisyToolchain/0.1.3-ARM/arm/arm-none-eabi/include/c++/10.3.1/bits/alloc_traits.h ****       deallocate(_Alloc& __a, pointer __p, size_type __n)
 341:/Library/DaisyToolchain/0.1.3-ARM/arm/arm-none-eabi/include/c++/10.3.1/bits/alloc_traits.h ****       { __a.deallocate(__p, __n); }
 342:/Library/DaisyToolchain/0.1.3-ARM/arm/arm-none-eabi/include/c++/10.3.1/bits/alloc_traits.h **** 
 343:/Library/DaisyToolchain/0.1.3-ARM/arm/arm-none-eabi/include/c++/10.3.1/bits/alloc_traits.h ****       /**
 344:/Library/DaisyToolchain/0.1.3-ARM/arm/arm-none-eabi/include/c++/10.3.1/bits/alloc_traits.h ****        *  @brief  Construct an object of type `_Tp`
 345:/Library/DaisyToolchain/0.1.3-ARM/arm/arm-none-eabi/include/c++/10.3.1/bits/alloc_traits.h ****        *  @param  __a  An allocator.
 346:/Library/DaisyToolchain/0.1.3-ARM/arm/arm-none-eabi/include/c++/10.3.1/bits/alloc_traits.h ****        *  @param  __p  Pointer to memory of suitable size and alignment for Tp
 347:/Library/DaisyToolchain/0.1.3-ARM/arm/arm-none-eabi/include/c++/10.3.1/bits/alloc_traits.h ****        *  @param  __args Constructor arguments.
 348:/Library/DaisyToolchain/0.1.3-ARM/arm/arm-none-eabi/include/c++/10.3.1/bits/alloc_traits.h ****        *
 349:/Library/DaisyToolchain/0.1.3-ARM/arm/arm-none-eabi/include/c++/10.3.1/bits/alloc_traits.h ****        *  Calls <tt> __a.construct(__p, std::forward<Args>(__args)...) </tt>
ARM GAS  /var/folders/xd/16jvbr6j24q9nvtpm0qtw3240000gn/T//cch9jPA2.s 			page 129


 350:/Library/DaisyToolchain/0.1.3-ARM/arm/arm-none-eabi/include/c++/10.3.1/bits/alloc_traits.h ****        *  if that expression is well-formed, otherwise uses placement-new
 351:/Library/DaisyToolchain/0.1.3-ARM/arm/arm-none-eabi/include/c++/10.3.1/bits/alloc_traits.h ****        *  to construct an object of type @a _Tp at location @a __p from the
 352:/Library/DaisyToolchain/0.1.3-ARM/arm/arm-none-eabi/include/c++/10.3.1/bits/alloc_traits.h ****        *  arguments @a __args...
 353:/Library/DaisyToolchain/0.1.3-ARM/arm/arm-none-eabi/include/c++/10.3.1/bits/alloc_traits.h ****       */
 354:/Library/DaisyToolchain/0.1.3-ARM/arm/arm-none-eabi/include/c++/10.3.1/bits/alloc_traits.h ****       template<typename _Tp, typename... _Args>
 355:/Library/DaisyToolchain/0.1.3-ARM/arm/arm-none-eabi/include/c++/10.3.1/bits/alloc_traits.h **** 	static _GLIBCXX20_CONSTEXPR auto
 356:/Library/DaisyToolchain/0.1.3-ARM/arm/arm-none-eabi/include/c++/10.3.1/bits/alloc_traits.h **** 	construct(_Alloc& __a, _Tp* __p, _Args&&... __args)
 357:/Library/DaisyToolchain/0.1.3-ARM/arm/arm-none-eabi/include/c++/10.3.1/bits/alloc_traits.h **** 	noexcept(noexcept(_S_construct(__a, __p,
 358:/Library/DaisyToolchain/0.1.3-ARM/arm/arm-none-eabi/include/c++/10.3.1/bits/alloc_traits.h **** 				       std::forward<_Args>(__args)...)))
 359:/Library/DaisyToolchain/0.1.3-ARM/arm/arm-none-eabi/include/c++/10.3.1/bits/alloc_traits.h **** 	-> decltype(_S_construct(__a, __p, std::forward<_Args>(__args)...))
 360:/Library/DaisyToolchain/0.1.3-ARM/arm/arm-none-eabi/include/c++/10.3.1/bits/alloc_traits.h **** 	{ _S_construct(__a, __p, std::forward<_Args>(__args)...); }
 361:/Library/DaisyToolchain/0.1.3-ARM/arm/arm-none-eabi/include/c++/10.3.1/bits/alloc_traits.h **** 
 362:/Library/DaisyToolchain/0.1.3-ARM/arm/arm-none-eabi/include/c++/10.3.1/bits/alloc_traits.h ****       /**
 363:/Library/DaisyToolchain/0.1.3-ARM/arm/arm-none-eabi/include/c++/10.3.1/bits/alloc_traits.h ****        *  @brief  Destroy an object of type @a _Tp
 364:/Library/DaisyToolchain/0.1.3-ARM/arm/arm-none-eabi/include/c++/10.3.1/bits/alloc_traits.h ****        *  @param  __a  An allocator.
 365:/Library/DaisyToolchain/0.1.3-ARM/arm/arm-none-eabi/include/c++/10.3.1/bits/alloc_traits.h ****        *  @param  __p  Pointer to the object to destroy
 366:/Library/DaisyToolchain/0.1.3-ARM/arm/arm-none-eabi/include/c++/10.3.1/bits/alloc_traits.h ****        *
 367:/Library/DaisyToolchain/0.1.3-ARM/arm/arm-none-eabi/include/c++/10.3.1/bits/alloc_traits.h ****        *  Calls @c __a.destroy(__p) if that expression is well-formed,
 368:/Library/DaisyToolchain/0.1.3-ARM/arm/arm-none-eabi/include/c++/10.3.1/bits/alloc_traits.h ****        *  otherwise calls @c __p->~_Tp()
 369:/Library/DaisyToolchain/0.1.3-ARM/arm/arm-none-eabi/include/c++/10.3.1/bits/alloc_traits.h ****       */
 370:/Library/DaisyToolchain/0.1.3-ARM/arm/arm-none-eabi/include/c++/10.3.1/bits/alloc_traits.h ****       template<typename _Tp>
 371:/Library/DaisyToolchain/0.1.3-ARM/arm/arm-none-eabi/include/c++/10.3.1/bits/alloc_traits.h **** 	static _GLIBCXX20_CONSTEXPR void
 372:/Library/DaisyToolchain/0.1.3-ARM/arm/arm-none-eabi/include/c++/10.3.1/bits/alloc_traits.h **** 	destroy(_Alloc& __a, _Tp* __p)
 373:/Library/DaisyToolchain/0.1.3-ARM/arm/arm-none-eabi/include/c++/10.3.1/bits/alloc_traits.h **** 	noexcept(noexcept(_S_destroy(__a, __p, 0)))
 374:/Library/DaisyToolchain/0.1.3-ARM/arm/arm-none-eabi/include/c++/10.3.1/bits/alloc_traits.h **** 	{ _S_destroy(__a, __p, 0); }
 375:/Library/DaisyToolchain/0.1.3-ARM/arm/arm-none-eabi/include/c++/10.3.1/bits/alloc_traits.h **** 
 376:/Library/DaisyToolchain/0.1.3-ARM/arm/arm-none-eabi/include/c++/10.3.1/bits/alloc_traits.h ****       /**
 377:/Library/DaisyToolchain/0.1.3-ARM/arm/arm-none-eabi/include/c++/10.3.1/bits/alloc_traits.h ****        *  @brief  The maximum supported allocation size
 378:/Library/DaisyToolchain/0.1.3-ARM/arm/arm-none-eabi/include/c++/10.3.1/bits/alloc_traits.h ****        *  @param  __a  An allocator.
 379:/Library/DaisyToolchain/0.1.3-ARM/arm/arm-none-eabi/include/c++/10.3.1/bits/alloc_traits.h ****        *  @return @c __a.max_size() or @c numeric_limits<size_type>::max()
 380:/Library/DaisyToolchain/0.1.3-ARM/arm/arm-none-eabi/include/c++/10.3.1/bits/alloc_traits.h ****        *
 381:/Library/DaisyToolchain/0.1.3-ARM/arm/arm-none-eabi/include/c++/10.3.1/bits/alloc_traits.h ****        *  Returns @c __a.max_size() if that expression is well-formed,
 382:/Library/DaisyToolchain/0.1.3-ARM/arm/arm-none-eabi/include/c++/10.3.1/bits/alloc_traits.h ****        *  otherwise returns @c numeric_limits<size_type>::max()
 383:/Library/DaisyToolchain/0.1.3-ARM/arm/arm-none-eabi/include/c++/10.3.1/bits/alloc_traits.h ****       */
 384:/Library/DaisyToolchain/0.1.3-ARM/arm/arm-none-eabi/include/c++/10.3.1/bits/alloc_traits.h ****       static _GLIBCXX20_CONSTEXPR size_type
 385:/Library/DaisyToolchain/0.1.3-ARM/arm/arm-none-eabi/include/c++/10.3.1/bits/alloc_traits.h ****       max_size(const _Alloc& __a) noexcept
 386:/Library/DaisyToolchain/0.1.3-ARM/arm/arm-none-eabi/include/c++/10.3.1/bits/alloc_traits.h ****       { return _S_max_size(__a, 0); }
 387:/Library/DaisyToolchain/0.1.3-ARM/arm/arm-none-eabi/include/c++/10.3.1/bits/alloc_traits.h **** 
 388:/Library/DaisyToolchain/0.1.3-ARM/arm/arm-none-eabi/include/c++/10.3.1/bits/alloc_traits.h ****       /**
 389:/Library/DaisyToolchain/0.1.3-ARM/arm/arm-none-eabi/include/c++/10.3.1/bits/alloc_traits.h ****        *  @brief  Obtain an allocator to use when copying a container.
 390:/Library/DaisyToolchain/0.1.3-ARM/arm/arm-none-eabi/include/c++/10.3.1/bits/alloc_traits.h ****        *  @param  __rhs  An allocator.
 391:/Library/DaisyToolchain/0.1.3-ARM/arm/arm-none-eabi/include/c++/10.3.1/bits/alloc_traits.h ****        *  @return @c __rhs.select_on_container_copy_construction() or @a __rhs
 392:/Library/DaisyToolchain/0.1.3-ARM/arm/arm-none-eabi/include/c++/10.3.1/bits/alloc_traits.h ****        *
 393:/Library/DaisyToolchain/0.1.3-ARM/arm/arm-none-eabi/include/c++/10.3.1/bits/alloc_traits.h ****        *  Returns @c __rhs.select_on_container_copy_construction() if that
 394:/Library/DaisyToolchain/0.1.3-ARM/arm/arm-none-eabi/include/c++/10.3.1/bits/alloc_traits.h ****        *  expression is well-formed, otherwise returns @a __rhs
 395:/Library/DaisyToolchain/0.1.3-ARM/arm/arm-none-eabi/include/c++/10.3.1/bits/alloc_traits.h ****       */
 396:/Library/DaisyToolchain/0.1.3-ARM/arm/arm-none-eabi/include/c++/10.3.1/bits/alloc_traits.h ****       static _GLIBCXX20_CONSTEXPR _Alloc
 397:/Library/DaisyToolchain/0.1.3-ARM/arm/arm-none-eabi/include/c++/10.3.1/bits/alloc_traits.h ****       select_on_container_copy_construction(const _Alloc& __rhs)
 398:/Library/DaisyToolchain/0.1.3-ARM/arm/arm-none-eabi/include/c++/10.3.1/bits/alloc_traits.h ****       { return _S_select(__rhs, 0); }
 399:/Library/DaisyToolchain/0.1.3-ARM/arm/arm-none-eabi/include/c++/10.3.1/bits/alloc_traits.h ****     };
 400:/Library/DaisyToolchain/0.1.3-ARM/arm/arm-none-eabi/include/c++/10.3.1/bits/alloc_traits.h **** 
 401:/Library/DaisyToolchain/0.1.3-ARM/arm/arm-none-eabi/include/c++/10.3.1/bits/alloc_traits.h **** #if __cplusplus > 201703L
 402:/Library/DaisyToolchain/0.1.3-ARM/arm/arm-none-eabi/include/c++/10.3.1/bits/alloc_traits.h **** # define __cpp_lib_constexpr_dynamic_alloc 201907L
 403:/Library/DaisyToolchain/0.1.3-ARM/arm/arm-none-eabi/include/c++/10.3.1/bits/alloc_traits.h **** #endif
 404:/Library/DaisyToolchain/0.1.3-ARM/arm/arm-none-eabi/include/c++/10.3.1/bits/alloc_traits.h **** 
 405:/Library/DaisyToolchain/0.1.3-ARM/arm/arm-none-eabi/include/c++/10.3.1/bits/alloc_traits.h ****   /// Partial specialization for std::allocator.
 406:/Library/DaisyToolchain/0.1.3-ARM/arm/arm-none-eabi/include/c++/10.3.1/bits/alloc_traits.h ****   template<typename _Tp>
ARM GAS  /var/folders/xd/16jvbr6j24q9nvtpm0qtw3240000gn/T//cch9jPA2.s 			page 130


 407:/Library/DaisyToolchain/0.1.3-ARM/arm/arm-none-eabi/include/c++/10.3.1/bits/alloc_traits.h ****     struct allocator_traits<allocator<_Tp>>
 408:/Library/DaisyToolchain/0.1.3-ARM/arm/arm-none-eabi/include/c++/10.3.1/bits/alloc_traits.h ****     {
 409:/Library/DaisyToolchain/0.1.3-ARM/arm/arm-none-eabi/include/c++/10.3.1/bits/alloc_traits.h ****       /// The allocator type
 410:/Library/DaisyToolchain/0.1.3-ARM/arm/arm-none-eabi/include/c++/10.3.1/bits/alloc_traits.h ****       using allocator_type = allocator<_Tp>;
 411:/Library/DaisyToolchain/0.1.3-ARM/arm/arm-none-eabi/include/c++/10.3.1/bits/alloc_traits.h **** 
 412:/Library/DaisyToolchain/0.1.3-ARM/arm/arm-none-eabi/include/c++/10.3.1/bits/alloc_traits.h ****       /// The allocated type
 413:/Library/DaisyToolchain/0.1.3-ARM/arm/arm-none-eabi/include/c++/10.3.1/bits/alloc_traits.h ****       using value_type = _Tp;
 414:/Library/DaisyToolchain/0.1.3-ARM/arm/arm-none-eabi/include/c++/10.3.1/bits/alloc_traits.h **** 
 415:/Library/DaisyToolchain/0.1.3-ARM/arm/arm-none-eabi/include/c++/10.3.1/bits/alloc_traits.h ****       /// The allocator's pointer type.
 416:/Library/DaisyToolchain/0.1.3-ARM/arm/arm-none-eabi/include/c++/10.3.1/bits/alloc_traits.h ****       using pointer = _Tp*;
 417:/Library/DaisyToolchain/0.1.3-ARM/arm/arm-none-eabi/include/c++/10.3.1/bits/alloc_traits.h **** 
 418:/Library/DaisyToolchain/0.1.3-ARM/arm/arm-none-eabi/include/c++/10.3.1/bits/alloc_traits.h ****       /// The allocator's const pointer type.
 419:/Library/DaisyToolchain/0.1.3-ARM/arm/arm-none-eabi/include/c++/10.3.1/bits/alloc_traits.h ****       using const_pointer = const _Tp*;
 420:/Library/DaisyToolchain/0.1.3-ARM/arm/arm-none-eabi/include/c++/10.3.1/bits/alloc_traits.h **** 
 421:/Library/DaisyToolchain/0.1.3-ARM/arm/arm-none-eabi/include/c++/10.3.1/bits/alloc_traits.h ****       /// The allocator's void pointer type.
 422:/Library/DaisyToolchain/0.1.3-ARM/arm/arm-none-eabi/include/c++/10.3.1/bits/alloc_traits.h ****       using void_pointer = void*;
 423:/Library/DaisyToolchain/0.1.3-ARM/arm/arm-none-eabi/include/c++/10.3.1/bits/alloc_traits.h **** 
 424:/Library/DaisyToolchain/0.1.3-ARM/arm/arm-none-eabi/include/c++/10.3.1/bits/alloc_traits.h ****       /// The allocator's const void pointer type.
 425:/Library/DaisyToolchain/0.1.3-ARM/arm/arm-none-eabi/include/c++/10.3.1/bits/alloc_traits.h ****       using const_void_pointer = const void*;
 426:/Library/DaisyToolchain/0.1.3-ARM/arm/arm-none-eabi/include/c++/10.3.1/bits/alloc_traits.h **** 
 427:/Library/DaisyToolchain/0.1.3-ARM/arm/arm-none-eabi/include/c++/10.3.1/bits/alloc_traits.h ****       /// The allocator's difference type
 428:/Library/DaisyToolchain/0.1.3-ARM/arm/arm-none-eabi/include/c++/10.3.1/bits/alloc_traits.h ****       using difference_type = std::ptrdiff_t;
 429:/Library/DaisyToolchain/0.1.3-ARM/arm/arm-none-eabi/include/c++/10.3.1/bits/alloc_traits.h **** 
 430:/Library/DaisyToolchain/0.1.3-ARM/arm/arm-none-eabi/include/c++/10.3.1/bits/alloc_traits.h ****       /// The allocator's size type
 431:/Library/DaisyToolchain/0.1.3-ARM/arm/arm-none-eabi/include/c++/10.3.1/bits/alloc_traits.h ****       using size_type = std::size_t;
 432:/Library/DaisyToolchain/0.1.3-ARM/arm/arm-none-eabi/include/c++/10.3.1/bits/alloc_traits.h **** 
 433:/Library/DaisyToolchain/0.1.3-ARM/arm/arm-none-eabi/include/c++/10.3.1/bits/alloc_traits.h ****       /// How the allocator is propagated on copy assignment
 434:/Library/DaisyToolchain/0.1.3-ARM/arm/arm-none-eabi/include/c++/10.3.1/bits/alloc_traits.h ****       using propagate_on_container_copy_assignment = false_type;
 435:/Library/DaisyToolchain/0.1.3-ARM/arm/arm-none-eabi/include/c++/10.3.1/bits/alloc_traits.h **** 
 436:/Library/DaisyToolchain/0.1.3-ARM/arm/arm-none-eabi/include/c++/10.3.1/bits/alloc_traits.h ****       /// How the allocator is propagated on move assignment
 437:/Library/DaisyToolchain/0.1.3-ARM/arm/arm-none-eabi/include/c++/10.3.1/bits/alloc_traits.h ****       using propagate_on_container_move_assignment = true_type;
 438:/Library/DaisyToolchain/0.1.3-ARM/arm/arm-none-eabi/include/c++/10.3.1/bits/alloc_traits.h **** 
 439:/Library/DaisyToolchain/0.1.3-ARM/arm/arm-none-eabi/include/c++/10.3.1/bits/alloc_traits.h ****       /// How the allocator is propagated on swap
 440:/Library/DaisyToolchain/0.1.3-ARM/arm/arm-none-eabi/include/c++/10.3.1/bits/alloc_traits.h ****       using propagate_on_container_swap = false_type;
 441:/Library/DaisyToolchain/0.1.3-ARM/arm/arm-none-eabi/include/c++/10.3.1/bits/alloc_traits.h **** 
 442:/Library/DaisyToolchain/0.1.3-ARM/arm/arm-none-eabi/include/c++/10.3.1/bits/alloc_traits.h ****       /// Whether all instances of the allocator type compare equal.
 443:/Library/DaisyToolchain/0.1.3-ARM/arm/arm-none-eabi/include/c++/10.3.1/bits/alloc_traits.h ****       using is_always_equal = true_type;
 444:/Library/DaisyToolchain/0.1.3-ARM/arm/arm-none-eabi/include/c++/10.3.1/bits/alloc_traits.h **** 
 445:/Library/DaisyToolchain/0.1.3-ARM/arm/arm-none-eabi/include/c++/10.3.1/bits/alloc_traits.h ****       template<typename _Up>
 446:/Library/DaisyToolchain/0.1.3-ARM/arm/arm-none-eabi/include/c++/10.3.1/bits/alloc_traits.h **** 	using rebind_alloc = allocator<_Up>;
 447:/Library/DaisyToolchain/0.1.3-ARM/arm/arm-none-eabi/include/c++/10.3.1/bits/alloc_traits.h **** 
 448:/Library/DaisyToolchain/0.1.3-ARM/arm/arm-none-eabi/include/c++/10.3.1/bits/alloc_traits.h ****       template<typename _Up>
 449:/Library/DaisyToolchain/0.1.3-ARM/arm/arm-none-eabi/include/c++/10.3.1/bits/alloc_traits.h **** 	using rebind_traits = allocator_traits<allocator<_Up>>;
 450:/Library/DaisyToolchain/0.1.3-ARM/arm/arm-none-eabi/include/c++/10.3.1/bits/alloc_traits.h **** 
 451:/Library/DaisyToolchain/0.1.3-ARM/arm/arm-none-eabi/include/c++/10.3.1/bits/alloc_traits.h ****       /**
 452:/Library/DaisyToolchain/0.1.3-ARM/arm/arm-none-eabi/include/c++/10.3.1/bits/alloc_traits.h ****        *  @brief  Allocate memory.
 453:/Library/DaisyToolchain/0.1.3-ARM/arm/arm-none-eabi/include/c++/10.3.1/bits/alloc_traits.h ****        *  @param  __a  An allocator.
 454:/Library/DaisyToolchain/0.1.3-ARM/arm/arm-none-eabi/include/c++/10.3.1/bits/alloc_traits.h ****        *  @param  __n  The number of objects to allocate space for.
 455:/Library/DaisyToolchain/0.1.3-ARM/arm/arm-none-eabi/include/c++/10.3.1/bits/alloc_traits.h ****        *
 456:/Library/DaisyToolchain/0.1.3-ARM/arm/arm-none-eabi/include/c++/10.3.1/bits/alloc_traits.h ****        *  Calls @c a.allocate(n)
 457:/Library/DaisyToolchain/0.1.3-ARM/arm/arm-none-eabi/include/c++/10.3.1/bits/alloc_traits.h ****       */
 458:/Library/DaisyToolchain/0.1.3-ARM/arm/arm-none-eabi/include/c++/10.3.1/bits/alloc_traits.h ****       _GLIBCXX_NODISCARD static _GLIBCXX20_CONSTEXPR pointer
 459:/Library/DaisyToolchain/0.1.3-ARM/arm/arm-none-eabi/include/c++/10.3.1/bits/alloc_traits.h ****       allocate(allocator_type& __a, size_type __n)
 3245              		.loc 14 459 7 view .LVU865
 3246              	.LBB908:
 3247              	.LBI908:
  80:/Library/DaisyToolchain/0.1.3-ARM/arm/arm-none-eabi/include/c++/10.3.1/ext/new_allocator.h **** 
ARM GAS  /var/folders/xd/16jvbr6j24q9nvtpm0qtw3240000gn/T//cch9jPA2.s 			page 131


  81:/Library/DaisyToolchain/0.1.3-ARM/arm/arm-none-eabi/include/c++/10.3.1/ext/new_allocator.h ****       _GLIBCXX20_CONSTEXPR
  82:/Library/DaisyToolchain/0.1.3-ARM/arm/arm-none-eabi/include/c++/10.3.1/ext/new_allocator.h ****       new_allocator(const new_allocator&) _GLIBCXX_USE_NOEXCEPT { }
  83:/Library/DaisyToolchain/0.1.3-ARM/arm/arm-none-eabi/include/c++/10.3.1/ext/new_allocator.h **** 
  84:/Library/DaisyToolchain/0.1.3-ARM/arm/arm-none-eabi/include/c++/10.3.1/ext/new_allocator.h ****       template<typename _Tp1>
  85:/Library/DaisyToolchain/0.1.3-ARM/arm/arm-none-eabi/include/c++/10.3.1/ext/new_allocator.h **** 	_GLIBCXX20_CONSTEXPR
  86:/Library/DaisyToolchain/0.1.3-ARM/arm/arm-none-eabi/include/c++/10.3.1/ext/new_allocator.h **** 	new_allocator(const new_allocator<_Tp1>&) _GLIBCXX_USE_NOEXCEPT { }
  87:/Library/DaisyToolchain/0.1.3-ARM/arm/arm-none-eabi/include/c++/10.3.1/ext/new_allocator.h **** 
  88:/Library/DaisyToolchain/0.1.3-ARM/arm/arm-none-eabi/include/c++/10.3.1/ext/new_allocator.h **** #if __cplusplus <= 201703L
  89:/Library/DaisyToolchain/0.1.3-ARM/arm/arm-none-eabi/include/c++/10.3.1/ext/new_allocator.h ****       ~new_allocator() _GLIBCXX_USE_NOEXCEPT { }
  90:/Library/DaisyToolchain/0.1.3-ARM/arm/arm-none-eabi/include/c++/10.3.1/ext/new_allocator.h **** 
  91:/Library/DaisyToolchain/0.1.3-ARM/arm/arm-none-eabi/include/c++/10.3.1/ext/new_allocator.h ****       pointer
  92:/Library/DaisyToolchain/0.1.3-ARM/arm/arm-none-eabi/include/c++/10.3.1/ext/new_allocator.h ****       address(reference __x) const _GLIBCXX_NOEXCEPT
  93:/Library/DaisyToolchain/0.1.3-ARM/arm/arm-none-eabi/include/c++/10.3.1/ext/new_allocator.h ****       { return std::__addressof(__x); }
  94:/Library/DaisyToolchain/0.1.3-ARM/arm/arm-none-eabi/include/c++/10.3.1/ext/new_allocator.h **** 
  95:/Library/DaisyToolchain/0.1.3-ARM/arm/arm-none-eabi/include/c++/10.3.1/ext/new_allocator.h ****       const_pointer
  96:/Library/DaisyToolchain/0.1.3-ARM/arm/arm-none-eabi/include/c++/10.3.1/ext/new_allocator.h ****       address(const_reference __x) const _GLIBCXX_NOEXCEPT
  97:/Library/DaisyToolchain/0.1.3-ARM/arm/arm-none-eabi/include/c++/10.3.1/ext/new_allocator.h ****       { return std::__addressof(__x); }
  98:/Library/DaisyToolchain/0.1.3-ARM/arm/arm-none-eabi/include/c++/10.3.1/ext/new_allocator.h **** #endif
  99:/Library/DaisyToolchain/0.1.3-ARM/arm/arm-none-eabi/include/c++/10.3.1/ext/new_allocator.h **** 
 100:/Library/DaisyToolchain/0.1.3-ARM/arm/arm-none-eabi/include/c++/10.3.1/ext/new_allocator.h ****       // NB: __n is permitted to be 0.  The C++ standard says nothing
 101:/Library/DaisyToolchain/0.1.3-ARM/arm/arm-none-eabi/include/c++/10.3.1/ext/new_allocator.h ****       // about what the return value is when __n == 0.
 102:/Library/DaisyToolchain/0.1.3-ARM/arm/arm-none-eabi/include/c++/10.3.1/ext/new_allocator.h ****       _GLIBCXX_NODISCARD _Tp*
 103:/Library/DaisyToolchain/0.1.3-ARM/arm/arm-none-eabi/include/c++/10.3.1/ext/new_allocator.h ****       allocate(size_type __n, const void* = static_cast<const void*>(0))
 3248              		.loc 12 103 7 view .LVU866
 3249              	.LBB909:
 104:/Library/DaisyToolchain/0.1.3-ARM/arm/arm-none-eabi/include/c++/10.3.1/ext/new_allocator.h ****       {
 105:/Library/DaisyToolchain/0.1.3-ARM/arm/arm-none-eabi/include/c++/10.3.1/ext/new_allocator.h **** #if __cplusplus >= 201103L
 106:/Library/DaisyToolchain/0.1.3-ARM/arm/arm-none-eabi/include/c++/10.3.1/ext/new_allocator.h **** 	 // _GLIBCXX_RESOLVE_LIB_DEFECTS
 107:/Library/DaisyToolchain/0.1.3-ARM/arm/arm-none-eabi/include/c++/10.3.1/ext/new_allocator.h **** 	 // 3308. std::allocator<void>().allocate(n)
 108:/Library/DaisyToolchain/0.1.3-ARM/arm/arm-none-eabi/include/c++/10.3.1/ext/new_allocator.h **** 	 static_assert(sizeof(_Tp) != 0, "cannot allocate incomplete types");
 109:/Library/DaisyToolchain/0.1.3-ARM/arm/arm-none-eabi/include/c++/10.3.1/ext/new_allocator.h **** #endif
 110:/Library/DaisyToolchain/0.1.3-ARM/arm/arm-none-eabi/include/c++/10.3.1/ext/new_allocator.h **** 
 111:/Library/DaisyToolchain/0.1.3-ARM/arm/arm-none-eabi/include/c++/10.3.1/ext/new_allocator.h **** 	if (__n > this->_M_max_size())
 112:/Library/DaisyToolchain/0.1.3-ARM/arm/arm-none-eabi/include/c++/10.3.1/ext/new_allocator.h **** 	  std::__throw_bad_alloc();
 113:/Library/DaisyToolchain/0.1.3-ARM/arm/arm-none-eabi/include/c++/10.3.1/ext/new_allocator.h **** 
 114:/Library/DaisyToolchain/0.1.3-ARM/arm/arm-none-eabi/include/c++/10.3.1/ext/new_allocator.h **** #if __cpp_aligned_new
 115:/Library/DaisyToolchain/0.1.3-ARM/arm/arm-none-eabi/include/c++/10.3.1/ext/new_allocator.h **** 	if (alignof(_Tp) > __STDCPP_DEFAULT_NEW_ALIGNMENT__)
 116:/Library/DaisyToolchain/0.1.3-ARM/arm/arm-none-eabi/include/c++/10.3.1/ext/new_allocator.h **** 	  {
 117:/Library/DaisyToolchain/0.1.3-ARM/arm/arm-none-eabi/include/c++/10.3.1/ext/new_allocator.h **** 	    std::align_val_t __al = std::align_val_t(alignof(_Tp));
 118:/Library/DaisyToolchain/0.1.3-ARM/arm/arm-none-eabi/include/c++/10.3.1/ext/new_allocator.h **** 	    return static_cast<_Tp*>(::operator new(__n * sizeof(_Tp), __al));
 119:/Library/DaisyToolchain/0.1.3-ARM/arm/arm-none-eabi/include/c++/10.3.1/ext/new_allocator.h **** 	  }
 120:/Library/DaisyToolchain/0.1.3-ARM/arm/arm-none-eabi/include/c++/10.3.1/ext/new_allocator.h **** #endif
 121:/Library/DaisyToolchain/0.1.3-ARM/arm/arm-none-eabi/include/c++/10.3.1/ext/new_allocator.h **** 	return static_cast<_Tp*>(::operator new(__n * sizeof(_Tp)));
 3250              		.loc 12 121 41 is_stmt 0 view .LVU867
 3251 001a 2046     		mov	r0, r4
 3252 001c FFF7FEFF 		bl	_Znwj
 3253              	.LVL250:
 3254 0020 0646     		mov	r6, r0
 3255              	.LVL251:
 3256              		.loc 12 121 41 view .LVU868
 3257              	.LBE909:
 3258              	.LBE908:
 3259              	.LBE907:
 3260              	.LBE906:
 3261              	.LBE905:
 3262              	.LBB910:
 3263              	.LBI910:
ARM GAS  /var/folders/xd/16jvbr6j24q9nvtpm0qtw3240000gn/T//cch9jPA2.s 			page 132


 3264              		.file 15 "/Library/DaisyToolchain/0.1.3-ARM/arm/arm-none-eabi/include/c++/10.3.1/bits/stl_uninitia
   1:/Library/DaisyToolchain/0.1.3-ARM/arm/arm-none-eabi/include/c++/10.3.1/bits/stl_uninitialized.h **** // Raw memory manipulators -*- C++ -*-
   2:/Library/DaisyToolchain/0.1.3-ARM/arm/arm-none-eabi/include/c++/10.3.1/bits/stl_uninitialized.h **** 
   3:/Library/DaisyToolchain/0.1.3-ARM/arm/arm-none-eabi/include/c++/10.3.1/bits/stl_uninitialized.h **** // Copyright (C) 2001-2020 Free Software Foundation, Inc.
   4:/Library/DaisyToolchain/0.1.3-ARM/arm/arm-none-eabi/include/c++/10.3.1/bits/stl_uninitialized.h **** //
   5:/Library/DaisyToolchain/0.1.3-ARM/arm/arm-none-eabi/include/c++/10.3.1/bits/stl_uninitialized.h **** // This file is part of the GNU ISO C++ Library.  This library is free
   6:/Library/DaisyToolchain/0.1.3-ARM/arm/arm-none-eabi/include/c++/10.3.1/bits/stl_uninitialized.h **** // software; you can redistribute it and/or modify it under the
   7:/Library/DaisyToolchain/0.1.3-ARM/arm/arm-none-eabi/include/c++/10.3.1/bits/stl_uninitialized.h **** // terms of the GNU General Public License as published by the
   8:/Library/DaisyToolchain/0.1.3-ARM/arm/arm-none-eabi/include/c++/10.3.1/bits/stl_uninitialized.h **** // Free Software Foundation; either version 3, or (at your option)
   9:/Library/DaisyToolchain/0.1.3-ARM/arm/arm-none-eabi/include/c++/10.3.1/bits/stl_uninitialized.h **** // any later version.
  10:/Library/DaisyToolchain/0.1.3-ARM/arm/arm-none-eabi/include/c++/10.3.1/bits/stl_uninitialized.h **** 
  11:/Library/DaisyToolchain/0.1.3-ARM/arm/arm-none-eabi/include/c++/10.3.1/bits/stl_uninitialized.h **** // This library is distributed in the hope that it will be useful,
  12:/Library/DaisyToolchain/0.1.3-ARM/arm/arm-none-eabi/include/c++/10.3.1/bits/stl_uninitialized.h **** // but WITHOUT ANY WARRANTY; without even the implied warranty of
  13:/Library/DaisyToolchain/0.1.3-ARM/arm/arm-none-eabi/include/c++/10.3.1/bits/stl_uninitialized.h **** // MERCHANTABILITY or FITNESS FOR A PARTICULAR PURPOSE.  See the
  14:/Library/DaisyToolchain/0.1.3-ARM/arm/arm-none-eabi/include/c++/10.3.1/bits/stl_uninitialized.h **** // GNU General Public License for more details.
  15:/Library/DaisyToolchain/0.1.3-ARM/arm/arm-none-eabi/include/c++/10.3.1/bits/stl_uninitialized.h **** 
  16:/Library/DaisyToolchain/0.1.3-ARM/arm/arm-none-eabi/include/c++/10.3.1/bits/stl_uninitialized.h **** // Under Section 7 of GPL version 3, you are granted additional
  17:/Library/DaisyToolchain/0.1.3-ARM/arm/arm-none-eabi/include/c++/10.3.1/bits/stl_uninitialized.h **** // permissions described in the GCC Runtime Library Exception, version
  18:/Library/DaisyToolchain/0.1.3-ARM/arm/arm-none-eabi/include/c++/10.3.1/bits/stl_uninitialized.h **** // 3.1, as published by the Free Software Foundation.
  19:/Library/DaisyToolchain/0.1.3-ARM/arm/arm-none-eabi/include/c++/10.3.1/bits/stl_uninitialized.h **** 
  20:/Library/DaisyToolchain/0.1.3-ARM/arm/arm-none-eabi/include/c++/10.3.1/bits/stl_uninitialized.h **** // You should have received a copy of the GNU General Public License and
  21:/Library/DaisyToolchain/0.1.3-ARM/arm/arm-none-eabi/include/c++/10.3.1/bits/stl_uninitialized.h **** // a copy of the GCC Runtime Library Exception along with this program;
  22:/Library/DaisyToolchain/0.1.3-ARM/arm/arm-none-eabi/include/c++/10.3.1/bits/stl_uninitialized.h **** // see the files COPYING3 and COPYING.RUNTIME respectively.  If not, see
  23:/Library/DaisyToolchain/0.1.3-ARM/arm/arm-none-eabi/include/c++/10.3.1/bits/stl_uninitialized.h **** // <http://www.gnu.org/licenses/>.
  24:/Library/DaisyToolchain/0.1.3-ARM/arm/arm-none-eabi/include/c++/10.3.1/bits/stl_uninitialized.h **** 
  25:/Library/DaisyToolchain/0.1.3-ARM/arm/arm-none-eabi/include/c++/10.3.1/bits/stl_uninitialized.h **** /*
  26:/Library/DaisyToolchain/0.1.3-ARM/arm/arm-none-eabi/include/c++/10.3.1/bits/stl_uninitialized.h ****  *
  27:/Library/DaisyToolchain/0.1.3-ARM/arm/arm-none-eabi/include/c++/10.3.1/bits/stl_uninitialized.h ****  * Copyright (c) 1994
  28:/Library/DaisyToolchain/0.1.3-ARM/arm/arm-none-eabi/include/c++/10.3.1/bits/stl_uninitialized.h ****  * Hewlett-Packard Company
  29:/Library/DaisyToolchain/0.1.3-ARM/arm/arm-none-eabi/include/c++/10.3.1/bits/stl_uninitialized.h ****  *
  30:/Library/DaisyToolchain/0.1.3-ARM/arm/arm-none-eabi/include/c++/10.3.1/bits/stl_uninitialized.h ****  * Permission to use, copy, modify, distribute and sell this software
  31:/Library/DaisyToolchain/0.1.3-ARM/arm/arm-none-eabi/include/c++/10.3.1/bits/stl_uninitialized.h ****  * and its documentation for any purpose is hereby granted without fee,
  32:/Library/DaisyToolchain/0.1.3-ARM/arm/arm-none-eabi/include/c++/10.3.1/bits/stl_uninitialized.h ****  * provided that the above copyright notice appear in all copies and
  33:/Library/DaisyToolchain/0.1.3-ARM/arm/arm-none-eabi/include/c++/10.3.1/bits/stl_uninitialized.h ****  * that both that copyright notice and this permission notice appear
  34:/Library/DaisyToolchain/0.1.3-ARM/arm/arm-none-eabi/include/c++/10.3.1/bits/stl_uninitialized.h ****  * in supporting documentation.  Hewlett-Packard Company makes no
  35:/Library/DaisyToolchain/0.1.3-ARM/arm/arm-none-eabi/include/c++/10.3.1/bits/stl_uninitialized.h ****  * representations about the suitability of this software for any
  36:/Library/DaisyToolchain/0.1.3-ARM/arm/arm-none-eabi/include/c++/10.3.1/bits/stl_uninitialized.h ****  * purpose.  It is provided "as is" without express or implied warranty.
  37:/Library/DaisyToolchain/0.1.3-ARM/arm/arm-none-eabi/include/c++/10.3.1/bits/stl_uninitialized.h ****  *
  38:/Library/DaisyToolchain/0.1.3-ARM/arm/arm-none-eabi/include/c++/10.3.1/bits/stl_uninitialized.h ****  *
  39:/Library/DaisyToolchain/0.1.3-ARM/arm/arm-none-eabi/include/c++/10.3.1/bits/stl_uninitialized.h ****  * Copyright (c) 1996,1997
  40:/Library/DaisyToolchain/0.1.3-ARM/arm/arm-none-eabi/include/c++/10.3.1/bits/stl_uninitialized.h ****  * Silicon Graphics Computer Systems, Inc.
  41:/Library/DaisyToolchain/0.1.3-ARM/arm/arm-none-eabi/include/c++/10.3.1/bits/stl_uninitialized.h ****  *
  42:/Library/DaisyToolchain/0.1.3-ARM/arm/arm-none-eabi/include/c++/10.3.1/bits/stl_uninitialized.h ****  * Permission to use, copy, modify, distribute and sell this software
  43:/Library/DaisyToolchain/0.1.3-ARM/arm/arm-none-eabi/include/c++/10.3.1/bits/stl_uninitialized.h ****  * and its documentation for any purpose is hereby granted without fee,
  44:/Library/DaisyToolchain/0.1.3-ARM/arm/arm-none-eabi/include/c++/10.3.1/bits/stl_uninitialized.h ****  * provided that the above copyright notice appear in all copies and
  45:/Library/DaisyToolchain/0.1.3-ARM/arm/arm-none-eabi/include/c++/10.3.1/bits/stl_uninitialized.h ****  * that both that copyright notice and this permission notice appear
  46:/Library/DaisyToolchain/0.1.3-ARM/arm/arm-none-eabi/include/c++/10.3.1/bits/stl_uninitialized.h ****  * in supporting documentation.  Silicon Graphics makes no
  47:/Library/DaisyToolchain/0.1.3-ARM/arm/arm-none-eabi/include/c++/10.3.1/bits/stl_uninitialized.h ****  * representations about the suitability of this software for any
  48:/Library/DaisyToolchain/0.1.3-ARM/arm/arm-none-eabi/include/c++/10.3.1/bits/stl_uninitialized.h ****  * purpose.  It is provided "as is" without express or implied warranty.
  49:/Library/DaisyToolchain/0.1.3-ARM/arm/arm-none-eabi/include/c++/10.3.1/bits/stl_uninitialized.h ****  */
  50:/Library/DaisyToolchain/0.1.3-ARM/arm/arm-none-eabi/include/c++/10.3.1/bits/stl_uninitialized.h **** 
  51:/Library/DaisyToolchain/0.1.3-ARM/arm/arm-none-eabi/include/c++/10.3.1/bits/stl_uninitialized.h **** /** @file bits/stl_uninitialized.h
  52:/Library/DaisyToolchain/0.1.3-ARM/arm/arm-none-eabi/include/c++/10.3.1/bits/stl_uninitialized.h ****  *  This is an internal header file, included by other library headers.
  53:/Library/DaisyToolchain/0.1.3-ARM/arm/arm-none-eabi/include/c++/10.3.1/bits/stl_uninitialized.h ****  *  Do not attempt to use it directly. @headername{memory}
  54:/Library/DaisyToolchain/0.1.3-ARM/arm/arm-none-eabi/include/c++/10.3.1/bits/stl_uninitialized.h ****  */
  55:/Library/DaisyToolchain/0.1.3-ARM/arm/arm-none-eabi/include/c++/10.3.1/bits/stl_uninitialized.h **** 
  56:/Library/DaisyToolchain/0.1.3-ARM/arm/arm-none-eabi/include/c++/10.3.1/bits/stl_uninitialized.h **** #ifndef _STL_UNINITIALIZED_H
ARM GAS  /var/folders/xd/16jvbr6j24q9nvtpm0qtw3240000gn/T//cch9jPA2.s 			page 133


  57:/Library/DaisyToolchain/0.1.3-ARM/arm/arm-none-eabi/include/c++/10.3.1/bits/stl_uninitialized.h **** #define _STL_UNINITIALIZED_H 1
  58:/Library/DaisyToolchain/0.1.3-ARM/arm/arm-none-eabi/include/c++/10.3.1/bits/stl_uninitialized.h **** 
  59:/Library/DaisyToolchain/0.1.3-ARM/arm/arm-none-eabi/include/c++/10.3.1/bits/stl_uninitialized.h **** #if __cplusplus > 201402L
  60:/Library/DaisyToolchain/0.1.3-ARM/arm/arm-none-eabi/include/c++/10.3.1/bits/stl_uninitialized.h **** #include <bits/stl_pair.h>
  61:/Library/DaisyToolchain/0.1.3-ARM/arm/arm-none-eabi/include/c++/10.3.1/bits/stl_uninitialized.h **** #endif
  62:/Library/DaisyToolchain/0.1.3-ARM/arm/arm-none-eabi/include/c++/10.3.1/bits/stl_uninitialized.h **** 
  63:/Library/DaisyToolchain/0.1.3-ARM/arm/arm-none-eabi/include/c++/10.3.1/bits/stl_uninitialized.h **** #if __cplusplus >= 201103L
  64:/Library/DaisyToolchain/0.1.3-ARM/arm/arm-none-eabi/include/c++/10.3.1/bits/stl_uninitialized.h **** #include <type_traits>
  65:/Library/DaisyToolchain/0.1.3-ARM/arm/arm-none-eabi/include/c++/10.3.1/bits/stl_uninitialized.h **** #endif
  66:/Library/DaisyToolchain/0.1.3-ARM/arm/arm-none-eabi/include/c++/10.3.1/bits/stl_uninitialized.h **** 
  67:/Library/DaisyToolchain/0.1.3-ARM/arm/arm-none-eabi/include/c++/10.3.1/bits/stl_uninitialized.h **** #include <ext/alloc_traits.h>
  68:/Library/DaisyToolchain/0.1.3-ARM/arm/arm-none-eabi/include/c++/10.3.1/bits/stl_uninitialized.h **** 
  69:/Library/DaisyToolchain/0.1.3-ARM/arm/arm-none-eabi/include/c++/10.3.1/bits/stl_uninitialized.h **** namespace std _GLIBCXX_VISIBILITY(default)
  70:/Library/DaisyToolchain/0.1.3-ARM/arm/arm-none-eabi/include/c++/10.3.1/bits/stl_uninitialized.h **** {
  71:/Library/DaisyToolchain/0.1.3-ARM/arm/arm-none-eabi/include/c++/10.3.1/bits/stl_uninitialized.h **** _GLIBCXX_BEGIN_NAMESPACE_VERSION
  72:/Library/DaisyToolchain/0.1.3-ARM/arm/arm-none-eabi/include/c++/10.3.1/bits/stl_uninitialized.h **** 
  73:/Library/DaisyToolchain/0.1.3-ARM/arm/arm-none-eabi/include/c++/10.3.1/bits/stl_uninitialized.h ****   /** @addtogroup memory
  74:/Library/DaisyToolchain/0.1.3-ARM/arm/arm-none-eabi/include/c++/10.3.1/bits/stl_uninitialized.h ****    *  @{
  75:/Library/DaisyToolchain/0.1.3-ARM/arm/arm-none-eabi/include/c++/10.3.1/bits/stl_uninitialized.h ****    */
  76:/Library/DaisyToolchain/0.1.3-ARM/arm/arm-none-eabi/include/c++/10.3.1/bits/stl_uninitialized.h **** 
  77:/Library/DaisyToolchain/0.1.3-ARM/arm/arm-none-eabi/include/c++/10.3.1/bits/stl_uninitialized.h ****   /// @cond undocumented
  78:/Library/DaisyToolchain/0.1.3-ARM/arm/arm-none-eabi/include/c++/10.3.1/bits/stl_uninitialized.h **** 
  79:/Library/DaisyToolchain/0.1.3-ARM/arm/arm-none-eabi/include/c++/10.3.1/bits/stl_uninitialized.h ****   template<bool _TrivialValueTypes>
  80:/Library/DaisyToolchain/0.1.3-ARM/arm/arm-none-eabi/include/c++/10.3.1/bits/stl_uninitialized.h ****     struct __uninitialized_copy
  81:/Library/DaisyToolchain/0.1.3-ARM/arm/arm-none-eabi/include/c++/10.3.1/bits/stl_uninitialized.h ****     {
  82:/Library/DaisyToolchain/0.1.3-ARM/arm/arm-none-eabi/include/c++/10.3.1/bits/stl_uninitialized.h ****       template<typename _InputIterator, typename _ForwardIterator>
  83:/Library/DaisyToolchain/0.1.3-ARM/arm/arm-none-eabi/include/c++/10.3.1/bits/stl_uninitialized.h ****         static _ForwardIterator
  84:/Library/DaisyToolchain/0.1.3-ARM/arm/arm-none-eabi/include/c++/10.3.1/bits/stl_uninitialized.h ****         __uninit_copy(_InputIterator __first, _InputIterator __last,
  85:/Library/DaisyToolchain/0.1.3-ARM/arm/arm-none-eabi/include/c++/10.3.1/bits/stl_uninitialized.h **** 		      _ForwardIterator __result)
  86:/Library/DaisyToolchain/0.1.3-ARM/arm/arm-none-eabi/include/c++/10.3.1/bits/stl_uninitialized.h ****         {
  87:/Library/DaisyToolchain/0.1.3-ARM/arm/arm-none-eabi/include/c++/10.3.1/bits/stl_uninitialized.h **** 	  _ForwardIterator __cur = __result;
  88:/Library/DaisyToolchain/0.1.3-ARM/arm/arm-none-eabi/include/c++/10.3.1/bits/stl_uninitialized.h **** 	  __try
  89:/Library/DaisyToolchain/0.1.3-ARM/arm/arm-none-eabi/include/c++/10.3.1/bits/stl_uninitialized.h **** 	    {
  90:/Library/DaisyToolchain/0.1.3-ARM/arm/arm-none-eabi/include/c++/10.3.1/bits/stl_uninitialized.h **** 	      for (; __first != __last; ++__first, (void)++__cur)
  91:/Library/DaisyToolchain/0.1.3-ARM/arm/arm-none-eabi/include/c++/10.3.1/bits/stl_uninitialized.h **** 		std::_Construct(std::__addressof(*__cur), *__first);
  92:/Library/DaisyToolchain/0.1.3-ARM/arm/arm-none-eabi/include/c++/10.3.1/bits/stl_uninitialized.h **** 	      return __cur;
  93:/Library/DaisyToolchain/0.1.3-ARM/arm/arm-none-eabi/include/c++/10.3.1/bits/stl_uninitialized.h **** 	    }
  94:/Library/DaisyToolchain/0.1.3-ARM/arm/arm-none-eabi/include/c++/10.3.1/bits/stl_uninitialized.h **** 	  __catch(...)
  95:/Library/DaisyToolchain/0.1.3-ARM/arm/arm-none-eabi/include/c++/10.3.1/bits/stl_uninitialized.h **** 	    {
  96:/Library/DaisyToolchain/0.1.3-ARM/arm/arm-none-eabi/include/c++/10.3.1/bits/stl_uninitialized.h **** 	      std::_Destroy(__result, __cur);
  97:/Library/DaisyToolchain/0.1.3-ARM/arm/arm-none-eabi/include/c++/10.3.1/bits/stl_uninitialized.h **** 	      __throw_exception_again;
  98:/Library/DaisyToolchain/0.1.3-ARM/arm/arm-none-eabi/include/c++/10.3.1/bits/stl_uninitialized.h **** 	    }
  99:/Library/DaisyToolchain/0.1.3-ARM/arm/arm-none-eabi/include/c++/10.3.1/bits/stl_uninitialized.h **** 	}
 100:/Library/DaisyToolchain/0.1.3-ARM/arm/arm-none-eabi/include/c++/10.3.1/bits/stl_uninitialized.h ****     };
 101:/Library/DaisyToolchain/0.1.3-ARM/arm/arm-none-eabi/include/c++/10.3.1/bits/stl_uninitialized.h **** 
 102:/Library/DaisyToolchain/0.1.3-ARM/arm/arm-none-eabi/include/c++/10.3.1/bits/stl_uninitialized.h ****   template<>
 103:/Library/DaisyToolchain/0.1.3-ARM/arm/arm-none-eabi/include/c++/10.3.1/bits/stl_uninitialized.h ****     struct __uninitialized_copy<true>
 104:/Library/DaisyToolchain/0.1.3-ARM/arm/arm-none-eabi/include/c++/10.3.1/bits/stl_uninitialized.h ****     {
 105:/Library/DaisyToolchain/0.1.3-ARM/arm/arm-none-eabi/include/c++/10.3.1/bits/stl_uninitialized.h ****       template<typename _InputIterator, typename _ForwardIterator>
 106:/Library/DaisyToolchain/0.1.3-ARM/arm/arm-none-eabi/include/c++/10.3.1/bits/stl_uninitialized.h ****         static _ForwardIterator
 107:/Library/DaisyToolchain/0.1.3-ARM/arm/arm-none-eabi/include/c++/10.3.1/bits/stl_uninitialized.h ****         __uninit_copy(_InputIterator __first, _InputIterator __last,
 108:/Library/DaisyToolchain/0.1.3-ARM/arm/arm-none-eabi/include/c++/10.3.1/bits/stl_uninitialized.h **** 		      _ForwardIterator __result)
 109:/Library/DaisyToolchain/0.1.3-ARM/arm/arm-none-eabi/include/c++/10.3.1/bits/stl_uninitialized.h ****         { return std::copy(__first, __last, __result); }
 110:/Library/DaisyToolchain/0.1.3-ARM/arm/arm-none-eabi/include/c++/10.3.1/bits/stl_uninitialized.h ****     };
 111:/Library/DaisyToolchain/0.1.3-ARM/arm/arm-none-eabi/include/c++/10.3.1/bits/stl_uninitialized.h **** 
 112:/Library/DaisyToolchain/0.1.3-ARM/arm/arm-none-eabi/include/c++/10.3.1/bits/stl_uninitialized.h ****   /// @endcond
 113:/Library/DaisyToolchain/0.1.3-ARM/arm/arm-none-eabi/include/c++/10.3.1/bits/stl_uninitialized.h **** 
ARM GAS  /var/folders/xd/16jvbr6j24q9nvtpm0qtw3240000gn/T//cch9jPA2.s 			page 134


 114:/Library/DaisyToolchain/0.1.3-ARM/arm/arm-none-eabi/include/c++/10.3.1/bits/stl_uninitialized.h ****   /**
 115:/Library/DaisyToolchain/0.1.3-ARM/arm/arm-none-eabi/include/c++/10.3.1/bits/stl_uninitialized.h ****    *  @brief Copies the range [first,last) into result.
 116:/Library/DaisyToolchain/0.1.3-ARM/arm/arm-none-eabi/include/c++/10.3.1/bits/stl_uninitialized.h ****    *  @param  __first  An input iterator.
 117:/Library/DaisyToolchain/0.1.3-ARM/arm/arm-none-eabi/include/c++/10.3.1/bits/stl_uninitialized.h ****    *  @param  __last   An input iterator.
 118:/Library/DaisyToolchain/0.1.3-ARM/arm/arm-none-eabi/include/c++/10.3.1/bits/stl_uninitialized.h ****    *  @param  __result An output iterator.
 119:/Library/DaisyToolchain/0.1.3-ARM/arm/arm-none-eabi/include/c++/10.3.1/bits/stl_uninitialized.h ****    *  @return   __result + (__first - __last)
 120:/Library/DaisyToolchain/0.1.3-ARM/arm/arm-none-eabi/include/c++/10.3.1/bits/stl_uninitialized.h ****    *
 121:/Library/DaisyToolchain/0.1.3-ARM/arm/arm-none-eabi/include/c++/10.3.1/bits/stl_uninitialized.h ****    *  Like copy(), but does not require an initialized output range.
 122:/Library/DaisyToolchain/0.1.3-ARM/arm/arm-none-eabi/include/c++/10.3.1/bits/stl_uninitialized.h ****   */
 123:/Library/DaisyToolchain/0.1.3-ARM/arm/arm-none-eabi/include/c++/10.3.1/bits/stl_uninitialized.h ****   template<typename _InputIterator, typename _ForwardIterator>
 124:/Library/DaisyToolchain/0.1.3-ARM/arm/arm-none-eabi/include/c++/10.3.1/bits/stl_uninitialized.h ****     inline _ForwardIterator
 125:/Library/DaisyToolchain/0.1.3-ARM/arm/arm-none-eabi/include/c++/10.3.1/bits/stl_uninitialized.h ****     uninitialized_copy(_InputIterator __first, _InputIterator __last,
 126:/Library/DaisyToolchain/0.1.3-ARM/arm/arm-none-eabi/include/c++/10.3.1/bits/stl_uninitialized.h **** 		       _ForwardIterator __result)
 127:/Library/DaisyToolchain/0.1.3-ARM/arm/arm-none-eabi/include/c++/10.3.1/bits/stl_uninitialized.h ****     {
 128:/Library/DaisyToolchain/0.1.3-ARM/arm/arm-none-eabi/include/c++/10.3.1/bits/stl_uninitialized.h ****       typedef typename iterator_traits<_InputIterator>::value_type
 129:/Library/DaisyToolchain/0.1.3-ARM/arm/arm-none-eabi/include/c++/10.3.1/bits/stl_uninitialized.h **** 	_ValueType1;
 130:/Library/DaisyToolchain/0.1.3-ARM/arm/arm-none-eabi/include/c++/10.3.1/bits/stl_uninitialized.h ****       typedef typename iterator_traits<_ForwardIterator>::value_type
 131:/Library/DaisyToolchain/0.1.3-ARM/arm/arm-none-eabi/include/c++/10.3.1/bits/stl_uninitialized.h **** 	_ValueType2;
 132:/Library/DaisyToolchain/0.1.3-ARM/arm/arm-none-eabi/include/c++/10.3.1/bits/stl_uninitialized.h **** #if __cplusplus < 201103L
 133:/Library/DaisyToolchain/0.1.3-ARM/arm/arm-none-eabi/include/c++/10.3.1/bits/stl_uninitialized.h ****       const bool __assignable = true;
 134:/Library/DaisyToolchain/0.1.3-ARM/arm/arm-none-eabi/include/c++/10.3.1/bits/stl_uninitialized.h **** #else
 135:/Library/DaisyToolchain/0.1.3-ARM/arm/arm-none-eabi/include/c++/10.3.1/bits/stl_uninitialized.h ****       // Trivial types can have deleted copy constructor, but the std::copy
 136:/Library/DaisyToolchain/0.1.3-ARM/arm/arm-none-eabi/include/c++/10.3.1/bits/stl_uninitialized.h ****       // optimization that uses memmove would happily "copy" them anyway.
 137:/Library/DaisyToolchain/0.1.3-ARM/arm/arm-none-eabi/include/c++/10.3.1/bits/stl_uninitialized.h ****       static_assert(is_constructible<_ValueType2, decltype(*__first)>::value,
 138:/Library/DaisyToolchain/0.1.3-ARM/arm/arm-none-eabi/include/c++/10.3.1/bits/stl_uninitialized.h **** 	  "result type must be constructible from value type of input range");
 139:/Library/DaisyToolchain/0.1.3-ARM/arm/arm-none-eabi/include/c++/10.3.1/bits/stl_uninitialized.h **** 
 140:/Library/DaisyToolchain/0.1.3-ARM/arm/arm-none-eabi/include/c++/10.3.1/bits/stl_uninitialized.h ****       typedef typename iterator_traits<_InputIterator>::reference _RefType1;
 141:/Library/DaisyToolchain/0.1.3-ARM/arm/arm-none-eabi/include/c++/10.3.1/bits/stl_uninitialized.h ****       typedef typename iterator_traits<_ForwardIterator>::reference _RefType2;
 142:/Library/DaisyToolchain/0.1.3-ARM/arm/arm-none-eabi/include/c++/10.3.1/bits/stl_uninitialized.h ****       // Trivial types can have deleted assignment, so using std::copy
 143:/Library/DaisyToolchain/0.1.3-ARM/arm/arm-none-eabi/include/c++/10.3.1/bits/stl_uninitialized.h ****       // would be ill-formed. Require assignability before using std::copy:
 144:/Library/DaisyToolchain/0.1.3-ARM/arm/arm-none-eabi/include/c++/10.3.1/bits/stl_uninitialized.h ****       const bool __assignable = is_assignable<_RefType2, _RefType1>::value;
 145:/Library/DaisyToolchain/0.1.3-ARM/arm/arm-none-eabi/include/c++/10.3.1/bits/stl_uninitialized.h **** #endif
 146:/Library/DaisyToolchain/0.1.3-ARM/arm/arm-none-eabi/include/c++/10.3.1/bits/stl_uninitialized.h **** 
 147:/Library/DaisyToolchain/0.1.3-ARM/arm/arm-none-eabi/include/c++/10.3.1/bits/stl_uninitialized.h ****       return std::__uninitialized_copy<__is_trivial(_ValueType1)
 148:/Library/DaisyToolchain/0.1.3-ARM/arm/arm-none-eabi/include/c++/10.3.1/bits/stl_uninitialized.h **** 				       && __is_trivial(_ValueType2)
 149:/Library/DaisyToolchain/0.1.3-ARM/arm/arm-none-eabi/include/c++/10.3.1/bits/stl_uninitialized.h **** 				       && __assignable>::
 150:/Library/DaisyToolchain/0.1.3-ARM/arm/arm-none-eabi/include/c++/10.3.1/bits/stl_uninitialized.h **** 	__uninit_copy(__first, __last, __result);
 151:/Library/DaisyToolchain/0.1.3-ARM/arm/arm-none-eabi/include/c++/10.3.1/bits/stl_uninitialized.h ****     }
 152:/Library/DaisyToolchain/0.1.3-ARM/arm/arm-none-eabi/include/c++/10.3.1/bits/stl_uninitialized.h **** 
 153:/Library/DaisyToolchain/0.1.3-ARM/arm/arm-none-eabi/include/c++/10.3.1/bits/stl_uninitialized.h ****   /// @cond undocumented
 154:/Library/DaisyToolchain/0.1.3-ARM/arm/arm-none-eabi/include/c++/10.3.1/bits/stl_uninitialized.h **** 
 155:/Library/DaisyToolchain/0.1.3-ARM/arm/arm-none-eabi/include/c++/10.3.1/bits/stl_uninitialized.h ****   template<bool _TrivialValueType>
 156:/Library/DaisyToolchain/0.1.3-ARM/arm/arm-none-eabi/include/c++/10.3.1/bits/stl_uninitialized.h ****     struct __uninitialized_fill
 157:/Library/DaisyToolchain/0.1.3-ARM/arm/arm-none-eabi/include/c++/10.3.1/bits/stl_uninitialized.h ****     {
 158:/Library/DaisyToolchain/0.1.3-ARM/arm/arm-none-eabi/include/c++/10.3.1/bits/stl_uninitialized.h ****       template<typename _ForwardIterator, typename _Tp>
 159:/Library/DaisyToolchain/0.1.3-ARM/arm/arm-none-eabi/include/c++/10.3.1/bits/stl_uninitialized.h ****         static void
 160:/Library/DaisyToolchain/0.1.3-ARM/arm/arm-none-eabi/include/c++/10.3.1/bits/stl_uninitialized.h ****         __uninit_fill(_ForwardIterator __first, _ForwardIterator __last,
 161:/Library/DaisyToolchain/0.1.3-ARM/arm/arm-none-eabi/include/c++/10.3.1/bits/stl_uninitialized.h **** 		      const _Tp& __x)
 162:/Library/DaisyToolchain/0.1.3-ARM/arm/arm-none-eabi/include/c++/10.3.1/bits/stl_uninitialized.h ****         {
 163:/Library/DaisyToolchain/0.1.3-ARM/arm/arm-none-eabi/include/c++/10.3.1/bits/stl_uninitialized.h **** 	  _ForwardIterator __cur = __first;
 164:/Library/DaisyToolchain/0.1.3-ARM/arm/arm-none-eabi/include/c++/10.3.1/bits/stl_uninitialized.h **** 	  __try
 165:/Library/DaisyToolchain/0.1.3-ARM/arm/arm-none-eabi/include/c++/10.3.1/bits/stl_uninitialized.h **** 	    {
 166:/Library/DaisyToolchain/0.1.3-ARM/arm/arm-none-eabi/include/c++/10.3.1/bits/stl_uninitialized.h **** 	      for (; __cur != __last; ++__cur)
 167:/Library/DaisyToolchain/0.1.3-ARM/arm/arm-none-eabi/include/c++/10.3.1/bits/stl_uninitialized.h **** 		std::_Construct(std::__addressof(*__cur), __x);
 168:/Library/DaisyToolchain/0.1.3-ARM/arm/arm-none-eabi/include/c++/10.3.1/bits/stl_uninitialized.h **** 	    }
 169:/Library/DaisyToolchain/0.1.3-ARM/arm/arm-none-eabi/include/c++/10.3.1/bits/stl_uninitialized.h **** 	  __catch(...)
 170:/Library/DaisyToolchain/0.1.3-ARM/arm/arm-none-eabi/include/c++/10.3.1/bits/stl_uninitialized.h **** 	    {
ARM GAS  /var/folders/xd/16jvbr6j24q9nvtpm0qtw3240000gn/T//cch9jPA2.s 			page 135


 171:/Library/DaisyToolchain/0.1.3-ARM/arm/arm-none-eabi/include/c++/10.3.1/bits/stl_uninitialized.h **** 	      std::_Destroy(__first, __cur);
 172:/Library/DaisyToolchain/0.1.3-ARM/arm/arm-none-eabi/include/c++/10.3.1/bits/stl_uninitialized.h **** 	      __throw_exception_again;
 173:/Library/DaisyToolchain/0.1.3-ARM/arm/arm-none-eabi/include/c++/10.3.1/bits/stl_uninitialized.h **** 	    }
 174:/Library/DaisyToolchain/0.1.3-ARM/arm/arm-none-eabi/include/c++/10.3.1/bits/stl_uninitialized.h **** 	}
 175:/Library/DaisyToolchain/0.1.3-ARM/arm/arm-none-eabi/include/c++/10.3.1/bits/stl_uninitialized.h ****     };
 176:/Library/DaisyToolchain/0.1.3-ARM/arm/arm-none-eabi/include/c++/10.3.1/bits/stl_uninitialized.h **** 
 177:/Library/DaisyToolchain/0.1.3-ARM/arm/arm-none-eabi/include/c++/10.3.1/bits/stl_uninitialized.h ****   template<>
 178:/Library/DaisyToolchain/0.1.3-ARM/arm/arm-none-eabi/include/c++/10.3.1/bits/stl_uninitialized.h ****     struct __uninitialized_fill<true>
 179:/Library/DaisyToolchain/0.1.3-ARM/arm/arm-none-eabi/include/c++/10.3.1/bits/stl_uninitialized.h ****     {
 180:/Library/DaisyToolchain/0.1.3-ARM/arm/arm-none-eabi/include/c++/10.3.1/bits/stl_uninitialized.h ****       template<typename _ForwardIterator, typename _Tp>
 181:/Library/DaisyToolchain/0.1.3-ARM/arm/arm-none-eabi/include/c++/10.3.1/bits/stl_uninitialized.h ****         static void
 182:/Library/DaisyToolchain/0.1.3-ARM/arm/arm-none-eabi/include/c++/10.3.1/bits/stl_uninitialized.h ****         __uninit_fill(_ForwardIterator __first, _ForwardIterator __last,
 183:/Library/DaisyToolchain/0.1.3-ARM/arm/arm-none-eabi/include/c++/10.3.1/bits/stl_uninitialized.h **** 		      const _Tp& __x)
 184:/Library/DaisyToolchain/0.1.3-ARM/arm/arm-none-eabi/include/c++/10.3.1/bits/stl_uninitialized.h ****         { std::fill(__first, __last, __x); }
 185:/Library/DaisyToolchain/0.1.3-ARM/arm/arm-none-eabi/include/c++/10.3.1/bits/stl_uninitialized.h ****     };
 186:/Library/DaisyToolchain/0.1.3-ARM/arm/arm-none-eabi/include/c++/10.3.1/bits/stl_uninitialized.h **** 
 187:/Library/DaisyToolchain/0.1.3-ARM/arm/arm-none-eabi/include/c++/10.3.1/bits/stl_uninitialized.h ****   /// @endcond
 188:/Library/DaisyToolchain/0.1.3-ARM/arm/arm-none-eabi/include/c++/10.3.1/bits/stl_uninitialized.h **** 
 189:/Library/DaisyToolchain/0.1.3-ARM/arm/arm-none-eabi/include/c++/10.3.1/bits/stl_uninitialized.h ****   /**
 190:/Library/DaisyToolchain/0.1.3-ARM/arm/arm-none-eabi/include/c++/10.3.1/bits/stl_uninitialized.h ****    *  @brief Copies the value x into the range [first,last).
 191:/Library/DaisyToolchain/0.1.3-ARM/arm/arm-none-eabi/include/c++/10.3.1/bits/stl_uninitialized.h ****    *  @param  __first  An input iterator.
 192:/Library/DaisyToolchain/0.1.3-ARM/arm/arm-none-eabi/include/c++/10.3.1/bits/stl_uninitialized.h ****    *  @param  __last   An input iterator.
 193:/Library/DaisyToolchain/0.1.3-ARM/arm/arm-none-eabi/include/c++/10.3.1/bits/stl_uninitialized.h ****    *  @param  __x      The source value.
 194:/Library/DaisyToolchain/0.1.3-ARM/arm/arm-none-eabi/include/c++/10.3.1/bits/stl_uninitialized.h ****    *  @return   Nothing.
 195:/Library/DaisyToolchain/0.1.3-ARM/arm/arm-none-eabi/include/c++/10.3.1/bits/stl_uninitialized.h ****    *
 196:/Library/DaisyToolchain/0.1.3-ARM/arm/arm-none-eabi/include/c++/10.3.1/bits/stl_uninitialized.h ****    *  Like fill(), but does not require an initialized output range.
 197:/Library/DaisyToolchain/0.1.3-ARM/arm/arm-none-eabi/include/c++/10.3.1/bits/stl_uninitialized.h ****   */
 198:/Library/DaisyToolchain/0.1.3-ARM/arm/arm-none-eabi/include/c++/10.3.1/bits/stl_uninitialized.h ****   template<typename _ForwardIterator, typename _Tp>
 199:/Library/DaisyToolchain/0.1.3-ARM/arm/arm-none-eabi/include/c++/10.3.1/bits/stl_uninitialized.h ****     inline void
 200:/Library/DaisyToolchain/0.1.3-ARM/arm/arm-none-eabi/include/c++/10.3.1/bits/stl_uninitialized.h ****     uninitialized_fill(_ForwardIterator __first, _ForwardIterator __last,
 201:/Library/DaisyToolchain/0.1.3-ARM/arm/arm-none-eabi/include/c++/10.3.1/bits/stl_uninitialized.h **** 		       const _Tp& __x)
 202:/Library/DaisyToolchain/0.1.3-ARM/arm/arm-none-eabi/include/c++/10.3.1/bits/stl_uninitialized.h ****     {
 203:/Library/DaisyToolchain/0.1.3-ARM/arm/arm-none-eabi/include/c++/10.3.1/bits/stl_uninitialized.h ****       typedef typename iterator_traits<_ForwardIterator>::value_type
 204:/Library/DaisyToolchain/0.1.3-ARM/arm/arm-none-eabi/include/c++/10.3.1/bits/stl_uninitialized.h **** 	_ValueType;
 205:/Library/DaisyToolchain/0.1.3-ARM/arm/arm-none-eabi/include/c++/10.3.1/bits/stl_uninitialized.h **** #if __cplusplus < 201103L
 206:/Library/DaisyToolchain/0.1.3-ARM/arm/arm-none-eabi/include/c++/10.3.1/bits/stl_uninitialized.h ****       const bool __assignable = true;
 207:/Library/DaisyToolchain/0.1.3-ARM/arm/arm-none-eabi/include/c++/10.3.1/bits/stl_uninitialized.h **** #else
 208:/Library/DaisyToolchain/0.1.3-ARM/arm/arm-none-eabi/include/c++/10.3.1/bits/stl_uninitialized.h ****       // Trivial types can have deleted copy constructor, but the std::fill
 209:/Library/DaisyToolchain/0.1.3-ARM/arm/arm-none-eabi/include/c++/10.3.1/bits/stl_uninitialized.h ****       // optimization that uses memmove would happily "copy" them anyway.
 210:/Library/DaisyToolchain/0.1.3-ARM/arm/arm-none-eabi/include/c++/10.3.1/bits/stl_uninitialized.h ****       static_assert(is_constructible<_ValueType, const _Tp&>::value,
 211:/Library/DaisyToolchain/0.1.3-ARM/arm/arm-none-eabi/include/c++/10.3.1/bits/stl_uninitialized.h **** 	  "result type must be constructible from input type");
 212:/Library/DaisyToolchain/0.1.3-ARM/arm/arm-none-eabi/include/c++/10.3.1/bits/stl_uninitialized.h **** 
 213:/Library/DaisyToolchain/0.1.3-ARM/arm/arm-none-eabi/include/c++/10.3.1/bits/stl_uninitialized.h ****       // Trivial types can have deleted assignment, so using std::fill
 214:/Library/DaisyToolchain/0.1.3-ARM/arm/arm-none-eabi/include/c++/10.3.1/bits/stl_uninitialized.h ****       // would be ill-formed. Require assignability before using std::fill:
 215:/Library/DaisyToolchain/0.1.3-ARM/arm/arm-none-eabi/include/c++/10.3.1/bits/stl_uninitialized.h ****       const bool __assignable = is_copy_assignable<_ValueType>::value;
 216:/Library/DaisyToolchain/0.1.3-ARM/arm/arm-none-eabi/include/c++/10.3.1/bits/stl_uninitialized.h **** #endif
 217:/Library/DaisyToolchain/0.1.3-ARM/arm/arm-none-eabi/include/c++/10.3.1/bits/stl_uninitialized.h **** 
 218:/Library/DaisyToolchain/0.1.3-ARM/arm/arm-none-eabi/include/c++/10.3.1/bits/stl_uninitialized.h ****       std::__uninitialized_fill<__is_trivial(_ValueType) && __assignable>::
 219:/Library/DaisyToolchain/0.1.3-ARM/arm/arm-none-eabi/include/c++/10.3.1/bits/stl_uninitialized.h **** 	__uninit_fill(__first, __last, __x);
 220:/Library/DaisyToolchain/0.1.3-ARM/arm/arm-none-eabi/include/c++/10.3.1/bits/stl_uninitialized.h ****     }
 221:/Library/DaisyToolchain/0.1.3-ARM/arm/arm-none-eabi/include/c++/10.3.1/bits/stl_uninitialized.h **** 
 222:/Library/DaisyToolchain/0.1.3-ARM/arm/arm-none-eabi/include/c++/10.3.1/bits/stl_uninitialized.h ****   /// @cond undocumented
 223:/Library/DaisyToolchain/0.1.3-ARM/arm/arm-none-eabi/include/c++/10.3.1/bits/stl_uninitialized.h **** 
 224:/Library/DaisyToolchain/0.1.3-ARM/arm/arm-none-eabi/include/c++/10.3.1/bits/stl_uninitialized.h ****   template<bool _TrivialValueType>
 225:/Library/DaisyToolchain/0.1.3-ARM/arm/arm-none-eabi/include/c++/10.3.1/bits/stl_uninitialized.h ****     struct __uninitialized_fill_n
 226:/Library/DaisyToolchain/0.1.3-ARM/arm/arm-none-eabi/include/c++/10.3.1/bits/stl_uninitialized.h ****     {
 227:/Library/DaisyToolchain/0.1.3-ARM/arm/arm-none-eabi/include/c++/10.3.1/bits/stl_uninitialized.h ****       template<typename _ForwardIterator, typename _Size, typename _Tp>
ARM GAS  /var/folders/xd/16jvbr6j24q9nvtpm0qtw3240000gn/T//cch9jPA2.s 			page 136


 228:/Library/DaisyToolchain/0.1.3-ARM/arm/arm-none-eabi/include/c++/10.3.1/bits/stl_uninitialized.h ****         static _ForwardIterator
 229:/Library/DaisyToolchain/0.1.3-ARM/arm/arm-none-eabi/include/c++/10.3.1/bits/stl_uninitialized.h ****         __uninit_fill_n(_ForwardIterator __first, _Size __n,
 230:/Library/DaisyToolchain/0.1.3-ARM/arm/arm-none-eabi/include/c++/10.3.1/bits/stl_uninitialized.h **** 			const _Tp& __x)
 231:/Library/DaisyToolchain/0.1.3-ARM/arm/arm-none-eabi/include/c++/10.3.1/bits/stl_uninitialized.h ****         {
 232:/Library/DaisyToolchain/0.1.3-ARM/arm/arm-none-eabi/include/c++/10.3.1/bits/stl_uninitialized.h **** 	  _ForwardIterator __cur = __first;
 233:/Library/DaisyToolchain/0.1.3-ARM/arm/arm-none-eabi/include/c++/10.3.1/bits/stl_uninitialized.h **** 	  __try
 234:/Library/DaisyToolchain/0.1.3-ARM/arm/arm-none-eabi/include/c++/10.3.1/bits/stl_uninitialized.h **** 	    {
 235:/Library/DaisyToolchain/0.1.3-ARM/arm/arm-none-eabi/include/c++/10.3.1/bits/stl_uninitialized.h **** 	      for (; __n > 0; --__n, (void) ++__cur)
 236:/Library/DaisyToolchain/0.1.3-ARM/arm/arm-none-eabi/include/c++/10.3.1/bits/stl_uninitialized.h **** 		std::_Construct(std::__addressof(*__cur), __x);
 237:/Library/DaisyToolchain/0.1.3-ARM/arm/arm-none-eabi/include/c++/10.3.1/bits/stl_uninitialized.h **** 	      return __cur;
 238:/Library/DaisyToolchain/0.1.3-ARM/arm/arm-none-eabi/include/c++/10.3.1/bits/stl_uninitialized.h **** 	    }
 239:/Library/DaisyToolchain/0.1.3-ARM/arm/arm-none-eabi/include/c++/10.3.1/bits/stl_uninitialized.h **** 	  __catch(...)
 240:/Library/DaisyToolchain/0.1.3-ARM/arm/arm-none-eabi/include/c++/10.3.1/bits/stl_uninitialized.h **** 	    {
 241:/Library/DaisyToolchain/0.1.3-ARM/arm/arm-none-eabi/include/c++/10.3.1/bits/stl_uninitialized.h **** 	      std::_Destroy(__first, __cur);
 242:/Library/DaisyToolchain/0.1.3-ARM/arm/arm-none-eabi/include/c++/10.3.1/bits/stl_uninitialized.h **** 	      __throw_exception_again;
 243:/Library/DaisyToolchain/0.1.3-ARM/arm/arm-none-eabi/include/c++/10.3.1/bits/stl_uninitialized.h **** 	    }
 244:/Library/DaisyToolchain/0.1.3-ARM/arm/arm-none-eabi/include/c++/10.3.1/bits/stl_uninitialized.h **** 	}
 245:/Library/DaisyToolchain/0.1.3-ARM/arm/arm-none-eabi/include/c++/10.3.1/bits/stl_uninitialized.h ****     };
 246:/Library/DaisyToolchain/0.1.3-ARM/arm/arm-none-eabi/include/c++/10.3.1/bits/stl_uninitialized.h **** 
 247:/Library/DaisyToolchain/0.1.3-ARM/arm/arm-none-eabi/include/c++/10.3.1/bits/stl_uninitialized.h ****   template<>
 248:/Library/DaisyToolchain/0.1.3-ARM/arm/arm-none-eabi/include/c++/10.3.1/bits/stl_uninitialized.h ****     struct __uninitialized_fill_n<true>
 249:/Library/DaisyToolchain/0.1.3-ARM/arm/arm-none-eabi/include/c++/10.3.1/bits/stl_uninitialized.h ****     {
 250:/Library/DaisyToolchain/0.1.3-ARM/arm/arm-none-eabi/include/c++/10.3.1/bits/stl_uninitialized.h ****       template<typename _ForwardIterator, typename _Size, typename _Tp>
 251:/Library/DaisyToolchain/0.1.3-ARM/arm/arm-none-eabi/include/c++/10.3.1/bits/stl_uninitialized.h ****         static _ForwardIterator
 252:/Library/DaisyToolchain/0.1.3-ARM/arm/arm-none-eabi/include/c++/10.3.1/bits/stl_uninitialized.h ****         __uninit_fill_n(_ForwardIterator __first, _Size __n,
 253:/Library/DaisyToolchain/0.1.3-ARM/arm/arm-none-eabi/include/c++/10.3.1/bits/stl_uninitialized.h **** 			const _Tp& __x)
 254:/Library/DaisyToolchain/0.1.3-ARM/arm/arm-none-eabi/include/c++/10.3.1/bits/stl_uninitialized.h ****         { return std::fill_n(__first, __n, __x); }
 255:/Library/DaisyToolchain/0.1.3-ARM/arm/arm-none-eabi/include/c++/10.3.1/bits/stl_uninitialized.h ****     };
 256:/Library/DaisyToolchain/0.1.3-ARM/arm/arm-none-eabi/include/c++/10.3.1/bits/stl_uninitialized.h **** 
 257:/Library/DaisyToolchain/0.1.3-ARM/arm/arm-none-eabi/include/c++/10.3.1/bits/stl_uninitialized.h ****   /// @endcond
 258:/Library/DaisyToolchain/0.1.3-ARM/arm/arm-none-eabi/include/c++/10.3.1/bits/stl_uninitialized.h **** 
 259:/Library/DaisyToolchain/0.1.3-ARM/arm/arm-none-eabi/include/c++/10.3.1/bits/stl_uninitialized.h ****    // _GLIBCXX_RESOLVE_LIB_DEFECTS
 260:/Library/DaisyToolchain/0.1.3-ARM/arm/arm-none-eabi/include/c++/10.3.1/bits/stl_uninitialized.h ****    // DR 1339. uninitialized_fill_n should return the end of its range
 261:/Library/DaisyToolchain/0.1.3-ARM/arm/arm-none-eabi/include/c++/10.3.1/bits/stl_uninitialized.h ****   /**
 262:/Library/DaisyToolchain/0.1.3-ARM/arm/arm-none-eabi/include/c++/10.3.1/bits/stl_uninitialized.h ****    *  @brief Copies the value x into the range [first,first+n).
 263:/Library/DaisyToolchain/0.1.3-ARM/arm/arm-none-eabi/include/c++/10.3.1/bits/stl_uninitialized.h ****    *  @param  __first  An input iterator.
 264:/Library/DaisyToolchain/0.1.3-ARM/arm/arm-none-eabi/include/c++/10.3.1/bits/stl_uninitialized.h ****    *  @param  __n      The number of copies to make.
 265:/Library/DaisyToolchain/0.1.3-ARM/arm/arm-none-eabi/include/c++/10.3.1/bits/stl_uninitialized.h ****    *  @param  __x      The source value.
 266:/Library/DaisyToolchain/0.1.3-ARM/arm/arm-none-eabi/include/c++/10.3.1/bits/stl_uninitialized.h ****    *  @return   Nothing.
 267:/Library/DaisyToolchain/0.1.3-ARM/arm/arm-none-eabi/include/c++/10.3.1/bits/stl_uninitialized.h ****    *
 268:/Library/DaisyToolchain/0.1.3-ARM/arm/arm-none-eabi/include/c++/10.3.1/bits/stl_uninitialized.h ****    *  Like fill_n(), but does not require an initialized output range.
 269:/Library/DaisyToolchain/0.1.3-ARM/arm/arm-none-eabi/include/c++/10.3.1/bits/stl_uninitialized.h ****   */
 270:/Library/DaisyToolchain/0.1.3-ARM/arm/arm-none-eabi/include/c++/10.3.1/bits/stl_uninitialized.h ****   template<typename _ForwardIterator, typename _Size, typename _Tp>
 271:/Library/DaisyToolchain/0.1.3-ARM/arm/arm-none-eabi/include/c++/10.3.1/bits/stl_uninitialized.h ****     inline _ForwardIterator
 272:/Library/DaisyToolchain/0.1.3-ARM/arm/arm-none-eabi/include/c++/10.3.1/bits/stl_uninitialized.h ****     uninitialized_fill_n(_ForwardIterator __first, _Size __n, const _Tp& __x)
 273:/Library/DaisyToolchain/0.1.3-ARM/arm/arm-none-eabi/include/c++/10.3.1/bits/stl_uninitialized.h ****     {
 274:/Library/DaisyToolchain/0.1.3-ARM/arm/arm-none-eabi/include/c++/10.3.1/bits/stl_uninitialized.h ****       typedef typename iterator_traits<_ForwardIterator>::value_type
 275:/Library/DaisyToolchain/0.1.3-ARM/arm/arm-none-eabi/include/c++/10.3.1/bits/stl_uninitialized.h **** 	_ValueType;
 276:/Library/DaisyToolchain/0.1.3-ARM/arm/arm-none-eabi/include/c++/10.3.1/bits/stl_uninitialized.h **** #if __cplusplus < 201103L
 277:/Library/DaisyToolchain/0.1.3-ARM/arm/arm-none-eabi/include/c++/10.3.1/bits/stl_uninitialized.h ****       const bool __assignable = true;
 278:/Library/DaisyToolchain/0.1.3-ARM/arm/arm-none-eabi/include/c++/10.3.1/bits/stl_uninitialized.h **** #else
 279:/Library/DaisyToolchain/0.1.3-ARM/arm/arm-none-eabi/include/c++/10.3.1/bits/stl_uninitialized.h ****       // Trivial types can have deleted copy constructor, but the std::fill
 280:/Library/DaisyToolchain/0.1.3-ARM/arm/arm-none-eabi/include/c++/10.3.1/bits/stl_uninitialized.h ****       // optimization that uses memmove would happily "copy" them anyway.
 281:/Library/DaisyToolchain/0.1.3-ARM/arm/arm-none-eabi/include/c++/10.3.1/bits/stl_uninitialized.h ****       static_assert(is_constructible<_ValueType, const _Tp&>::value,
 282:/Library/DaisyToolchain/0.1.3-ARM/arm/arm-none-eabi/include/c++/10.3.1/bits/stl_uninitialized.h **** 	  "result type must be constructible from input type");
 283:/Library/DaisyToolchain/0.1.3-ARM/arm/arm-none-eabi/include/c++/10.3.1/bits/stl_uninitialized.h **** 
 284:/Library/DaisyToolchain/0.1.3-ARM/arm/arm-none-eabi/include/c++/10.3.1/bits/stl_uninitialized.h ****       // Trivial types can have deleted assignment, so using std::fill
ARM GAS  /var/folders/xd/16jvbr6j24q9nvtpm0qtw3240000gn/T//cch9jPA2.s 			page 137


 285:/Library/DaisyToolchain/0.1.3-ARM/arm/arm-none-eabi/include/c++/10.3.1/bits/stl_uninitialized.h ****       // would be ill-formed. Require assignability before using std::fill:
 286:/Library/DaisyToolchain/0.1.3-ARM/arm/arm-none-eabi/include/c++/10.3.1/bits/stl_uninitialized.h ****       const bool __assignable = is_copy_assignable<_ValueType>::value;
 287:/Library/DaisyToolchain/0.1.3-ARM/arm/arm-none-eabi/include/c++/10.3.1/bits/stl_uninitialized.h **** #endif
 288:/Library/DaisyToolchain/0.1.3-ARM/arm/arm-none-eabi/include/c++/10.3.1/bits/stl_uninitialized.h ****       return __uninitialized_fill_n<__is_trivial(_ValueType) && __assignable>::
 289:/Library/DaisyToolchain/0.1.3-ARM/arm/arm-none-eabi/include/c++/10.3.1/bits/stl_uninitialized.h **** 	__uninit_fill_n(__first, __n, __x);
 290:/Library/DaisyToolchain/0.1.3-ARM/arm/arm-none-eabi/include/c++/10.3.1/bits/stl_uninitialized.h ****     }
 291:/Library/DaisyToolchain/0.1.3-ARM/arm/arm-none-eabi/include/c++/10.3.1/bits/stl_uninitialized.h **** 
 292:/Library/DaisyToolchain/0.1.3-ARM/arm/arm-none-eabi/include/c++/10.3.1/bits/stl_uninitialized.h ****   /// @cond undocumented
 293:/Library/DaisyToolchain/0.1.3-ARM/arm/arm-none-eabi/include/c++/10.3.1/bits/stl_uninitialized.h **** 
 294:/Library/DaisyToolchain/0.1.3-ARM/arm/arm-none-eabi/include/c++/10.3.1/bits/stl_uninitialized.h ****   // Extensions: versions of uninitialized_copy, uninitialized_fill,
 295:/Library/DaisyToolchain/0.1.3-ARM/arm/arm-none-eabi/include/c++/10.3.1/bits/stl_uninitialized.h ****   //  and uninitialized_fill_n that take an allocator parameter.
 296:/Library/DaisyToolchain/0.1.3-ARM/arm/arm-none-eabi/include/c++/10.3.1/bits/stl_uninitialized.h ****   //  We dispatch back to the standard versions when we're given the
 297:/Library/DaisyToolchain/0.1.3-ARM/arm/arm-none-eabi/include/c++/10.3.1/bits/stl_uninitialized.h ****   //  default allocator.  For nondefault allocators we do not use 
 298:/Library/DaisyToolchain/0.1.3-ARM/arm/arm-none-eabi/include/c++/10.3.1/bits/stl_uninitialized.h ****   //  any of the POD optimizations.
 299:/Library/DaisyToolchain/0.1.3-ARM/arm/arm-none-eabi/include/c++/10.3.1/bits/stl_uninitialized.h **** 
 300:/Library/DaisyToolchain/0.1.3-ARM/arm/arm-none-eabi/include/c++/10.3.1/bits/stl_uninitialized.h ****   template<typename _InputIterator, typename _ForwardIterator,
 301:/Library/DaisyToolchain/0.1.3-ARM/arm/arm-none-eabi/include/c++/10.3.1/bits/stl_uninitialized.h **** 	   typename _Allocator>
 302:/Library/DaisyToolchain/0.1.3-ARM/arm/arm-none-eabi/include/c++/10.3.1/bits/stl_uninitialized.h ****     _ForwardIterator
 303:/Library/DaisyToolchain/0.1.3-ARM/arm/arm-none-eabi/include/c++/10.3.1/bits/stl_uninitialized.h ****     __uninitialized_copy_a(_InputIterator __first, _InputIterator __last,
 304:/Library/DaisyToolchain/0.1.3-ARM/arm/arm-none-eabi/include/c++/10.3.1/bits/stl_uninitialized.h **** 			   _ForwardIterator __result, _Allocator& __alloc)
 305:/Library/DaisyToolchain/0.1.3-ARM/arm/arm-none-eabi/include/c++/10.3.1/bits/stl_uninitialized.h ****     {
 306:/Library/DaisyToolchain/0.1.3-ARM/arm/arm-none-eabi/include/c++/10.3.1/bits/stl_uninitialized.h ****       _ForwardIterator __cur = __result;
 307:/Library/DaisyToolchain/0.1.3-ARM/arm/arm-none-eabi/include/c++/10.3.1/bits/stl_uninitialized.h ****       __try
 308:/Library/DaisyToolchain/0.1.3-ARM/arm/arm-none-eabi/include/c++/10.3.1/bits/stl_uninitialized.h **** 	{
 309:/Library/DaisyToolchain/0.1.3-ARM/arm/arm-none-eabi/include/c++/10.3.1/bits/stl_uninitialized.h **** 	  typedef __gnu_cxx::__alloc_traits<_Allocator> __traits;
 310:/Library/DaisyToolchain/0.1.3-ARM/arm/arm-none-eabi/include/c++/10.3.1/bits/stl_uninitialized.h **** 	  for (; __first != __last; ++__first, (void)++__cur)
 311:/Library/DaisyToolchain/0.1.3-ARM/arm/arm-none-eabi/include/c++/10.3.1/bits/stl_uninitialized.h **** 	    __traits::construct(__alloc, std::__addressof(*__cur), *__first);
 312:/Library/DaisyToolchain/0.1.3-ARM/arm/arm-none-eabi/include/c++/10.3.1/bits/stl_uninitialized.h **** 	  return __cur;
 313:/Library/DaisyToolchain/0.1.3-ARM/arm/arm-none-eabi/include/c++/10.3.1/bits/stl_uninitialized.h **** 	}
 314:/Library/DaisyToolchain/0.1.3-ARM/arm/arm-none-eabi/include/c++/10.3.1/bits/stl_uninitialized.h ****       __catch(...)
 315:/Library/DaisyToolchain/0.1.3-ARM/arm/arm-none-eabi/include/c++/10.3.1/bits/stl_uninitialized.h **** 	{
 316:/Library/DaisyToolchain/0.1.3-ARM/arm/arm-none-eabi/include/c++/10.3.1/bits/stl_uninitialized.h **** 	  std::_Destroy(__result, __cur, __alloc);
 317:/Library/DaisyToolchain/0.1.3-ARM/arm/arm-none-eabi/include/c++/10.3.1/bits/stl_uninitialized.h **** 	  __throw_exception_again;
 318:/Library/DaisyToolchain/0.1.3-ARM/arm/arm-none-eabi/include/c++/10.3.1/bits/stl_uninitialized.h **** 	}
 319:/Library/DaisyToolchain/0.1.3-ARM/arm/arm-none-eabi/include/c++/10.3.1/bits/stl_uninitialized.h ****     }
 320:/Library/DaisyToolchain/0.1.3-ARM/arm/arm-none-eabi/include/c++/10.3.1/bits/stl_uninitialized.h **** 
 321:/Library/DaisyToolchain/0.1.3-ARM/arm/arm-none-eabi/include/c++/10.3.1/bits/stl_uninitialized.h ****   template<typename _InputIterator, typename _ForwardIterator, typename _Tp>
 322:/Library/DaisyToolchain/0.1.3-ARM/arm/arm-none-eabi/include/c++/10.3.1/bits/stl_uninitialized.h ****     inline _ForwardIterator
 323:/Library/DaisyToolchain/0.1.3-ARM/arm/arm-none-eabi/include/c++/10.3.1/bits/stl_uninitialized.h ****     __uninitialized_copy_a(_InputIterator __first, _InputIterator __last,
 324:/Library/DaisyToolchain/0.1.3-ARM/arm/arm-none-eabi/include/c++/10.3.1/bits/stl_uninitialized.h **** 			   _ForwardIterator __result, allocator<_Tp>&)
 325:/Library/DaisyToolchain/0.1.3-ARM/arm/arm-none-eabi/include/c++/10.3.1/bits/stl_uninitialized.h ****     { return std::uninitialized_copy(__first, __last, __result); }
 326:/Library/DaisyToolchain/0.1.3-ARM/arm/arm-none-eabi/include/c++/10.3.1/bits/stl_uninitialized.h **** 
 327:/Library/DaisyToolchain/0.1.3-ARM/arm/arm-none-eabi/include/c++/10.3.1/bits/stl_uninitialized.h ****   template<typename _InputIterator, typename _ForwardIterator,
 328:/Library/DaisyToolchain/0.1.3-ARM/arm/arm-none-eabi/include/c++/10.3.1/bits/stl_uninitialized.h **** 	   typename _Allocator>
 329:/Library/DaisyToolchain/0.1.3-ARM/arm/arm-none-eabi/include/c++/10.3.1/bits/stl_uninitialized.h ****     inline _ForwardIterator
 330:/Library/DaisyToolchain/0.1.3-ARM/arm/arm-none-eabi/include/c++/10.3.1/bits/stl_uninitialized.h ****     __uninitialized_move_a(_InputIterator __first, _InputIterator __last,
 331:/Library/DaisyToolchain/0.1.3-ARM/arm/arm-none-eabi/include/c++/10.3.1/bits/stl_uninitialized.h **** 			   _ForwardIterator __result, _Allocator& __alloc)
 332:/Library/DaisyToolchain/0.1.3-ARM/arm/arm-none-eabi/include/c++/10.3.1/bits/stl_uninitialized.h ****     {
 333:/Library/DaisyToolchain/0.1.3-ARM/arm/arm-none-eabi/include/c++/10.3.1/bits/stl_uninitialized.h ****       return std::__uninitialized_copy_a(_GLIBCXX_MAKE_MOVE_ITERATOR(__first),
 334:/Library/DaisyToolchain/0.1.3-ARM/arm/arm-none-eabi/include/c++/10.3.1/bits/stl_uninitialized.h **** 					 _GLIBCXX_MAKE_MOVE_ITERATOR(__last),
 335:/Library/DaisyToolchain/0.1.3-ARM/arm/arm-none-eabi/include/c++/10.3.1/bits/stl_uninitialized.h **** 					 __result, __alloc);
 336:/Library/DaisyToolchain/0.1.3-ARM/arm/arm-none-eabi/include/c++/10.3.1/bits/stl_uninitialized.h ****     }
 337:/Library/DaisyToolchain/0.1.3-ARM/arm/arm-none-eabi/include/c++/10.3.1/bits/stl_uninitialized.h **** 
 338:/Library/DaisyToolchain/0.1.3-ARM/arm/arm-none-eabi/include/c++/10.3.1/bits/stl_uninitialized.h ****   template<typename _InputIterator, typename _ForwardIterator,
 339:/Library/DaisyToolchain/0.1.3-ARM/arm/arm-none-eabi/include/c++/10.3.1/bits/stl_uninitialized.h **** 	   typename _Allocator>
 340:/Library/DaisyToolchain/0.1.3-ARM/arm/arm-none-eabi/include/c++/10.3.1/bits/stl_uninitialized.h ****     inline _ForwardIterator
 341:/Library/DaisyToolchain/0.1.3-ARM/arm/arm-none-eabi/include/c++/10.3.1/bits/stl_uninitialized.h ****     __uninitialized_move_if_noexcept_a(_InputIterator __first,
ARM GAS  /var/folders/xd/16jvbr6j24q9nvtpm0qtw3240000gn/T//cch9jPA2.s 			page 138


 342:/Library/DaisyToolchain/0.1.3-ARM/arm/arm-none-eabi/include/c++/10.3.1/bits/stl_uninitialized.h **** 				       _InputIterator __last,
 343:/Library/DaisyToolchain/0.1.3-ARM/arm/arm-none-eabi/include/c++/10.3.1/bits/stl_uninitialized.h **** 				       _ForwardIterator __result,
 344:/Library/DaisyToolchain/0.1.3-ARM/arm/arm-none-eabi/include/c++/10.3.1/bits/stl_uninitialized.h **** 				       _Allocator& __alloc)
 345:/Library/DaisyToolchain/0.1.3-ARM/arm/arm-none-eabi/include/c++/10.3.1/bits/stl_uninitialized.h ****     {
 346:/Library/DaisyToolchain/0.1.3-ARM/arm/arm-none-eabi/include/c++/10.3.1/bits/stl_uninitialized.h ****       return std::__uninitialized_copy_a
 347:/Library/DaisyToolchain/0.1.3-ARM/arm/arm-none-eabi/include/c++/10.3.1/bits/stl_uninitialized.h **** 	(_GLIBCXX_MAKE_MOVE_IF_NOEXCEPT_ITERATOR(__first),
 348:/Library/DaisyToolchain/0.1.3-ARM/arm/arm-none-eabi/include/c++/10.3.1/bits/stl_uninitialized.h **** 	 _GLIBCXX_MAKE_MOVE_IF_NOEXCEPT_ITERATOR(__last), __result, __alloc);
 349:/Library/DaisyToolchain/0.1.3-ARM/arm/arm-none-eabi/include/c++/10.3.1/bits/stl_uninitialized.h ****     }
 350:/Library/DaisyToolchain/0.1.3-ARM/arm/arm-none-eabi/include/c++/10.3.1/bits/stl_uninitialized.h **** 
 351:/Library/DaisyToolchain/0.1.3-ARM/arm/arm-none-eabi/include/c++/10.3.1/bits/stl_uninitialized.h ****   template<typename _ForwardIterator, typename _Tp, typename _Allocator>
 352:/Library/DaisyToolchain/0.1.3-ARM/arm/arm-none-eabi/include/c++/10.3.1/bits/stl_uninitialized.h ****     void
 353:/Library/DaisyToolchain/0.1.3-ARM/arm/arm-none-eabi/include/c++/10.3.1/bits/stl_uninitialized.h ****     __uninitialized_fill_a(_ForwardIterator __first, _ForwardIterator __last,
 354:/Library/DaisyToolchain/0.1.3-ARM/arm/arm-none-eabi/include/c++/10.3.1/bits/stl_uninitialized.h **** 			   const _Tp& __x, _Allocator& __alloc)
 355:/Library/DaisyToolchain/0.1.3-ARM/arm/arm-none-eabi/include/c++/10.3.1/bits/stl_uninitialized.h ****     {
 356:/Library/DaisyToolchain/0.1.3-ARM/arm/arm-none-eabi/include/c++/10.3.1/bits/stl_uninitialized.h ****       _ForwardIterator __cur = __first;
 357:/Library/DaisyToolchain/0.1.3-ARM/arm/arm-none-eabi/include/c++/10.3.1/bits/stl_uninitialized.h ****       __try
 358:/Library/DaisyToolchain/0.1.3-ARM/arm/arm-none-eabi/include/c++/10.3.1/bits/stl_uninitialized.h **** 	{
 359:/Library/DaisyToolchain/0.1.3-ARM/arm/arm-none-eabi/include/c++/10.3.1/bits/stl_uninitialized.h **** 	  typedef __gnu_cxx::__alloc_traits<_Allocator> __traits;
 360:/Library/DaisyToolchain/0.1.3-ARM/arm/arm-none-eabi/include/c++/10.3.1/bits/stl_uninitialized.h **** 	  for (; __cur != __last; ++__cur)
 361:/Library/DaisyToolchain/0.1.3-ARM/arm/arm-none-eabi/include/c++/10.3.1/bits/stl_uninitialized.h **** 	    __traits::construct(__alloc, std::__addressof(*__cur), __x);
 362:/Library/DaisyToolchain/0.1.3-ARM/arm/arm-none-eabi/include/c++/10.3.1/bits/stl_uninitialized.h **** 	}
 363:/Library/DaisyToolchain/0.1.3-ARM/arm/arm-none-eabi/include/c++/10.3.1/bits/stl_uninitialized.h ****       __catch(...)
 364:/Library/DaisyToolchain/0.1.3-ARM/arm/arm-none-eabi/include/c++/10.3.1/bits/stl_uninitialized.h **** 	{
 365:/Library/DaisyToolchain/0.1.3-ARM/arm/arm-none-eabi/include/c++/10.3.1/bits/stl_uninitialized.h **** 	  std::_Destroy(__first, __cur, __alloc);
 366:/Library/DaisyToolchain/0.1.3-ARM/arm/arm-none-eabi/include/c++/10.3.1/bits/stl_uninitialized.h **** 	  __throw_exception_again;
 367:/Library/DaisyToolchain/0.1.3-ARM/arm/arm-none-eabi/include/c++/10.3.1/bits/stl_uninitialized.h **** 	}
 368:/Library/DaisyToolchain/0.1.3-ARM/arm/arm-none-eabi/include/c++/10.3.1/bits/stl_uninitialized.h ****     }
 369:/Library/DaisyToolchain/0.1.3-ARM/arm/arm-none-eabi/include/c++/10.3.1/bits/stl_uninitialized.h **** 
 370:/Library/DaisyToolchain/0.1.3-ARM/arm/arm-none-eabi/include/c++/10.3.1/bits/stl_uninitialized.h ****   template<typename _ForwardIterator, typename _Tp, typename _Tp2>
 371:/Library/DaisyToolchain/0.1.3-ARM/arm/arm-none-eabi/include/c++/10.3.1/bits/stl_uninitialized.h ****     inline void
 372:/Library/DaisyToolchain/0.1.3-ARM/arm/arm-none-eabi/include/c++/10.3.1/bits/stl_uninitialized.h ****     __uninitialized_fill_a(_ForwardIterator __first, _ForwardIterator __last,
 373:/Library/DaisyToolchain/0.1.3-ARM/arm/arm-none-eabi/include/c++/10.3.1/bits/stl_uninitialized.h **** 			   const _Tp& __x, allocator<_Tp2>&)
 374:/Library/DaisyToolchain/0.1.3-ARM/arm/arm-none-eabi/include/c++/10.3.1/bits/stl_uninitialized.h ****     { std::uninitialized_fill(__first, __last, __x); }
 375:/Library/DaisyToolchain/0.1.3-ARM/arm/arm-none-eabi/include/c++/10.3.1/bits/stl_uninitialized.h **** 
 376:/Library/DaisyToolchain/0.1.3-ARM/arm/arm-none-eabi/include/c++/10.3.1/bits/stl_uninitialized.h ****   template<typename _ForwardIterator, typename _Size, typename _Tp,
 377:/Library/DaisyToolchain/0.1.3-ARM/arm/arm-none-eabi/include/c++/10.3.1/bits/stl_uninitialized.h **** 	   typename _Allocator>
 378:/Library/DaisyToolchain/0.1.3-ARM/arm/arm-none-eabi/include/c++/10.3.1/bits/stl_uninitialized.h ****     _ForwardIterator
 379:/Library/DaisyToolchain/0.1.3-ARM/arm/arm-none-eabi/include/c++/10.3.1/bits/stl_uninitialized.h ****     __uninitialized_fill_n_a(_ForwardIterator __first, _Size __n, 
 380:/Library/DaisyToolchain/0.1.3-ARM/arm/arm-none-eabi/include/c++/10.3.1/bits/stl_uninitialized.h **** 			     const _Tp& __x, _Allocator& __alloc)
 381:/Library/DaisyToolchain/0.1.3-ARM/arm/arm-none-eabi/include/c++/10.3.1/bits/stl_uninitialized.h ****     {
 382:/Library/DaisyToolchain/0.1.3-ARM/arm/arm-none-eabi/include/c++/10.3.1/bits/stl_uninitialized.h ****       _ForwardIterator __cur = __first;
 383:/Library/DaisyToolchain/0.1.3-ARM/arm/arm-none-eabi/include/c++/10.3.1/bits/stl_uninitialized.h ****       __try
 384:/Library/DaisyToolchain/0.1.3-ARM/arm/arm-none-eabi/include/c++/10.3.1/bits/stl_uninitialized.h **** 	{
 385:/Library/DaisyToolchain/0.1.3-ARM/arm/arm-none-eabi/include/c++/10.3.1/bits/stl_uninitialized.h **** 	  typedef __gnu_cxx::__alloc_traits<_Allocator> __traits;
 386:/Library/DaisyToolchain/0.1.3-ARM/arm/arm-none-eabi/include/c++/10.3.1/bits/stl_uninitialized.h **** 	  for (; __n > 0; --__n, (void) ++__cur)
 387:/Library/DaisyToolchain/0.1.3-ARM/arm/arm-none-eabi/include/c++/10.3.1/bits/stl_uninitialized.h **** 	    __traits::construct(__alloc, std::__addressof(*__cur), __x);
 388:/Library/DaisyToolchain/0.1.3-ARM/arm/arm-none-eabi/include/c++/10.3.1/bits/stl_uninitialized.h **** 	  return __cur;
 389:/Library/DaisyToolchain/0.1.3-ARM/arm/arm-none-eabi/include/c++/10.3.1/bits/stl_uninitialized.h **** 	}
 390:/Library/DaisyToolchain/0.1.3-ARM/arm/arm-none-eabi/include/c++/10.3.1/bits/stl_uninitialized.h ****       __catch(...)
 391:/Library/DaisyToolchain/0.1.3-ARM/arm/arm-none-eabi/include/c++/10.3.1/bits/stl_uninitialized.h **** 	{
 392:/Library/DaisyToolchain/0.1.3-ARM/arm/arm-none-eabi/include/c++/10.3.1/bits/stl_uninitialized.h **** 	  std::_Destroy(__first, __cur, __alloc);
 393:/Library/DaisyToolchain/0.1.3-ARM/arm/arm-none-eabi/include/c++/10.3.1/bits/stl_uninitialized.h **** 	  __throw_exception_again;
 394:/Library/DaisyToolchain/0.1.3-ARM/arm/arm-none-eabi/include/c++/10.3.1/bits/stl_uninitialized.h **** 	}
 395:/Library/DaisyToolchain/0.1.3-ARM/arm/arm-none-eabi/include/c++/10.3.1/bits/stl_uninitialized.h ****     }
 396:/Library/DaisyToolchain/0.1.3-ARM/arm/arm-none-eabi/include/c++/10.3.1/bits/stl_uninitialized.h **** 
 397:/Library/DaisyToolchain/0.1.3-ARM/arm/arm-none-eabi/include/c++/10.3.1/bits/stl_uninitialized.h ****   template<typename _ForwardIterator, typename _Size, typename _Tp,
 398:/Library/DaisyToolchain/0.1.3-ARM/arm/arm-none-eabi/include/c++/10.3.1/bits/stl_uninitialized.h **** 	   typename _Tp2>
ARM GAS  /var/folders/xd/16jvbr6j24q9nvtpm0qtw3240000gn/T//cch9jPA2.s 			page 139


 399:/Library/DaisyToolchain/0.1.3-ARM/arm/arm-none-eabi/include/c++/10.3.1/bits/stl_uninitialized.h ****     inline _ForwardIterator
 400:/Library/DaisyToolchain/0.1.3-ARM/arm/arm-none-eabi/include/c++/10.3.1/bits/stl_uninitialized.h ****     __uninitialized_fill_n_a(_ForwardIterator __first, _Size __n, 
 401:/Library/DaisyToolchain/0.1.3-ARM/arm/arm-none-eabi/include/c++/10.3.1/bits/stl_uninitialized.h **** 			     const _Tp& __x, allocator<_Tp2>&)
 402:/Library/DaisyToolchain/0.1.3-ARM/arm/arm-none-eabi/include/c++/10.3.1/bits/stl_uninitialized.h ****     { return std::uninitialized_fill_n(__first, __n, __x); }
 403:/Library/DaisyToolchain/0.1.3-ARM/arm/arm-none-eabi/include/c++/10.3.1/bits/stl_uninitialized.h **** 
 404:/Library/DaisyToolchain/0.1.3-ARM/arm/arm-none-eabi/include/c++/10.3.1/bits/stl_uninitialized.h **** 
 405:/Library/DaisyToolchain/0.1.3-ARM/arm/arm-none-eabi/include/c++/10.3.1/bits/stl_uninitialized.h ****   // Extensions: __uninitialized_copy_move, __uninitialized_move_copy,
 406:/Library/DaisyToolchain/0.1.3-ARM/arm/arm-none-eabi/include/c++/10.3.1/bits/stl_uninitialized.h ****   // __uninitialized_fill_move, __uninitialized_move_fill.
 407:/Library/DaisyToolchain/0.1.3-ARM/arm/arm-none-eabi/include/c++/10.3.1/bits/stl_uninitialized.h ****   // All of these algorithms take a user-supplied allocator, which is used
 408:/Library/DaisyToolchain/0.1.3-ARM/arm/arm-none-eabi/include/c++/10.3.1/bits/stl_uninitialized.h ****   // for construction and destruction.
 409:/Library/DaisyToolchain/0.1.3-ARM/arm/arm-none-eabi/include/c++/10.3.1/bits/stl_uninitialized.h **** 
 410:/Library/DaisyToolchain/0.1.3-ARM/arm/arm-none-eabi/include/c++/10.3.1/bits/stl_uninitialized.h ****   // __uninitialized_copy_move
 411:/Library/DaisyToolchain/0.1.3-ARM/arm/arm-none-eabi/include/c++/10.3.1/bits/stl_uninitialized.h ****   // Copies [first1, last1) into [result, result + (last1 - first1)), and
 412:/Library/DaisyToolchain/0.1.3-ARM/arm/arm-none-eabi/include/c++/10.3.1/bits/stl_uninitialized.h ****   //  move [first2, last2) into
 413:/Library/DaisyToolchain/0.1.3-ARM/arm/arm-none-eabi/include/c++/10.3.1/bits/stl_uninitialized.h ****   //  [result, result + (last1 - first1) + (last2 - first2)).
 414:/Library/DaisyToolchain/0.1.3-ARM/arm/arm-none-eabi/include/c++/10.3.1/bits/stl_uninitialized.h ****   template<typename _InputIterator1, typename _InputIterator2,
 415:/Library/DaisyToolchain/0.1.3-ARM/arm/arm-none-eabi/include/c++/10.3.1/bits/stl_uninitialized.h **** 	   typename _ForwardIterator, typename _Allocator>
 416:/Library/DaisyToolchain/0.1.3-ARM/arm/arm-none-eabi/include/c++/10.3.1/bits/stl_uninitialized.h ****     inline _ForwardIterator
 417:/Library/DaisyToolchain/0.1.3-ARM/arm/arm-none-eabi/include/c++/10.3.1/bits/stl_uninitialized.h ****     __uninitialized_copy_move(_InputIterator1 __first1,
 418:/Library/DaisyToolchain/0.1.3-ARM/arm/arm-none-eabi/include/c++/10.3.1/bits/stl_uninitialized.h **** 			      _InputIterator1 __last1,
 419:/Library/DaisyToolchain/0.1.3-ARM/arm/arm-none-eabi/include/c++/10.3.1/bits/stl_uninitialized.h **** 			      _InputIterator2 __first2,
 420:/Library/DaisyToolchain/0.1.3-ARM/arm/arm-none-eabi/include/c++/10.3.1/bits/stl_uninitialized.h **** 			      _InputIterator2 __last2,
 421:/Library/DaisyToolchain/0.1.3-ARM/arm/arm-none-eabi/include/c++/10.3.1/bits/stl_uninitialized.h **** 			      _ForwardIterator __result,
 422:/Library/DaisyToolchain/0.1.3-ARM/arm/arm-none-eabi/include/c++/10.3.1/bits/stl_uninitialized.h **** 			      _Allocator& __alloc)
 423:/Library/DaisyToolchain/0.1.3-ARM/arm/arm-none-eabi/include/c++/10.3.1/bits/stl_uninitialized.h ****     {
 424:/Library/DaisyToolchain/0.1.3-ARM/arm/arm-none-eabi/include/c++/10.3.1/bits/stl_uninitialized.h ****       _ForwardIterator __mid = std::__uninitialized_copy_a(__first1, __last1,
 425:/Library/DaisyToolchain/0.1.3-ARM/arm/arm-none-eabi/include/c++/10.3.1/bits/stl_uninitialized.h **** 							   __result,
 426:/Library/DaisyToolchain/0.1.3-ARM/arm/arm-none-eabi/include/c++/10.3.1/bits/stl_uninitialized.h **** 							   __alloc);
 427:/Library/DaisyToolchain/0.1.3-ARM/arm/arm-none-eabi/include/c++/10.3.1/bits/stl_uninitialized.h ****       __try
 428:/Library/DaisyToolchain/0.1.3-ARM/arm/arm-none-eabi/include/c++/10.3.1/bits/stl_uninitialized.h **** 	{
 429:/Library/DaisyToolchain/0.1.3-ARM/arm/arm-none-eabi/include/c++/10.3.1/bits/stl_uninitialized.h **** 	  return std::__uninitialized_move_a(__first2, __last2, __mid, __alloc);
 430:/Library/DaisyToolchain/0.1.3-ARM/arm/arm-none-eabi/include/c++/10.3.1/bits/stl_uninitialized.h **** 	}
 431:/Library/DaisyToolchain/0.1.3-ARM/arm/arm-none-eabi/include/c++/10.3.1/bits/stl_uninitialized.h ****       __catch(...)
 432:/Library/DaisyToolchain/0.1.3-ARM/arm/arm-none-eabi/include/c++/10.3.1/bits/stl_uninitialized.h **** 	{
 433:/Library/DaisyToolchain/0.1.3-ARM/arm/arm-none-eabi/include/c++/10.3.1/bits/stl_uninitialized.h **** 	  std::_Destroy(__result, __mid, __alloc);
 434:/Library/DaisyToolchain/0.1.3-ARM/arm/arm-none-eabi/include/c++/10.3.1/bits/stl_uninitialized.h **** 	  __throw_exception_again;
 435:/Library/DaisyToolchain/0.1.3-ARM/arm/arm-none-eabi/include/c++/10.3.1/bits/stl_uninitialized.h **** 	}
 436:/Library/DaisyToolchain/0.1.3-ARM/arm/arm-none-eabi/include/c++/10.3.1/bits/stl_uninitialized.h ****     }
 437:/Library/DaisyToolchain/0.1.3-ARM/arm/arm-none-eabi/include/c++/10.3.1/bits/stl_uninitialized.h **** 
 438:/Library/DaisyToolchain/0.1.3-ARM/arm/arm-none-eabi/include/c++/10.3.1/bits/stl_uninitialized.h ****   // __uninitialized_move_copy
 439:/Library/DaisyToolchain/0.1.3-ARM/arm/arm-none-eabi/include/c++/10.3.1/bits/stl_uninitialized.h ****   // Moves [first1, last1) into [result, result + (last1 - first1)), and
 440:/Library/DaisyToolchain/0.1.3-ARM/arm/arm-none-eabi/include/c++/10.3.1/bits/stl_uninitialized.h ****   //  copies [first2, last2) into
 441:/Library/DaisyToolchain/0.1.3-ARM/arm/arm-none-eabi/include/c++/10.3.1/bits/stl_uninitialized.h ****   //  [result, result + (last1 - first1) + (last2 - first2)).
 442:/Library/DaisyToolchain/0.1.3-ARM/arm/arm-none-eabi/include/c++/10.3.1/bits/stl_uninitialized.h ****   template<typename _InputIterator1, typename _InputIterator2,
 443:/Library/DaisyToolchain/0.1.3-ARM/arm/arm-none-eabi/include/c++/10.3.1/bits/stl_uninitialized.h **** 	   typename _ForwardIterator, typename _Allocator>
 444:/Library/DaisyToolchain/0.1.3-ARM/arm/arm-none-eabi/include/c++/10.3.1/bits/stl_uninitialized.h ****     inline _ForwardIterator
 445:/Library/DaisyToolchain/0.1.3-ARM/arm/arm-none-eabi/include/c++/10.3.1/bits/stl_uninitialized.h ****     __uninitialized_move_copy(_InputIterator1 __first1,
 446:/Library/DaisyToolchain/0.1.3-ARM/arm/arm-none-eabi/include/c++/10.3.1/bits/stl_uninitialized.h **** 			      _InputIterator1 __last1,
 447:/Library/DaisyToolchain/0.1.3-ARM/arm/arm-none-eabi/include/c++/10.3.1/bits/stl_uninitialized.h **** 			      _InputIterator2 __first2,
 448:/Library/DaisyToolchain/0.1.3-ARM/arm/arm-none-eabi/include/c++/10.3.1/bits/stl_uninitialized.h **** 			      _InputIterator2 __last2,
 449:/Library/DaisyToolchain/0.1.3-ARM/arm/arm-none-eabi/include/c++/10.3.1/bits/stl_uninitialized.h **** 			      _ForwardIterator __result,
 450:/Library/DaisyToolchain/0.1.3-ARM/arm/arm-none-eabi/include/c++/10.3.1/bits/stl_uninitialized.h **** 			      _Allocator& __alloc)
 451:/Library/DaisyToolchain/0.1.3-ARM/arm/arm-none-eabi/include/c++/10.3.1/bits/stl_uninitialized.h ****     {
 452:/Library/DaisyToolchain/0.1.3-ARM/arm/arm-none-eabi/include/c++/10.3.1/bits/stl_uninitialized.h ****       _ForwardIterator __mid = std::__uninitialized_move_a(__first1, __last1,
 453:/Library/DaisyToolchain/0.1.3-ARM/arm/arm-none-eabi/include/c++/10.3.1/bits/stl_uninitialized.h **** 							   __result,
 454:/Library/DaisyToolchain/0.1.3-ARM/arm/arm-none-eabi/include/c++/10.3.1/bits/stl_uninitialized.h **** 							   __alloc);
 455:/Library/DaisyToolchain/0.1.3-ARM/arm/arm-none-eabi/include/c++/10.3.1/bits/stl_uninitialized.h ****       __try
ARM GAS  /var/folders/xd/16jvbr6j24q9nvtpm0qtw3240000gn/T//cch9jPA2.s 			page 140


 456:/Library/DaisyToolchain/0.1.3-ARM/arm/arm-none-eabi/include/c++/10.3.1/bits/stl_uninitialized.h **** 	{
 457:/Library/DaisyToolchain/0.1.3-ARM/arm/arm-none-eabi/include/c++/10.3.1/bits/stl_uninitialized.h **** 	  return std::__uninitialized_copy_a(__first2, __last2, __mid, __alloc);
 458:/Library/DaisyToolchain/0.1.3-ARM/arm/arm-none-eabi/include/c++/10.3.1/bits/stl_uninitialized.h **** 	}
 459:/Library/DaisyToolchain/0.1.3-ARM/arm/arm-none-eabi/include/c++/10.3.1/bits/stl_uninitialized.h ****       __catch(...)
 460:/Library/DaisyToolchain/0.1.3-ARM/arm/arm-none-eabi/include/c++/10.3.1/bits/stl_uninitialized.h **** 	{
 461:/Library/DaisyToolchain/0.1.3-ARM/arm/arm-none-eabi/include/c++/10.3.1/bits/stl_uninitialized.h **** 	  std::_Destroy(__result, __mid, __alloc);
 462:/Library/DaisyToolchain/0.1.3-ARM/arm/arm-none-eabi/include/c++/10.3.1/bits/stl_uninitialized.h **** 	  __throw_exception_again;
 463:/Library/DaisyToolchain/0.1.3-ARM/arm/arm-none-eabi/include/c++/10.3.1/bits/stl_uninitialized.h **** 	}
 464:/Library/DaisyToolchain/0.1.3-ARM/arm/arm-none-eabi/include/c++/10.3.1/bits/stl_uninitialized.h ****     }
 465:/Library/DaisyToolchain/0.1.3-ARM/arm/arm-none-eabi/include/c++/10.3.1/bits/stl_uninitialized.h ****   
 466:/Library/DaisyToolchain/0.1.3-ARM/arm/arm-none-eabi/include/c++/10.3.1/bits/stl_uninitialized.h ****   // __uninitialized_fill_move
 467:/Library/DaisyToolchain/0.1.3-ARM/arm/arm-none-eabi/include/c++/10.3.1/bits/stl_uninitialized.h ****   // Fills [result, mid) with x, and moves [first, last) into
 468:/Library/DaisyToolchain/0.1.3-ARM/arm/arm-none-eabi/include/c++/10.3.1/bits/stl_uninitialized.h ****   //  [mid, mid + (last - first)).
 469:/Library/DaisyToolchain/0.1.3-ARM/arm/arm-none-eabi/include/c++/10.3.1/bits/stl_uninitialized.h ****   template<typename _ForwardIterator, typename _Tp, typename _InputIterator,
 470:/Library/DaisyToolchain/0.1.3-ARM/arm/arm-none-eabi/include/c++/10.3.1/bits/stl_uninitialized.h **** 	   typename _Allocator>
 471:/Library/DaisyToolchain/0.1.3-ARM/arm/arm-none-eabi/include/c++/10.3.1/bits/stl_uninitialized.h ****     inline _ForwardIterator
 472:/Library/DaisyToolchain/0.1.3-ARM/arm/arm-none-eabi/include/c++/10.3.1/bits/stl_uninitialized.h ****     __uninitialized_fill_move(_ForwardIterator __result, _ForwardIterator __mid,
 473:/Library/DaisyToolchain/0.1.3-ARM/arm/arm-none-eabi/include/c++/10.3.1/bits/stl_uninitialized.h **** 			      const _Tp& __x, _InputIterator __first,
 474:/Library/DaisyToolchain/0.1.3-ARM/arm/arm-none-eabi/include/c++/10.3.1/bits/stl_uninitialized.h **** 			      _InputIterator __last, _Allocator& __alloc)
 475:/Library/DaisyToolchain/0.1.3-ARM/arm/arm-none-eabi/include/c++/10.3.1/bits/stl_uninitialized.h ****     {
 476:/Library/DaisyToolchain/0.1.3-ARM/arm/arm-none-eabi/include/c++/10.3.1/bits/stl_uninitialized.h ****       std::__uninitialized_fill_a(__result, __mid, __x, __alloc);
 477:/Library/DaisyToolchain/0.1.3-ARM/arm/arm-none-eabi/include/c++/10.3.1/bits/stl_uninitialized.h ****       __try
 478:/Library/DaisyToolchain/0.1.3-ARM/arm/arm-none-eabi/include/c++/10.3.1/bits/stl_uninitialized.h **** 	{
 479:/Library/DaisyToolchain/0.1.3-ARM/arm/arm-none-eabi/include/c++/10.3.1/bits/stl_uninitialized.h **** 	  return std::__uninitialized_move_a(__first, __last, __mid, __alloc);
 480:/Library/DaisyToolchain/0.1.3-ARM/arm/arm-none-eabi/include/c++/10.3.1/bits/stl_uninitialized.h **** 	}
 481:/Library/DaisyToolchain/0.1.3-ARM/arm/arm-none-eabi/include/c++/10.3.1/bits/stl_uninitialized.h ****       __catch(...)
 482:/Library/DaisyToolchain/0.1.3-ARM/arm/arm-none-eabi/include/c++/10.3.1/bits/stl_uninitialized.h **** 	{
 483:/Library/DaisyToolchain/0.1.3-ARM/arm/arm-none-eabi/include/c++/10.3.1/bits/stl_uninitialized.h **** 	  std::_Destroy(__result, __mid, __alloc);
 484:/Library/DaisyToolchain/0.1.3-ARM/arm/arm-none-eabi/include/c++/10.3.1/bits/stl_uninitialized.h **** 	  __throw_exception_again;
 485:/Library/DaisyToolchain/0.1.3-ARM/arm/arm-none-eabi/include/c++/10.3.1/bits/stl_uninitialized.h **** 	}
 486:/Library/DaisyToolchain/0.1.3-ARM/arm/arm-none-eabi/include/c++/10.3.1/bits/stl_uninitialized.h ****     }
 487:/Library/DaisyToolchain/0.1.3-ARM/arm/arm-none-eabi/include/c++/10.3.1/bits/stl_uninitialized.h **** 
 488:/Library/DaisyToolchain/0.1.3-ARM/arm/arm-none-eabi/include/c++/10.3.1/bits/stl_uninitialized.h ****   // __uninitialized_move_fill
 489:/Library/DaisyToolchain/0.1.3-ARM/arm/arm-none-eabi/include/c++/10.3.1/bits/stl_uninitialized.h ****   // Moves [first1, last1) into [first2, first2 + (last1 - first1)), and
 490:/Library/DaisyToolchain/0.1.3-ARM/arm/arm-none-eabi/include/c++/10.3.1/bits/stl_uninitialized.h ****   //  fills [first2 + (last1 - first1), last2) with x.
 491:/Library/DaisyToolchain/0.1.3-ARM/arm/arm-none-eabi/include/c++/10.3.1/bits/stl_uninitialized.h ****   template<typename _InputIterator, typename _ForwardIterator, typename _Tp,
 492:/Library/DaisyToolchain/0.1.3-ARM/arm/arm-none-eabi/include/c++/10.3.1/bits/stl_uninitialized.h **** 	   typename _Allocator>
 493:/Library/DaisyToolchain/0.1.3-ARM/arm/arm-none-eabi/include/c++/10.3.1/bits/stl_uninitialized.h ****     inline void
 494:/Library/DaisyToolchain/0.1.3-ARM/arm/arm-none-eabi/include/c++/10.3.1/bits/stl_uninitialized.h ****     __uninitialized_move_fill(_InputIterator __first1, _InputIterator __last1,
 495:/Library/DaisyToolchain/0.1.3-ARM/arm/arm-none-eabi/include/c++/10.3.1/bits/stl_uninitialized.h **** 			      _ForwardIterator __first2,
 496:/Library/DaisyToolchain/0.1.3-ARM/arm/arm-none-eabi/include/c++/10.3.1/bits/stl_uninitialized.h **** 			      _ForwardIterator __last2, const _Tp& __x,
 497:/Library/DaisyToolchain/0.1.3-ARM/arm/arm-none-eabi/include/c++/10.3.1/bits/stl_uninitialized.h **** 			      _Allocator& __alloc)
 498:/Library/DaisyToolchain/0.1.3-ARM/arm/arm-none-eabi/include/c++/10.3.1/bits/stl_uninitialized.h ****     {
 499:/Library/DaisyToolchain/0.1.3-ARM/arm/arm-none-eabi/include/c++/10.3.1/bits/stl_uninitialized.h ****       _ForwardIterator __mid2 = std::__uninitialized_move_a(__first1, __last1,
 500:/Library/DaisyToolchain/0.1.3-ARM/arm/arm-none-eabi/include/c++/10.3.1/bits/stl_uninitialized.h **** 							    __first2,
 501:/Library/DaisyToolchain/0.1.3-ARM/arm/arm-none-eabi/include/c++/10.3.1/bits/stl_uninitialized.h **** 							    __alloc);
 502:/Library/DaisyToolchain/0.1.3-ARM/arm/arm-none-eabi/include/c++/10.3.1/bits/stl_uninitialized.h ****       __try
 503:/Library/DaisyToolchain/0.1.3-ARM/arm/arm-none-eabi/include/c++/10.3.1/bits/stl_uninitialized.h **** 	{
 504:/Library/DaisyToolchain/0.1.3-ARM/arm/arm-none-eabi/include/c++/10.3.1/bits/stl_uninitialized.h **** 	  std::__uninitialized_fill_a(__mid2, __last2, __x, __alloc);
 505:/Library/DaisyToolchain/0.1.3-ARM/arm/arm-none-eabi/include/c++/10.3.1/bits/stl_uninitialized.h **** 	}
 506:/Library/DaisyToolchain/0.1.3-ARM/arm/arm-none-eabi/include/c++/10.3.1/bits/stl_uninitialized.h ****       __catch(...)
 507:/Library/DaisyToolchain/0.1.3-ARM/arm/arm-none-eabi/include/c++/10.3.1/bits/stl_uninitialized.h **** 	{
 508:/Library/DaisyToolchain/0.1.3-ARM/arm/arm-none-eabi/include/c++/10.3.1/bits/stl_uninitialized.h **** 	  std::_Destroy(__first2, __mid2, __alloc);
 509:/Library/DaisyToolchain/0.1.3-ARM/arm/arm-none-eabi/include/c++/10.3.1/bits/stl_uninitialized.h **** 	  __throw_exception_again;
 510:/Library/DaisyToolchain/0.1.3-ARM/arm/arm-none-eabi/include/c++/10.3.1/bits/stl_uninitialized.h **** 	}
 511:/Library/DaisyToolchain/0.1.3-ARM/arm/arm-none-eabi/include/c++/10.3.1/bits/stl_uninitialized.h ****     }
 512:/Library/DaisyToolchain/0.1.3-ARM/arm/arm-none-eabi/include/c++/10.3.1/bits/stl_uninitialized.h **** 
ARM GAS  /var/folders/xd/16jvbr6j24q9nvtpm0qtw3240000gn/T//cch9jPA2.s 			page 141


 513:/Library/DaisyToolchain/0.1.3-ARM/arm/arm-none-eabi/include/c++/10.3.1/bits/stl_uninitialized.h ****   /// @endcond
 514:/Library/DaisyToolchain/0.1.3-ARM/arm/arm-none-eabi/include/c++/10.3.1/bits/stl_uninitialized.h **** 
 515:/Library/DaisyToolchain/0.1.3-ARM/arm/arm-none-eabi/include/c++/10.3.1/bits/stl_uninitialized.h **** #if __cplusplus >= 201103L
 516:/Library/DaisyToolchain/0.1.3-ARM/arm/arm-none-eabi/include/c++/10.3.1/bits/stl_uninitialized.h ****   /// @cond undocumented
 517:/Library/DaisyToolchain/0.1.3-ARM/arm/arm-none-eabi/include/c++/10.3.1/bits/stl_uninitialized.h **** 
 518:/Library/DaisyToolchain/0.1.3-ARM/arm/arm-none-eabi/include/c++/10.3.1/bits/stl_uninitialized.h ****   // Extensions: __uninitialized_default, __uninitialized_default_n,
 519:/Library/DaisyToolchain/0.1.3-ARM/arm/arm-none-eabi/include/c++/10.3.1/bits/stl_uninitialized.h ****   // __uninitialized_default_a, __uninitialized_default_n_a.
 520:/Library/DaisyToolchain/0.1.3-ARM/arm/arm-none-eabi/include/c++/10.3.1/bits/stl_uninitialized.h **** 
 521:/Library/DaisyToolchain/0.1.3-ARM/arm/arm-none-eabi/include/c++/10.3.1/bits/stl_uninitialized.h ****   template<bool _TrivialValueType>
 522:/Library/DaisyToolchain/0.1.3-ARM/arm/arm-none-eabi/include/c++/10.3.1/bits/stl_uninitialized.h ****     struct __uninitialized_default_1
 523:/Library/DaisyToolchain/0.1.3-ARM/arm/arm-none-eabi/include/c++/10.3.1/bits/stl_uninitialized.h ****     {
 524:/Library/DaisyToolchain/0.1.3-ARM/arm/arm-none-eabi/include/c++/10.3.1/bits/stl_uninitialized.h ****       template<typename _ForwardIterator>
 525:/Library/DaisyToolchain/0.1.3-ARM/arm/arm-none-eabi/include/c++/10.3.1/bits/stl_uninitialized.h ****         static void
 526:/Library/DaisyToolchain/0.1.3-ARM/arm/arm-none-eabi/include/c++/10.3.1/bits/stl_uninitialized.h ****         __uninit_default(_ForwardIterator __first, _ForwardIterator __last)
 527:/Library/DaisyToolchain/0.1.3-ARM/arm/arm-none-eabi/include/c++/10.3.1/bits/stl_uninitialized.h ****         {
 528:/Library/DaisyToolchain/0.1.3-ARM/arm/arm-none-eabi/include/c++/10.3.1/bits/stl_uninitialized.h **** 	  _ForwardIterator __cur = __first;
 529:/Library/DaisyToolchain/0.1.3-ARM/arm/arm-none-eabi/include/c++/10.3.1/bits/stl_uninitialized.h **** 	  __try
 530:/Library/DaisyToolchain/0.1.3-ARM/arm/arm-none-eabi/include/c++/10.3.1/bits/stl_uninitialized.h **** 	    {
 531:/Library/DaisyToolchain/0.1.3-ARM/arm/arm-none-eabi/include/c++/10.3.1/bits/stl_uninitialized.h **** 	      for (; __cur != __last; ++__cur)
 532:/Library/DaisyToolchain/0.1.3-ARM/arm/arm-none-eabi/include/c++/10.3.1/bits/stl_uninitialized.h **** 		std::_Construct(std::__addressof(*__cur));
 533:/Library/DaisyToolchain/0.1.3-ARM/arm/arm-none-eabi/include/c++/10.3.1/bits/stl_uninitialized.h **** 	    }
 534:/Library/DaisyToolchain/0.1.3-ARM/arm/arm-none-eabi/include/c++/10.3.1/bits/stl_uninitialized.h **** 	  __catch(...)
 535:/Library/DaisyToolchain/0.1.3-ARM/arm/arm-none-eabi/include/c++/10.3.1/bits/stl_uninitialized.h **** 	    {
 536:/Library/DaisyToolchain/0.1.3-ARM/arm/arm-none-eabi/include/c++/10.3.1/bits/stl_uninitialized.h **** 	      std::_Destroy(__first, __cur);
 537:/Library/DaisyToolchain/0.1.3-ARM/arm/arm-none-eabi/include/c++/10.3.1/bits/stl_uninitialized.h **** 	      __throw_exception_again;
 538:/Library/DaisyToolchain/0.1.3-ARM/arm/arm-none-eabi/include/c++/10.3.1/bits/stl_uninitialized.h **** 	    }
 539:/Library/DaisyToolchain/0.1.3-ARM/arm/arm-none-eabi/include/c++/10.3.1/bits/stl_uninitialized.h **** 	}
 540:/Library/DaisyToolchain/0.1.3-ARM/arm/arm-none-eabi/include/c++/10.3.1/bits/stl_uninitialized.h ****     };
 541:/Library/DaisyToolchain/0.1.3-ARM/arm/arm-none-eabi/include/c++/10.3.1/bits/stl_uninitialized.h **** 
 542:/Library/DaisyToolchain/0.1.3-ARM/arm/arm-none-eabi/include/c++/10.3.1/bits/stl_uninitialized.h ****   template<>
 543:/Library/DaisyToolchain/0.1.3-ARM/arm/arm-none-eabi/include/c++/10.3.1/bits/stl_uninitialized.h ****     struct __uninitialized_default_1<true>
 544:/Library/DaisyToolchain/0.1.3-ARM/arm/arm-none-eabi/include/c++/10.3.1/bits/stl_uninitialized.h ****     {
 545:/Library/DaisyToolchain/0.1.3-ARM/arm/arm-none-eabi/include/c++/10.3.1/bits/stl_uninitialized.h ****       template<typename _ForwardIterator>
 546:/Library/DaisyToolchain/0.1.3-ARM/arm/arm-none-eabi/include/c++/10.3.1/bits/stl_uninitialized.h ****         static void
 547:/Library/DaisyToolchain/0.1.3-ARM/arm/arm-none-eabi/include/c++/10.3.1/bits/stl_uninitialized.h ****         __uninit_default(_ForwardIterator __first, _ForwardIterator __last)
 548:/Library/DaisyToolchain/0.1.3-ARM/arm/arm-none-eabi/include/c++/10.3.1/bits/stl_uninitialized.h ****         {
 549:/Library/DaisyToolchain/0.1.3-ARM/arm/arm-none-eabi/include/c++/10.3.1/bits/stl_uninitialized.h **** 	  typedef typename iterator_traits<_ForwardIterator>::value_type
 550:/Library/DaisyToolchain/0.1.3-ARM/arm/arm-none-eabi/include/c++/10.3.1/bits/stl_uninitialized.h **** 	    _ValueType;
 551:/Library/DaisyToolchain/0.1.3-ARM/arm/arm-none-eabi/include/c++/10.3.1/bits/stl_uninitialized.h **** 
 552:/Library/DaisyToolchain/0.1.3-ARM/arm/arm-none-eabi/include/c++/10.3.1/bits/stl_uninitialized.h **** 	  std::fill(__first, __last, _ValueType());
 553:/Library/DaisyToolchain/0.1.3-ARM/arm/arm-none-eabi/include/c++/10.3.1/bits/stl_uninitialized.h **** 	}
 554:/Library/DaisyToolchain/0.1.3-ARM/arm/arm-none-eabi/include/c++/10.3.1/bits/stl_uninitialized.h ****     };
 555:/Library/DaisyToolchain/0.1.3-ARM/arm/arm-none-eabi/include/c++/10.3.1/bits/stl_uninitialized.h **** 
 556:/Library/DaisyToolchain/0.1.3-ARM/arm/arm-none-eabi/include/c++/10.3.1/bits/stl_uninitialized.h ****   template<bool _TrivialValueType>
 557:/Library/DaisyToolchain/0.1.3-ARM/arm/arm-none-eabi/include/c++/10.3.1/bits/stl_uninitialized.h ****     struct __uninitialized_default_n_1
 558:/Library/DaisyToolchain/0.1.3-ARM/arm/arm-none-eabi/include/c++/10.3.1/bits/stl_uninitialized.h ****     {
 559:/Library/DaisyToolchain/0.1.3-ARM/arm/arm-none-eabi/include/c++/10.3.1/bits/stl_uninitialized.h ****       template<typename _ForwardIterator, typename _Size>
 560:/Library/DaisyToolchain/0.1.3-ARM/arm/arm-none-eabi/include/c++/10.3.1/bits/stl_uninitialized.h ****         static _ForwardIterator
 561:/Library/DaisyToolchain/0.1.3-ARM/arm/arm-none-eabi/include/c++/10.3.1/bits/stl_uninitialized.h ****         __uninit_default_n(_ForwardIterator __first, _Size __n)
 562:/Library/DaisyToolchain/0.1.3-ARM/arm/arm-none-eabi/include/c++/10.3.1/bits/stl_uninitialized.h ****         {
 563:/Library/DaisyToolchain/0.1.3-ARM/arm/arm-none-eabi/include/c++/10.3.1/bits/stl_uninitialized.h **** 	  _ForwardIterator __cur = __first;
 564:/Library/DaisyToolchain/0.1.3-ARM/arm/arm-none-eabi/include/c++/10.3.1/bits/stl_uninitialized.h **** 	  __try
 565:/Library/DaisyToolchain/0.1.3-ARM/arm/arm-none-eabi/include/c++/10.3.1/bits/stl_uninitialized.h **** 	    {
 566:/Library/DaisyToolchain/0.1.3-ARM/arm/arm-none-eabi/include/c++/10.3.1/bits/stl_uninitialized.h **** 	      for (; __n > 0; --__n, (void) ++__cur)
 567:/Library/DaisyToolchain/0.1.3-ARM/arm/arm-none-eabi/include/c++/10.3.1/bits/stl_uninitialized.h **** 		std::_Construct(std::__addressof(*__cur));
 568:/Library/DaisyToolchain/0.1.3-ARM/arm/arm-none-eabi/include/c++/10.3.1/bits/stl_uninitialized.h **** 	      return __cur;
 569:/Library/DaisyToolchain/0.1.3-ARM/arm/arm-none-eabi/include/c++/10.3.1/bits/stl_uninitialized.h **** 	    }
ARM GAS  /var/folders/xd/16jvbr6j24q9nvtpm0qtw3240000gn/T//cch9jPA2.s 			page 142


 570:/Library/DaisyToolchain/0.1.3-ARM/arm/arm-none-eabi/include/c++/10.3.1/bits/stl_uninitialized.h **** 	  __catch(...)
 571:/Library/DaisyToolchain/0.1.3-ARM/arm/arm-none-eabi/include/c++/10.3.1/bits/stl_uninitialized.h **** 	    {
 572:/Library/DaisyToolchain/0.1.3-ARM/arm/arm-none-eabi/include/c++/10.3.1/bits/stl_uninitialized.h **** 	      std::_Destroy(__first, __cur);
 573:/Library/DaisyToolchain/0.1.3-ARM/arm/arm-none-eabi/include/c++/10.3.1/bits/stl_uninitialized.h **** 	      __throw_exception_again;
 574:/Library/DaisyToolchain/0.1.3-ARM/arm/arm-none-eabi/include/c++/10.3.1/bits/stl_uninitialized.h **** 	    }
 575:/Library/DaisyToolchain/0.1.3-ARM/arm/arm-none-eabi/include/c++/10.3.1/bits/stl_uninitialized.h **** 	}
 576:/Library/DaisyToolchain/0.1.3-ARM/arm/arm-none-eabi/include/c++/10.3.1/bits/stl_uninitialized.h ****     };
 577:/Library/DaisyToolchain/0.1.3-ARM/arm/arm-none-eabi/include/c++/10.3.1/bits/stl_uninitialized.h **** 
 578:/Library/DaisyToolchain/0.1.3-ARM/arm/arm-none-eabi/include/c++/10.3.1/bits/stl_uninitialized.h ****   template<>
 579:/Library/DaisyToolchain/0.1.3-ARM/arm/arm-none-eabi/include/c++/10.3.1/bits/stl_uninitialized.h ****     struct __uninitialized_default_n_1<true>
 580:/Library/DaisyToolchain/0.1.3-ARM/arm/arm-none-eabi/include/c++/10.3.1/bits/stl_uninitialized.h ****     {
 581:/Library/DaisyToolchain/0.1.3-ARM/arm/arm-none-eabi/include/c++/10.3.1/bits/stl_uninitialized.h ****       template<typename _ForwardIterator, typename _Size>
 582:/Library/DaisyToolchain/0.1.3-ARM/arm/arm-none-eabi/include/c++/10.3.1/bits/stl_uninitialized.h ****         static _ForwardIterator
 583:/Library/DaisyToolchain/0.1.3-ARM/arm/arm-none-eabi/include/c++/10.3.1/bits/stl_uninitialized.h ****         __uninit_default_n(_ForwardIterator __first, _Size __n)
 584:/Library/DaisyToolchain/0.1.3-ARM/arm/arm-none-eabi/include/c++/10.3.1/bits/stl_uninitialized.h ****         {
 585:/Library/DaisyToolchain/0.1.3-ARM/arm/arm-none-eabi/include/c++/10.3.1/bits/stl_uninitialized.h **** 	  typedef typename iterator_traits<_ForwardIterator>::value_type
 586:/Library/DaisyToolchain/0.1.3-ARM/arm/arm-none-eabi/include/c++/10.3.1/bits/stl_uninitialized.h **** 	    _ValueType;
 587:/Library/DaisyToolchain/0.1.3-ARM/arm/arm-none-eabi/include/c++/10.3.1/bits/stl_uninitialized.h **** 
 588:/Library/DaisyToolchain/0.1.3-ARM/arm/arm-none-eabi/include/c++/10.3.1/bits/stl_uninitialized.h **** 	  return std::fill_n(__first, __n, _ValueType());
 589:/Library/DaisyToolchain/0.1.3-ARM/arm/arm-none-eabi/include/c++/10.3.1/bits/stl_uninitialized.h **** 	}
 590:/Library/DaisyToolchain/0.1.3-ARM/arm/arm-none-eabi/include/c++/10.3.1/bits/stl_uninitialized.h ****     };
 591:/Library/DaisyToolchain/0.1.3-ARM/arm/arm-none-eabi/include/c++/10.3.1/bits/stl_uninitialized.h **** 
 592:/Library/DaisyToolchain/0.1.3-ARM/arm/arm-none-eabi/include/c++/10.3.1/bits/stl_uninitialized.h ****   // __uninitialized_default
 593:/Library/DaisyToolchain/0.1.3-ARM/arm/arm-none-eabi/include/c++/10.3.1/bits/stl_uninitialized.h ****   // Fills [first, last) with std::distance(first, last) default
 594:/Library/DaisyToolchain/0.1.3-ARM/arm/arm-none-eabi/include/c++/10.3.1/bits/stl_uninitialized.h ****   // constructed value_types(s).
 595:/Library/DaisyToolchain/0.1.3-ARM/arm/arm-none-eabi/include/c++/10.3.1/bits/stl_uninitialized.h ****   template<typename _ForwardIterator>
 596:/Library/DaisyToolchain/0.1.3-ARM/arm/arm-none-eabi/include/c++/10.3.1/bits/stl_uninitialized.h ****     inline void
 597:/Library/DaisyToolchain/0.1.3-ARM/arm/arm-none-eabi/include/c++/10.3.1/bits/stl_uninitialized.h ****     __uninitialized_default(_ForwardIterator __first,
 598:/Library/DaisyToolchain/0.1.3-ARM/arm/arm-none-eabi/include/c++/10.3.1/bits/stl_uninitialized.h **** 			    _ForwardIterator __last)
 599:/Library/DaisyToolchain/0.1.3-ARM/arm/arm-none-eabi/include/c++/10.3.1/bits/stl_uninitialized.h ****     {
 600:/Library/DaisyToolchain/0.1.3-ARM/arm/arm-none-eabi/include/c++/10.3.1/bits/stl_uninitialized.h ****       typedef typename iterator_traits<_ForwardIterator>::value_type
 601:/Library/DaisyToolchain/0.1.3-ARM/arm/arm-none-eabi/include/c++/10.3.1/bits/stl_uninitialized.h **** 	_ValueType;
 602:/Library/DaisyToolchain/0.1.3-ARM/arm/arm-none-eabi/include/c++/10.3.1/bits/stl_uninitialized.h ****       // trivial types can have deleted assignment
 603:/Library/DaisyToolchain/0.1.3-ARM/arm/arm-none-eabi/include/c++/10.3.1/bits/stl_uninitialized.h ****       const bool __assignable = is_copy_assignable<_ValueType>::value;
 604:/Library/DaisyToolchain/0.1.3-ARM/arm/arm-none-eabi/include/c++/10.3.1/bits/stl_uninitialized.h **** 
 605:/Library/DaisyToolchain/0.1.3-ARM/arm/arm-none-eabi/include/c++/10.3.1/bits/stl_uninitialized.h ****       std::__uninitialized_default_1<__is_trivial(_ValueType)
 606:/Library/DaisyToolchain/0.1.3-ARM/arm/arm-none-eabi/include/c++/10.3.1/bits/stl_uninitialized.h **** 				     && __assignable>::
 607:/Library/DaisyToolchain/0.1.3-ARM/arm/arm-none-eabi/include/c++/10.3.1/bits/stl_uninitialized.h **** 	__uninit_default(__first, __last);
 608:/Library/DaisyToolchain/0.1.3-ARM/arm/arm-none-eabi/include/c++/10.3.1/bits/stl_uninitialized.h ****     }
 609:/Library/DaisyToolchain/0.1.3-ARM/arm/arm-none-eabi/include/c++/10.3.1/bits/stl_uninitialized.h **** 
 610:/Library/DaisyToolchain/0.1.3-ARM/arm/arm-none-eabi/include/c++/10.3.1/bits/stl_uninitialized.h ****   // __uninitialized_default_n
 611:/Library/DaisyToolchain/0.1.3-ARM/arm/arm-none-eabi/include/c++/10.3.1/bits/stl_uninitialized.h ****   // Fills [first, first + n) with n default constructed value_type(s).
 612:/Library/DaisyToolchain/0.1.3-ARM/arm/arm-none-eabi/include/c++/10.3.1/bits/stl_uninitialized.h ****   template<typename _ForwardIterator, typename _Size>
 613:/Library/DaisyToolchain/0.1.3-ARM/arm/arm-none-eabi/include/c++/10.3.1/bits/stl_uninitialized.h ****     inline _ForwardIterator
 614:/Library/DaisyToolchain/0.1.3-ARM/arm/arm-none-eabi/include/c++/10.3.1/bits/stl_uninitialized.h ****     __uninitialized_default_n(_ForwardIterator __first, _Size __n)
 615:/Library/DaisyToolchain/0.1.3-ARM/arm/arm-none-eabi/include/c++/10.3.1/bits/stl_uninitialized.h ****     {
 616:/Library/DaisyToolchain/0.1.3-ARM/arm/arm-none-eabi/include/c++/10.3.1/bits/stl_uninitialized.h ****       typedef typename iterator_traits<_ForwardIterator>::value_type
 617:/Library/DaisyToolchain/0.1.3-ARM/arm/arm-none-eabi/include/c++/10.3.1/bits/stl_uninitialized.h **** 	_ValueType;
 618:/Library/DaisyToolchain/0.1.3-ARM/arm/arm-none-eabi/include/c++/10.3.1/bits/stl_uninitialized.h ****       // trivial types can have deleted assignment
 619:/Library/DaisyToolchain/0.1.3-ARM/arm/arm-none-eabi/include/c++/10.3.1/bits/stl_uninitialized.h ****       const bool __assignable = is_copy_assignable<_ValueType>::value;
 620:/Library/DaisyToolchain/0.1.3-ARM/arm/arm-none-eabi/include/c++/10.3.1/bits/stl_uninitialized.h **** 
 621:/Library/DaisyToolchain/0.1.3-ARM/arm/arm-none-eabi/include/c++/10.3.1/bits/stl_uninitialized.h ****       return __uninitialized_default_n_1<__is_trivial(_ValueType)
 622:/Library/DaisyToolchain/0.1.3-ARM/arm/arm-none-eabi/include/c++/10.3.1/bits/stl_uninitialized.h **** 				       && __assignable>::
 623:/Library/DaisyToolchain/0.1.3-ARM/arm/arm-none-eabi/include/c++/10.3.1/bits/stl_uninitialized.h **** 	__uninit_default_n(__first, __n);
 624:/Library/DaisyToolchain/0.1.3-ARM/arm/arm-none-eabi/include/c++/10.3.1/bits/stl_uninitialized.h ****     }
 625:/Library/DaisyToolchain/0.1.3-ARM/arm/arm-none-eabi/include/c++/10.3.1/bits/stl_uninitialized.h **** 
 626:/Library/DaisyToolchain/0.1.3-ARM/arm/arm-none-eabi/include/c++/10.3.1/bits/stl_uninitialized.h **** 
ARM GAS  /var/folders/xd/16jvbr6j24q9nvtpm0qtw3240000gn/T//cch9jPA2.s 			page 143


 627:/Library/DaisyToolchain/0.1.3-ARM/arm/arm-none-eabi/include/c++/10.3.1/bits/stl_uninitialized.h ****   // __uninitialized_default_a
 628:/Library/DaisyToolchain/0.1.3-ARM/arm/arm-none-eabi/include/c++/10.3.1/bits/stl_uninitialized.h ****   // Fills [first, last) with std::distance(first, last) default
 629:/Library/DaisyToolchain/0.1.3-ARM/arm/arm-none-eabi/include/c++/10.3.1/bits/stl_uninitialized.h ****   // constructed value_types(s), constructed with the allocator alloc.
 630:/Library/DaisyToolchain/0.1.3-ARM/arm/arm-none-eabi/include/c++/10.3.1/bits/stl_uninitialized.h ****   template<typename _ForwardIterator, typename _Allocator>
 631:/Library/DaisyToolchain/0.1.3-ARM/arm/arm-none-eabi/include/c++/10.3.1/bits/stl_uninitialized.h ****     void
 632:/Library/DaisyToolchain/0.1.3-ARM/arm/arm-none-eabi/include/c++/10.3.1/bits/stl_uninitialized.h ****     __uninitialized_default_a(_ForwardIterator __first,
 633:/Library/DaisyToolchain/0.1.3-ARM/arm/arm-none-eabi/include/c++/10.3.1/bits/stl_uninitialized.h **** 			      _ForwardIterator __last,
 634:/Library/DaisyToolchain/0.1.3-ARM/arm/arm-none-eabi/include/c++/10.3.1/bits/stl_uninitialized.h **** 			      _Allocator& __alloc)
 635:/Library/DaisyToolchain/0.1.3-ARM/arm/arm-none-eabi/include/c++/10.3.1/bits/stl_uninitialized.h ****     {
 636:/Library/DaisyToolchain/0.1.3-ARM/arm/arm-none-eabi/include/c++/10.3.1/bits/stl_uninitialized.h ****       _ForwardIterator __cur = __first;
 637:/Library/DaisyToolchain/0.1.3-ARM/arm/arm-none-eabi/include/c++/10.3.1/bits/stl_uninitialized.h ****       __try
 638:/Library/DaisyToolchain/0.1.3-ARM/arm/arm-none-eabi/include/c++/10.3.1/bits/stl_uninitialized.h **** 	{
 639:/Library/DaisyToolchain/0.1.3-ARM/arm/arm-none-eabi/include/c++/10.3.1/bits/stl_uninitialized.h **** 	  typedef __gnu_cxx::__alloc_traits<_Allocator> __traits;
 640:/Library/DaisyToolchain/0.1.3-ARM/arm/arm-none-eabi/include/c++/10.3.1/bits/stl_uninitialized.h **** 	  for (; __cur != __last; ++__cur)
 641:/Library/DaisyToolchain/0.1.3-ARM/arm/arm-none-eabi/include/c++/10.3.1/bits/stl_uninitialized.h **** 	    __traits::construct(__alloc, std::__addressof(*__cur));
 642:/Library/DaisyToolchain/0.1.3-ARM/arm/arm-none-eabi/include/c++/10.3.1/bits/stl_uninitialized.h **** 	}
 643:/Library/DaisyToolchain/0.1.3-ARM/arm/arm-none-eabi/include/c++/10.3.1/bits/stl_uninitialized.h ****       __catch(...)
 644:/Library/DaisyToolchain/0.1.3-ARM/arm/arm-none-eabi/include/c++/10.3.1/bits/stl_uninitialized.h **** 	{
 645:/Library/DaisyToolchain/0.1.3-ARM/arm/arm-none-eabi/include/c++/10.3.1/bits/stl_uninitialized.h **** 	  std::_Destroy(__first, __cur, __alloc);
 646:/Library/DaisyToolchain/0.1.3-ARM/arm/arm-none-eabi/include/c++/10.3.1/bits/stl_uninitialized.h **** 	  __throw_exception_again;
 647:/Library/DaisyToolchain/0.1.3-ARM/arm/arm-none-eabi/include/c++/10.3.1/bits/stl_uninitialized.h **** 	}
 648:/Library/DaisyToolchain/0.1.3-ARM/arm/arm-none-eabi/include/c++/10.3.1/bits/stl_uninitialized.h ****     }
 649:/Library/DaisyToolchain/0.1.3-ARM/arm/arm-none-eabi/include/c++/10.3.1/bits/stl_uninitialized.h **** 
 650:/Library/DaisyToolchain/0.1.3-ARM/arm/arm-none-eabi/include/c++/10.3.1/bits/stl_uninitialized.h ****   template<typename _ForwardIterator, typename _Tp>
 651:/Library/DaisyToolchain/0.1.3-ARM/arm/arm-none-eabi/include/c++/10.3.1/bits/stl_uninitialized.h ****     inline void
 652:/Library/DaisyToolchain/0.1.3-ARM/arm/arm-none-eabi/include/c++/10.3.1/bits/stl_uninitialized.h ****     __uninitialized_default_a(_ForwardIterator __first,
 653:/Library/DaisyToolchain/0.1.3-ARM/arm/arm-none-eabi/include/c++/10.3.1/bits/stl_uninitialized.h **** 			      _ForwardIterator __last,
 654:/Library/DaisyToolchain/0.1.3-ARM/arm/arm-none-eabi/include/c++/10.3.1/bits/stl_uninitialized.h **** 			      allocator<_Tp>&)
 655:/Library/DaisyToolchain/0.1.3-ARM/arm/arm-none-eabi/include/c++/10.3.1/bits/stl_uninitialized.h ****     { std::__uninitialized_default(__first, __last); }
 656:/Library/DaisyToolchain/0.1.3-ARM/arm/arm-none-eabi/include/c++/10.3.1/bits/stl_uninitialized.h **** 
 657:/Library/DaisyToolchain/0.1.3-ARM/arm/arm-none-eabi/include/c++/10.3.1/bits/stl_uninitialized.h **** 
 658:/Library/DaisyToolchain/0.1.3-ARM/arm/arm-none-eabi/include/c++/10.3.1/bits/stl_uninitialized.h ****   // __uninitialized_default_n_a
 659:/Library/DaisyToolchain/0.1.3-ARM/arm/arm-none-eabi/include/c++/10.3.1/bits/stl_uninitialized.h ****   // Fills [first, first + n) with n default constructed value_types(s),
 660:/Library/DaisyToolchain/0.1.3-ARM/arm/arm-none-eabi/include/c++/10.3.1/bits/stl_uninitialized.h ****   // constructed with the allocator alloc.
 661:/Library/DaisyToolchain/0.1.3-ARM/arm/arm-none-eabi/include/c++/10.3.1/bits/stl_uninitialized.h ****   template<typename _ForwardIterator, typename _Size, typename _Allocator>
 662:/Library/DaisyToolchain/0.1.3-ARM/arm/arm-none-eabi/include/c++/10.3.1/bits/stl_uninitialized.h ****     _ForwardIterator
 663:/Library/DaisyToolchain/0.1.3-ARM/arm/arm-none-eabi/include/c++/10.3.1/bits/stl_uninitialized.h ****     __uninitialized_default_n_a(_ForwardIterator __first, _Size __n, 
 664:/Library/DaisyToolchain/0.1.3-ARM/arm/arm-none-eabi/include/c++/10.3.1/bits/stl_uninitialized.h **** 				_Allocator& __alloc)
 665:/Library/DaisyToolchain/0.1.3-ARM/arm/arm-none-eabi/include/c++/10.3.1/bits/stl_uninitialized.h ****     {
 666:/Library/DaisyToolchain/0.1.3-ARM/arm/arm-none-eabi/include/c++/10.3.1/bits/stl_uninitialized.h ****       _ForwardIterator __cur = __first;
 667:/Library/DaisyToolchain/0.1.3-ARM/arm/arm-none-eabi/include/c++/10.3.1/bits/stl_uninitialized.h ****       __try
 668:/Library/DaisyToolchain/0.1.3-ARM/arm/arm-none-eabi/include/c++/10.3.1/bits/stl_uninitialized.h **** 	{
 669:/Library/DaisyToolchain/0.1.3-ARM/arm/arm-none-eabi/include/c++/10.3.1/bits/stl_uninitialized.h **** 	  typedef __gnu_cxx::__alloc_traits<_Allocator> __traits;
 670:/Library/DaisyToolchain/0.1.3-ARM/arm/arm-none-eabi/include/c++/10.3.1/bits/stl_uninitialized.h **** 	  for (; __n > 0; --__n, (void) ++__cur)
 671:/Library/DaisyToolchain/0.1.3-ARM/arm/arm-none-eabi/include/c++/10.3.1/bits/stl_uninitialized.h **** 	    __traits::construct(__alloc, std::__addressof(*__cur));
 672:/Library/DaisyToolchain/0.1.3-ARM/arm/arm-none-eabi/include/c++/10.3.1/bits/stl_uninitialized.h **** 	  return __cur;
 673:/Library/DaisyToolchain/0.1.3-ARM/arm/arm-none-eabi/include/c++/10.3.1/bits/stl_uninitialized.h **** 	}
 674:/Library/DaisyToolchain/0.1.3-ARM/arm/arm-none-eabi/include/c++/10.3.1/bits/stl_uninitialized.h ****       __catch(...)
 675:/Library/DaisyToolchain/0.1.3-ARM/arm/arm-none-eabi/include/c++/10.3.1/bits/stl_uninitialized.h **** 	{
 676:/Library/DaisyToolchain/0.1.3-ARM/arm/arm-none-eabi/include/c++/10.3.1/bits/stl_uninitialized.h **** 	  std::_Destroy(__first, __cur, __alloc);
 677:/Library/DaisyToolchain/0.1.3-ARM/arm/arm-none-eabi/include/c++/10.3.1/bits/stl_uninitialized.h **** 	  __throw_exception_again;
 678:/Library/DaisyToolchain/0.1.3-ARM/arm/arm-none-eabi/include/c++/10.3.1/bits/stl_uninitialized.h **** 	}
 679:/Library/DaisyToolchain/0.1.3-ARM/arm/arm-none-eabi/include/c++/10.3.1/bits/stl_uninitialized.h ****     }
 680:/Library/DaisyToolchain/0.1.3-ARM/arm/arm-none-eabi/include/c++/10.3.1/bits/stl_uninitialized.h **** 
 681:/Library/DaisyToolchain/0.1.3-ARM/arm/arm-none-eabi/include/c++/10.3.1/bits/stl_uninitialized.h ****   template<typename _ForwardIterator, typename _Size, typename _Tp>
 682:/Library/DaisyToolchain/0.1.3-ARM/arm/arm-none-eabi/include/c++/10.3.1/bits/stl_uninitialized.h ****     inline _ForwardIterator
 683:/Library/DaisyToolchain/0.1.3-ARM/arm/arm-none-eabi/include/c++/10.3.1/bits/stl_uninitialized.h ****     __uninitialized_default_n_a(_ForwardIterator __first, _Size __n, 
ARM GAS  /var/folders/xd/16jvbr6j24q9nvtpm0qtw3240000gn/T//cch9jPA2.s 			page 144


 3265              		.loc 15 683 5 is_stmt 1 view .LVU869
 3266              	.LBB911:
 3267              	.LBI911:
 614:/Library/DaisyToolchain/0.1.3-ARM/arm/arm-none-eabi/include/c++/10.3.1/bits/stl_uninitialized.h ****     {
 3268              		.loc 15 614 5 view .LVU870
 3269              	.LBB912:
 3270              	.LBB913:
 3271              	.LBI913:
 583:/Library/DaisyToolchain/0.1.3-ARM/arm/arm-none-eabi/include/c++/10.3.1/bits/stl_uninitialized.h ****         {
 3272              		.loc 15 583 9 view .LVU871
 3273              	.LBB914:
 3274              	.LBB915:
 3275              	.LBI915:
 3276              		.file 16 "/Library/DaisyToolchain/0.1.3-ARM/arm/arm-none-eabi/include/c++/10.3.1/bits/stl_algobase
   1:/Library/DaisyToolchain/0.1.3-ARM/arm/arm-none-eabi/include/c++/10.3.1/bits/stl_algobase.h **** // Core algorithmic facilities -*- C++ -*-
   2:/Library/DaisyToolchain/0.1.3-ARM/arm/arm-none-eabi/include/c++/10.3.1/bits/stl_algobase.h **** 
   3:/Library/DaisyToolchain/0.1.3-ARM/arm/arm-none-eabi/include/c++/10.3.1/bits/stl_algobase.h **** // Copyright (C) 2001-2020 Free Software Foundation, Inc.
   4:/Library/DaisyToolchain/0.1.3-ARM/arm/arm-none-eabi/include/c++/10.3.1/bits/stl_algobase.h **** //
   5:/Library/DaisyToolchain/0.1.3-ARM/arm/arm-none-eabi/include/c++/10.3.1/bits/stl_algobase.h **** // This file is part of the GNU ISO C++ Library.  This library is free
   6:/Library/DaisyToolchain/0.1.3-ARM/arm/arm-none-eabi/include/c++/10.3.1/bits/stl_algobase.h **** // software; you can redistribute it and/or modify it under the
   7:/Library/DaisyToolchain/0.1.3-ARM/arm/arm-none-eabi/include/c++/10.3.1/bits/stl_algobase.h **** // terms of the GNU General Public License as published by the
   8:/Library/DaisyToolchain/0.1.3-ARM/arm/arm-none-eabi/include/c++/10.3.1/bits/stl_algobase.h **** // Free Software Foundation; either version 3, or (at your option)
   9:/Library/DaisyToolchain/0.1.3-ARM/arm/arm-none-eabi/include/c++/10.3.1/bits/stl_algobase.h **** // any later version.
  10:/Library/DaisyToolchain/0.1.3-ARM/arm/arm-none-eabi/include/c++/10.3.1/bits/stl_algobase.h **** 
  11:/Library/DaisyToolchain/0.1.3-ARM/arm/arm-none-eabi/include/c++/10.3.1/bits/stl_algobase.h **** // This library is distributed in the hope that it will be useful,
  12:/Library/DaisyToolchain/0.1.3-ARM/arm/arm-none-eabi/include/c++/10.3.1/bits/stl_algobase.h **** // but WITHOUT ANY WARRANTY; without even the implied warranty of
  13:/Library/DaisyToolchain/0.1.3-ARM/arm/arm-none-eabi/include/c++/10.3.1/bits/stl_algobase.h **** // MERCHANTABILITY or FITNESS FOR A PARTICULAR PURPOSE.  See the
  14:/Library/DaisyToolchain/0.1.3-ARM/arm/arm-none-eabi/include/c++/10.3.1/bits/stl_algobase.h **** // GNU General Public License for more details.
  15:/Library/DaisyToolchain/0.1.3-ARM/arm/arm-none-eabi/include/c++/10.3.1/bits/stl_algobase.h **** 
  16:/Library/DaisyToolchain/0.1.3-ARM/arm/arm-none-eabi/include/c++/10.3.1/bits/stl_algobase.h **** // Under Section 7 of GPL version 3, you are granted additional
  17:/Library/DaisyToolchain/0.1.3-ARM/arm/arm-none-eabi/include/c++/10.3.1/bits/stl_algobase.h **** // permissions described in the GCC Runtime Library Exception, version
  18:/Library/DaisyToolchain/0.1.3-ARM/arm/arm-none-eabi/include/c++/10.3.1/bits/stl_algobase.h **** // 3.1, as published by the Free Software Foundation.
  19:/Library/DaisyToolchain/0.1.3-ARM/arm/arm-none-eabi/include/c++/10.3.1/bits/stl_algobase.h **** 
  20:/Library/DaisyToolchain/0.1.3-ARM/arm/arm-none-eabi/include/c++/10.3.1/bits/stl_algobase.h **** // You should have received a copy of the GNU General Public License and
  21:/Library/DaisyToolchain/0.1.3-ARM/arm/arm-none-eabi/include/c++/10.3.1/bits/stl_algobase.h **** // a copy of the GCC Runtime Library Exception along with this program;
  22:/Library/DaisyToolchain/0.1.3-ARM/arm/arm-none-eabi/include/c++/10.3.1/bits/stl_algobase.h **** // see the files COPYING3 and COPYING.RUNTIME respectively.  If not, see
  23:/Library/DaisyToolchain/0.1.3-ARM/arm/arm-none-eabi/include/c++/10.3.1/bits/stl_algobase.h **** // <http://www.gnu.org/licenses/>.
  24:/Library/DaisyToolchain/0.1.3-ARM/arm/arm-none-eabi/include/c++/10.3.1/bits/stl_algobase.h **** 
  25:/Library/DaisyToolchain/0.1.3-ARM/arm/arm-none-eabi/include/c++/10.3.1/bits/stl_algobase.h **** /*
  26:/Library/DaisyToolchain/0.1.3-ARM/arm/arm-none-eabi/include/c++/10.3.1/bits/stl_algobase.h ****  *
  27:/Library/DaisyToolchain/0.1.3-ARM/arm/arm-none-eabi/include/c++/10.3.1/bits/stl_algobase.h ****  * Copyright (c) 1994
  28:/Library/DaisyToolchain/0.1.3-ARM/arm/arm-none-eabi/include/c++/10.3.1/bits/stl_algobase.h ****  * Hewlett-Packard Company
  29:/Library/DaisyToolchain/0.1.3-ARM/arm/arm-none-eabi/include/c++/10.3.1/bits/stl_algobase.h ****  *
  30:/Library/DaisyToolchain/0.1.3-ARM/arm/arm-none-eabi/include/c++/10.3.1/bits/stl_algobase.h ****  * Permission to use, copy, modify, distribute and sell this software
  31:/Library/DaisyToolchain/0.1.3-ARM/arm/arm-none-eabi/include/c++/10.3.1/bits/stl_algobase.h ****  * and its documentation for any purpose is hereby granted without fee,
  32:/Library/DaisyToolchain/0.1.3-ARM/arm/arm-none-eabi/include/c++/10.3.1/bits/stl_algobase.h ****  * provided that the above copyright notice appear in all copies and
  33:/Library/DaisyToolchain/0.1.3-ARM/arm/arm-none-eabi/include/c++/10.3.1/bits/stl_algobase.h ****  * that both that copyright notice and this permission notice appear
  34:/Library/DaisyToolchain/0.1.3-ARM/arm/arm-none-eabi/include/c++/10.3.1/bits/stl_algobase.h ****  * in supporting documentation.  Hewlett-Packard Company makes no
  35:/Library/DaisyToolchain/0.1.3-ARM/arm/arm-none-eabi/include/c++/10.3.1/bits/stl_algobase.h ****  * representations about the suitability of this software for any
  36:/Library/DaisyToolchain/0.1.3-ARM/arm/arm-none-eabi/include/c++/10.3.1/bits/stl_algobase.h ****  * purpose.  It is provided "as is" without express or implied warranty.
  37:/Library/DaisyToolchain/0.1.3-ARM/arm/arm-none-eabi/include/c++/10.3.1/bits/stl_algobase.h ****  *
  38:/Library/DaisyToolchain/0.1.3-ARM/arm/arm-none-eabi/include/c++/10.3.1/bits/stl_algobase.h ****  *
  39:/Library/DaisyToolchain/0.1.3-ARM/arm/arm-none-eabi/include/c++/10.3.1/bits/stl_algobase.h ****  * Copyright (c) 1996-1998
  40:/Library/DaisyToolchain/0.1.3-ARM/arm/arm-none-eabi/include/c++/10.3.1/bits/stl_algobase.h ****  * Silicon Graphics Computer Systems, Inc.
  41:/Library/DaisyToolchain/0.1.3-ARM/arm/arm-none-eabi/include/c++/10.3.1/bits/stl_algobase.h ****  *
  42:/Library/DaisyToolchain/0.1.3-ARM/arm/arm-none-eabi/include/c++/10.3.1/bits/stl_algobase.h ****  * Permission to use, copy, modify, distribute and sell this software
  43:/Library/DaisyToolchain/0.1.3-ARM/arm/arm-none-eabi/include/c++/10.3.1/bits/stl_algobase.h ****  * and its documentation for any purpose is hereby granted without fee,
ARM GAS  /var/folders/xd/16jvbr6j24q9nvtpm0qtw3240000gn/T//cch9jPA2.s 			page 145


  44:/Library/DaisyToolchain/0.1.3-ARM/arm/arm-none-eabi/include/c++/10.3.1/bits/stl_algobase.h ****  * provided that the above copyright notice appear in all copies and
  45:/Library/DaisyToolchain/0.1.3-ARM/arm/arm-none-eabi/include/c++/10.3.1/bits/stl_algobase.h ****  * that both that copyright notice and this permission notice appear
  46:/Library/DaisyToolchain/0.1.3-ARM/arm/arm-none-eabi/include/c++/10.3.1/bits/stl_algobase.h ****  * in supporting documentation.  Silicon Graphics makes no
  47:/Library/DaisyToolchain/0.1.3-ARM/arm/arm-none-eabi/include/c++/10.3.1/bits/stl_algobase.h ****  * representations about the suitability of this software for any
  48:/Library/DaisyToolchain/0.1.3-ARM/arm/arm-none-eabi/include/c++/10.3.1/bits/stl_algobase.h ****  * purpose.  It is provided "as is" without express or implied warranty.
  49:/Library/DaisyToolchain/0.1.3-ARM/arm/arm-none-eabi/include/c++/10.3.1/bits/stl_algobase.h ****  */
  50:/Library/DaisyToolchain/0.1.3-ARM/arm/arm-none-eabi/include/c++/10.3.1/bits/stl_algobase.h **** 
  51:/Library/DaisyToolchain/0.1.3-ARM/arm/arm-none-eabi/include/c++/10.3.1/bits/stl_algobase.h **** /** @file bits/stl_algobase.h
  52:/Library/DaisyToolchain/0.1.3-ARM/arm/arm-none-eabi/include/c++/10.3.1/bits/stl_algobase.h ****  *  This is an internal header file, included by other library headers.
  53:/Library/DaisyToolchain/0.1.3-ARM/arm/arm-none-eabi/include/c++/10.3.1/bits/stl_algobase.h ****  *  Do not attempt to use it directly. @headername{algorithm}
  54:/Library/DaisyToolchain/0.1.3-ARM/arm/arm-none-eabi/include/c++/10.3.1/bits/stl_algobase.h ****  */
  55:/Library/DaisyToolchain/0.1.3-ARM/arm/arm-none-eabi/include/c++/10.3.1/bits/stl_algobase.h **** 
  56:/Library/DaisyToolchain/0.1.3-ARM/arm/arm-none-eabi/include/c++/10.3.1/bits/stl_algobase.h **** #ifndef _STL_ALGOBASE_H
  57:/Library/DaisyToolchain/0.1.3-ARM/arm/arm-none-eabi/include/c++/10.3.1/bits/stl_algobase.h **** #define _STL_ALGOBASE_H 1
  58:/Library/DaisyToolchain/0.1.3-ARM/arm/arm-none-eabi/include/c++/10.3.1/bits/stl_algobase.h **** 
  59:/Library/DaisyToolchain/0.1.3-ARM/arm/arm-none-eabi/include/c++/10.3.1/bits/stl_algobase.h **** #include <bits/c++config.h>
  60:/Library/DaisyToolchain/0.1.3-ARM/arm/arm-none-eabi/include/c++/10.3.1/bits/stl_algobase.h **** #include <bits/functexcept.h>
  61:/Library/DaisyToolchain/0.1.3-ARM/arm/arm-none-eabi/include/c++/10.3.1/bits/stl_algobase.h **** #include <bits/cpp_type_traits.h>
  62:/Library/DaisyToolchain/0.1.3-ARM/arm/arm-none-eabi/include/c++/10.3.1/bits/stl_algobase.h **** #include <ext/type_traits.h>
  63:/Library/DaisyToolchain/0.1.3-ARM/arm/arm-none-eabi/include/c++/10.3.1/bits/stl_algobase.h **** #include <ext/numeric_traits.h>
  64:/Library/DaisyToolchain/0.1.3-ARM/arm/arm-none-eabi/include/c++/10.3.1/bits/stl_algobase.h **** #include <bits/stl_pair.h>
  65:/Library/DaisyToolchain/0.1.3-ARM/arm/arm-none-eabi/include/c++/10.3.1/bits/stl_algobase.h **** #include <bits/stl_iterator_base_types.h>
  66:/Library/DaisyToolchain/0.1.3-ARM/arm/arm-none-eabi/include/c++/10.3.1/bits/stl_algobase.h **** #include <bits/stl_iterator_base_funcs.h>
  67:/Library/DaisyToolchain/0.1.3-ARM/arm/arm-none-eabi/include/c++/10.3.1/bits/stl_algobase.h **** #include <bits/stl_iterator.h>
  68:/Library/DaisyToolchain/0.1.3-ARM/arm/arm-none-eabi/include/c++/10.3.1/bits/stl_algobase.h **** #include <bits/concept_check.h>
  69:/Library/DaisyToolchain/0.1.3-ARM/arm/arm-none-eabi/include/c++/10.3.1/bits/stl_algobase.h **** #include <debug/debug.h>
  70:/Library/DaisyToolchain/0.1.3-ARM/arm/arm-none-eabi/include/c++/10.3.1/bits/stl_algobase.h **** #include <bits/move.h> // For std::swap
  71:/Library/DaisyToolchain/0.1.3-ARM/arm/arm-none-eabi/include/c++/10.3.1/bits/stl_algobase.h **** #include <bits/predefined_ops.h>
  72:/Library/DaisyToolchain/0.1.3-ARM/arm/arm-none-eabi/include/c++/10.3.1/bits/stl_algobase.h **** #if __cplusplus >= 201103L
  73:/Library/DaisyToolchain/0.1.3-ARM/arm/arm-none-eabi/include/c++/10.3.1/bits/stl_algobase.h **** # include <type_traits>
  74:/Library/DaisyToolchain/0.1.3-ARM/arm/arm-none-eabi/include/c++/10.3.1/bits/stl_algobase.h **** #endif
  75:/Library/DaisyToolchain/0.1.3-ARM/arm/arm-none-eabi/include/c++/10.3.1/bits/stl_algobase.h **** #if __cplusplus > 201703L
  76:/Library/DaisyToolchain/0.1.3-ARM/arm/arm-none-eabi/include/c++/10.3.1/bits/stl_algobase.h **** # include <compare>
  77:/Library/DaisyToolchain/0.1.3-ARM/arm/arm-none-eabi/include/c++/10.3.1/bits/stl_algobase.h **** #endif
  78:/Library/DaisyToolchain/0.1.3-ARM/arm/arm-none-eabi/include/c++/10.3.1/bits/stl_algobase.h **** 
  79:/Library/DaisyToolchain/0.1.3-ARM/arm/arm-none-eabi/include/c++/10.3.1/bits/stl_algobase.h **** namespace std _GLIBCXX_VISIBILITY(default)
  80:/Library/DaisyToolchain/0.1.3-ARM/arm/arm-none-eabi/include/c++/10.3.1/bits/stl_algobase.h **** {
  81:/Library/DaisyToolchain/0.1.3-ARM/arm/arm-none-eabi/include/c++/10.3.1/bits/stl_algobase.h **** _GLIBCXX_BEGIN_NAMESPACE_VERSION
  82:/Library/DaisyToolchain/0.1.3-ARM/arm/arm-none-eabi/include/c++/10.3.1/bits/stl_algobase.h **** 
  83:/Library/DaisyToolchain/0.1.3-ARM/arm/arm-none-eabi/include/c++/10.3.1/bits/stl_algobase.h ****   /*
  84:/Library/DaisyToolchain/0.1.3-ARM/arm/arm-none-eabi/include/c++/10.3.1/bits/stl_algobase.h ****    * A constexpr wrapper for __builtin_memcmp.
  85:/Library/DaisyToolchain/0.1.3-ARM/arm/arm-none-eabi/include/c++/10.3.1/bits/stl_algobase.h ****    * @param __num The number of elements of type _Tp (not bytes).
  86:/Library/DaisyToolchain/0.1.3-ARM/arm/arm-none-eabi/include/c++/10.3.1/bits/stl_algobase.h ****    */
  87:/Library/DaisyToolchain/0.1.3-ARM/arm/arm-none-eabi/include/c++/10.3.1/bits/stl_algobase.h ****   template<typename _Tp, typename _Up>
  88:/Library/DaisyToolchain/0.1.3-ARM/arm/arm-none-eabi/include/c++/10.3.1/bits/stl_algobase.h ****     _GLIBCXX14_CONSTEXPR
  89:/Library/DaisyToolchain/0.1.3-ARM/arm/arm-none-eabi/include/c++/10.3.1/bits/stl_algobase.h ****     inline int
  90:/Library/DaisyToolchain/0.1.3-ARM/arm/arm-none-eabi/include/c++/10.3.1/bits/stl_algobase.h ****     __memcmp(const _Tp* __first1, const _Up* __first2, size_t __num)
  91:/Library/DaisyToolchain/0.1.3-ARM/arm/arm-none-eabi/include/c++/10.3.1/bits/stl_algobase.h ****     {
  92:/Library/DaisyToolchain/0.1.3-ARM/arm/arm-none-eabi/include/c++/10.3.1/bits/stl_algobase.h **** #if __cplusplus >= 201103L
  93:/Library/DaisyToolchain/0.1.3-ARM/arm/arm-none-eabi/include/c++/10.3.1/bits/stl_algobase.h ****       static_assert(sizeof(_Tp) == sizeof(_Up), "can be compared with memcmp");
  94:/Library/DaisyToolchain/0.1.3-ARM/arm/arm-none-eabi/include/c++/10.3.1/bits/stl_algobase.h **** #endif
  95:/Library/DaisyToolchain/0.1.3-ARM/arm/arm-none-eabi/include/c++/10.3.1/bits/stl_algobase.h **** #ifdef __cpp_lib_is_constant_evaluated
  96:/Library/DaisyToolchain/0.1.3-ARM/arm/arm-none-eabi/include/c++/10.3.1/bits/stl_algobase.h ****       if (std::is_constant_evaluated())
  97:/Library/DaisyToolchain/0.1.3-ARM/arm/arm-none-eabi/include/c++/10.3.1/bits/stl_algobase.h **** 	{
  98:/Library/DaisyToolchain/0.1.3-ARM/arm/arm-none-eabi/include/c++/10.3.1/bits/stl_algobase.h **** 	  for(; __num > 0; ++__first1, ++__first2, --__num)
  99:/Library/DaisyToolchain/0.1.3-ARM/arm/arm-none-eabi/include/c++/10.3.1/bits/stl_algobase.h **** 	    if (*__first1 != *__first2)
 100:/Library/DaisyToolchain/0.1.3-ARM/arm/arm-none-eabi/include/c++/10.3.1/bits/stl_algobase.h **** 	      return *__first1 < *__first2 ? -1 : 1;
ARM GAS  /var/folders/xd/16jvbr6j24q9nvtpm0qtw3240000gn/T//cch9jPA2.s 			page 146


 101:/Library/DaisyToolchain/0.1.3-ARM/arm/arm-none-eabi/include/c++/10.3.1/bits/stl_algobase.h **** 	  return 0;
 102:/Library/DaisyToolchain/0.1.3-ARM/arm/arm-none-eabi/include/c++/10.3.1/bits/stl_algobase.h **** 	}
 103:/Library/DaisyToolchain/0.1.3-ARM/arm/arm-none-eabi/include/c++/10.3.1/bits/stl_algobase.h ****       else
 104:/Library/DaisyToolchain/0.1.3-ARM/arm/arm-none-eabi/include/c++/10.3.1/bits/stl_algobase.h **** #endif
 105:/Library/DaisyToolchain/0.1.3-ARM/arm/arm-none-eabi/include/c++/10.3.1/bits/stl_algobase.h **** 	return __builtin_memcmp(__first1, __first2, sizeof(_Tp) * __num);
 106:/Library/DaisyToolchain/0.1.3-ARM/arm/arm-none-eabi/include/c++/10.3.1/bits/stl_algobase.h ****     }
 107:/Library/DaisyToolchain/0.1.3-ARM/arm/arm-none-eabi/include/c++/10.3.1/bits/stl_algobase.h **** 
 108:/Library/DaisyToolchain/0.1.3-ARM/arm/arm-none-eabi/include/c++/10.3.1/bits/stl_algobase.h **** #if __cplusplus < 201103L
 109:/Library/DaisyToolchain/0.1.3-ARM/arm/arm-none-eabi/include/c++/10.3.1/bits/stl_algobase.h ****   // See http://gcc.gnu.org/ml/libstdc++/2004-08/msg00167.html: in a
 110:/Library/DaisyToolchain/0.1.3-ARM/arm/arm-none-eabi/include/c++/10.3.1/bits/stl_algobase.h ****   // nutshell, we are partially implementing the resolution of DR 187,
 111:/Library/DaisyToolchain/0.1.3-ARM/arm/arm-none-eabi/include/c++/10.3.1/bits/stl_algobase.h ****   // when it's safe, i.e., the value_types are equal.
 112:/Library/DaisyToolchain/0.1.3-ARM/arm/arm-none-eabi/include/c++/10.3.1/bits/stl_algobase.h ****   template<bool _BoolType>
 113:/Library/DaisyToolchain/0.1.3-ARM/arm/arm-none-eabi/include/c++/10.3.1/bits/stl_algobase.h ****     struct __iter_swap
 114:/Library/DaisyToolchain/0.1.3-ARM/arm/arm-none-eabi/include/c++/10.3.1/bits/stl_algobase.h ****     {
 115:/Library/DaisyToolchain/0.1.3-ARM/arm/arm-none-eabi/include/c++/10.3.1/bits/stl_algobase.h ****       template<typename _ForwardIterator1, typename _ForwardIterator2>
 116:/Library/DaisyToolchain/0.1.3-ARM/arm/arm-none-eabi/include/c++/10.3.1/bits/stl_algobase.h **** 	static void
 117:/Library/DaisyToolchain/0.1.3-ARM/arm/arm-none-eabi/include/c++/10.3.1/bits/stl_algobase.h **** 	iter_swap(_ForwardIterator1 __a, _ForwardIterator2 __b)
 118:/Library/DaisyToolchain/0.1.3-ARM/arm/arm-none-eabi/include/c++/10.3.1/bits/stl_algobase.h **** 	{
 119:/Library/DaisyToolchain/0.1.3-ARM/arm/arm-none-eabi/include/c++/10.3.1/bits/stl_algobase.h **** 	  typedef typename iterator_traits<_ForwardIterator1>::value_type
 120:/Library/DaisyToolchain/0.1.3-ARM/arm/arm-none-eabi/include/c++/10.3.1/bits/stl_algobase.h **** 	    _ValueType1;
 121:/Library/DaisyToolchain/0.1.3-ARM/arm/arm-none-eabi/include/c++/10.3.1/bits/stl_algobase.h **** 	  _ValueType1 __tmp = *__a;
 122:/Library/DaisyToolchain/0.1.3-ARM/arm/arm-none-eabi/include/c++/10.3.1/bits/stl_algobase.h **** 	  *__a = *__b;
 123:/Library/DaisyToolchain/0.1.3-ARM/arm/arm-none-eabi/include/c++/10.3.1/bits/stl_algobase.h **** 	  *__b = __tmp;
 124:/Library/DaisyToolchain/0.1.3-ARM/arm/arm-none-eabi/include/c++/10.3.1/bits/stl_algobase.h **** 	}
 125:/Library/DaisyToolchain/0.1.3-ARM/arm/arm-none-eabi/include/c++/10.3.1/bits/stl_algobase.h ****     };
 126:/Library/DaisyToolchain/0.1.3-ARM/arm/arm-none-eabi/include/c++/10.3.1/bits/stl_algobase.h **** 
 127:/Library/DaisyToolchain/0.1.3-ARM/arm/arm-none-eabi/include/c++/10.3.1/bits/stl_algobase.h ****   template<>
 128:/Library/DaisyToolchain/0.1.3-ARM/arm/arm-none-eabi/include/c++/10.3.1/bits/stl_algobase.h ****     struct __iter_swap<true>
 129:/Library/DaisyToolchain/0.1.3-ARM/arm/arm-none-eabi/include/c++/10.3.1/bits/stl_algobase.h ****     {
 130:/Library/DaisyToolchain/0.1.3-ARM/arm/arm-none-eabi/include/c++/10.3.1/bits/stl_algobase.h ****       template<typename _ForwardIterator1, typename _ForwardIterator2>
 131:/Library/DaisyToolchain/0.1.3-ARM/arm/arm-none-eabi/include/c++/10.3.1/bits/stl_algobase.h **** 	static void
 132:/Library/DaisyToolchain/0.1.3-ARM/arm/arm-none-eabi/include/c++/10.3.1/bits/stl_algobase.h **** 	iter_swap(_ForwardIterator1 __a, _ForwardIterator2 __b)
 133:/Library/DaisyToolchain/0.1.3-ARM/arm/arm-none-eabi/include/c++/10.3.1/bits/stl_algobase.h **** 	{
 134:/Library/DaisyToolchain/0.1.3-ARM/arm/arm-none-eabi/include/c++/10.3.1/bits/stl_algobase.h **** 	  swap(*__a, *__b);
 135:/Library/DaisyToolchain/0.1.3-ARM/arm/arm-none-eabi/include/c++/10.3.1/bits/stl_algobase.h **** 	}
 136:/Library/DaisyToolchain/0.1.3-ARM/arm/arm-none-eabi/include/c++/10.3.1/bits/stl_algobase.h ****     };
 137:/Library/DaisyToolchain/0.1.3-ARM/arm/arm-none-eabi/include/c++/10.3.1/bits/stl_algobase.h **** #endif // C++03
 138:/Library/DaisyToolchain/0.1.3-ARM/arm/arm-none-eabi/include/c++/10.3.1/bits/stl_algobase.h **** 
 139:/Library/DaisyToolchain/0.1.3-ARM/arm/arm-none-eabi/include/c++/10.3.1/bits/stl_algobase.h ****   /**
 140:/Library/DaisyToolchain/0.1.3-ARM/arm/arm-none-eabi/include/c++/10.3.1/bits/stl_algobase.h ****    *  @brief Swaps the contents of two iterators.
 141:/Library/DaisyToolchain/0.1.3-ARM/arm/arm-none-eabi/include/c++/10.3.1/bits/stl_algobase.h ****    *  @ingroup mutating_algorithms
 142:/Library/DaisyToolchain/0.1.3-ARM/arm/arm-none-eabi/include/c++/10.3.1/bits/stl_algobase.h ****    *  @param  __a  An iterator.
 143:/Library/DaisyToolchain/0.1.3-ARM/arm/arm-none-eabi/include/c++/10.3.1/bits/stl_algobase.h ****    *  @param  __b  Another iterator.
 144:/Library/DaisyToolchain/0.1.3-ARM/arm/arm-none-eabi/include/c++/10.3.1/bits/stl_algobase.h ****    *  @return   Nothing.
 145:/Library/DaisyToolchain/0.1.3-ARM/arm/arm-none-eabi/include/c++/10.3.1/bits/stl_algobase.h ****    *
 146:/Library/DaisyToolchain/0.1.3-ARM/arm/arm-none-eabi/include/c++/10.3.1/bits/stl_algobase.h ****    *  This function swaps the values pointed to by two iterators, not the
 147:/Library/DaisyToolchain/0.1.3-ARM/arm/arm-none-eabi/include/c++/10.3.1/bits/stl_algobase.h ****    *  iterators themselves.
 148:/Library/DaisyToolchain/0.1.3-ARM/arm/arm-none-eabi/include/c++/10.3.1/bits/stl_algobase.h ****   */
 149:/Library/DaisyToolchain/0.1.3-ARM/arm/arm-none-eabi/include/c++/10.3.1/bits/stl_algobase.h ****   template<typename _ForwardIterator1, typename _ForwardIterator2>
 150:/Library/DaisyToolchain/0.1.3-ARM/arm/arm-none-eabi/include/c++/10.3.1/bits/stl_algobase.h ****     _GLIBCXX20_CONSTEXPR
 151:/Library/DaisyToolchain/0.1.3-ARM/arm/arm-none-eabi/include/c++/10.3.1/bits/stl_algobase.h ****     inline void
 152:/Library/DaisyToolchain/0.1.3-ARM/arm/arm-none-eabi/include/c++/10.3.1/bits/stl_algobase.h ****     iter_swap(_ForwardIterator1 __a, _ForwardIterator2 __b)
 153:/Library/DaisyToolchain/0.1.3-ARM/arm/arm-none-eabi/include/c++/10.3.1/bits/stl_algobase.h ****     {
 154:/Library/DaisyToolchain/0.1.3-ARM/arm/arm-none-eabi/include/c++/10.3.1/bits/stl_algobase.h ****       // concept requirements
 155:/Library/DaisyToolchain/0.1.3-ARM/arm/arm-none-eabi/include/c++/10.3.1/bits/stl_algobase.h ****       __glibcxx_function_requires(_Mutable_ForwardIteratorConcept<
 156:/Library/DaisyToolchain/0.1.3-ARM/arm/arm-none-eabi/include/c++/10.3.1/bits/stl_algobase.h **** 				  _ForwardIterator1>)
 157:/Library/DaisyToolchain/0.1.3-ARM/arm/arm-none-eabi/include/c++/10.3.1/bits/stl_algobase.h ****       __glibcxx_function_requires(_Mutable_ForwardIteratorConcept<
ARM GAS  /var/folders/xd/16jvbr6j24q9nvtpm0qtw3240000gn/T//cch9jPA2.s 			page 147


 158:/Library/DaisyToolchain/0.1.3-ARM/arm/arm-none-eabi/include/c++/10.3.1/bits/stl_algobase.h **** 				  _ForwardIterator2>)
 159:/Library/DaisyToolchain/0.1.3-ARM/arm/arm-none-eabi/include/c++/10.3.1/bits/stl_algobase.h **** 
 160:/Library/DaisyToolchain/0.1.3-ARM/arm/arm-none-eabi/include/c++/10.3.1/bits/stl_algobase.h **** #if __cplusplus < 201103L
 161:/Library/DaisyToolchain/0.1.3-ARM/arm/arm-none-eabi/include/c++/10.3.1/bits/stl_algobase.h ****       typedef typename iterator_traits<_ForwardIterator1>::value_type
 162:/Library/DaisyToolchain/0.1.3-ARM/arm/arm-none-eabi/include/c++/10.3.1/bits/stl_algobase.h **** 	_ValueType1;
 163:/Library/DaisyToolchain/0.1.3-ARM/arm/arm-none-eabi/include/c++/10.3.1/bits/stl_algobase.h ****       typedef typename iterator_traits<_ForwardIterator2>::value_type
 164:/Library/DaisyToolchain/0.1.3-ARM/arm/arm-none-eabi/include/c++/10.3.1/bits/stl_algobase.h **** 	_ValueType2;
 165:/Library/DaisyToolchain/0.1.3-ARM/arm/arm-none-eabi/include/c++/10.3.1/bits/stl_algobase.h **** 
 166:/Library/DaisyToolchain/0.1.3-ARM/arm/arm-none-eabi/include/c++/10.3.1/bits/stl_algobase.h ****       __glibcxx_function_requires(_ConvertibleConcept<_ValueType1,
 167:/Library/DaisyToolchain/0.1.3-ARM/arm/arm-none-eabi/include/c++/10.3.1/bits/stl_algobase.h **** 				  _ValueType2>)
 168:/Library/DaisyToolchain/0.1.3-ARM/arm/arm-none-eabi/include/c++/10.3.1/bits/stl_algobase.h ****       __glibcxx_function_requires(_ConvertibleConcept<_ValueType2,
 169:/Library/DaisyToolchain/0.1.3-ARM/arm/arm-none-eabi/include/c++/10.3.1/bits/stl_algobase.h **** 				  _ValueType1>)
 170:/Library/DaisyToolchain/0.1.3-ARM/arm/arm-none-eabi/include/c++/10.3.1/bits/stl_algobase.h **** 
 171:/Library/DaisyToolchain/0.1.3-ARM/arm/arm-none-eabi/include/c++/10.3.1/bits/stl_algobase.h ****       typedef typename iterator_traits<_ForwardIterator1>::reference
 172:/Library/DaisyToolchain/0.1.3-ARM/arm/arm-none-eabi/include/c++/10.3.1/bits/stl_algobase.h **** 	_ReferenceType1;
 173:/Library/DaisyToolchain/0.1.3-ARM/arm/arm-none-eabi/include/c++/10.3.1/bits/stl_algobase.h ****       typedef typename iterator_traits<_ForwardIterator2>::reference
 174:/Library/DaisyToolchain/0.1.3-ARM/arm/arm-none-eabi/include/c++/10.3.1/bits/stl_algobase.h **** 	_ReferenceType2;
 175:/Library/DaisyToolchain/0.1.3-ARM/arm/arm-none-eabi/include/c++/10.3.1/bits/stl_algobase.h ****       std::__iter_swap<__are_same<_ValueType1, _ValueType2>::__value
 176:/Library/DaisyToolchain/0.1.3-ARM/arm/arm-none-eabi/include/c++/10.3.1/bits/stl_algobase.h **** 	&& __are_same<_ValueType1&, _ReferenceType1>::__value
 177:/Library/DaisyToolchain/0.1.3-ARM/arm/arm-none-eabi/include/c++/10.3.1/bits/stl_algobase.h **** 	&& __are_same<_ValueType2&, _ReferenceType2>::__value>::
 178:/Library/DaisyToolchain/0.1.3-ARM/arm/arm-none-eabi/include/c++/10.3.1/bits/stl_algobase.h **** 	iter_swap(__a, __b);
 179:/Library/DaisyToolchain/0.1.3-ARM/arm/arm-none-eabi/include/c++/10.3.1/bits/stl_algobase.h **** #else
 180:/Library/DaisyToolchain/0.1.3-ARM/arm/arm-none-eabi/include/c++/10.3.1/bits/stl_algobase.h ****       // _GLIBCXX_RESOLVE_LIB_DEFECTS
 181:/Library/DaisyToolchain/0.1.3-ARM/arm/arm-none-eabi/include/c++/10.3.1/bits/stl_algobase.h ****       // 187. iter_swap underspecified
 182:/Library/DaisyToolchain/0.1.3-ARM/arm/arm-none-eabi/include/c++/10.3.1/bits/stl_algobase.h ****       swap(*__a, *__b);
 183:/Library/DaisyToolchain/0.1.3-ARM/arm/arm-none-eabi/include/c++/10.3.1/bits/stl_algobase.h **** #endif
 184:/Library/DaisyToolchain/0.1.3-ARM/arm/arm-none-eabi/include/c++/10.3.1/bits/stl_algobase.h ****     }
 185:/Library/DaisyToolchain/0.1.3-ARM/arm/arm-none-eabi/include/c++/10.3.1/bits/stl_algobase.h **** 
 186:/Library/DaisyToolchain/0.1.3-ARM/arm/arm-none-eabi/include/c++/10.3.1/bits/stl_algobase.h ****   /**
 187:/Library/DaisyToolchain/0.1.3-ARM/arm/arm-none-eabi/include/c++/10.3.1/bits/stl_algobase.h ****    *  @brief Swap the elements of two sequences.
 188:/Library/DaisyToolchain/0.1.3-ARM/arm/arm-none-eabi/include/c++/10.3.1/bits/stl_algobase.h ****    *  @ingroup mutating_algorithms
 189:/Library/DaisyToolchain/0.1.3-ARM/arm/arm-none-eabi/include/c++/10.3.1/bits/stl_algobase.h ****    *  @param  __first1  A forward iterator.
 190:/Library/DaisyToolchain/0.1.3-ARM/arm/arm-none-eabi/include/c++/10.3.1/bits/stl_algobase.h ****    *  @param  __last1   A forward iterator.
 191:/Library/DaisyToolchain/0.1.3-ARM/arm/arm-none-eabi/include/c++/10.3.1/bits/stl_algobase.h ****    *  @param  __first2  A forward iterator.
 192:/Library/DaisyToolchain/0.1.3-ARM/arm/arm-none-eabi/include/c++/10.3.1/bits/stl_algobase.h ****    *  @return   An iterator equal to @p first2+(last1-first1).
 193:/Library/DaisyToolchain/0.1.3-ARM/arm/arm-none-eabi/include/c++/10.3.1/bits/stl_algobase.h ****    *
 194:/Library/DaisyToolchain/0.1.3-ARM/arm/arm-none-eabi/include/c++/10.3.1/bits/stl_algobase.h ****    *  Swaps each element in the range @p [first1,last1) with the
 195:/Library/DaisyToolchain/0.1.3-ARM/arm/arm-none-eabi/include/c++/10.3.1/bits/stl_algobase.h ****    *  corresponding element in the range @p [first2,(last1-first1)).
 196:/Library/DaisyToolchain/0.1.3-ARM/arm/arm-none-eabi/include/c++/10.3.1/bits/stl_algobase.h ****    *  The ranges must not overlap.
 197:/Library/DaisyToolchain/0.1.3-ARM/arm/arm-none-eabi/include/c++/10.3.1/bits/stl_algobase.h ****   */
 198:/Library/DaisyToolchain/0.1.3-ARM/arm/arm-none-eabi/include/c++/10.3.1/bits/stl_algobase.h ****   template<typename _ForwardIterator1, typename _ForwardIterator2>
 199:/Library/DaisyToolchain/0.1.3-ARM/arm/arm-none-eabi/include/c++/10.3.1/bits/stl_algobase.h ****     _GLIBCXX20_CONSTEXPR
 200:/Library/DaisyToolchain/0.1.3-ARM/arm/arm-none-eabi/include/c++/10.3.1/bits/stl_algobase.h ****     _ForwardIterator2
 201:/Library/DaisyToolchain/0.1.3-ARM/arm/arm-none-eabi/include/c++/10.3.1/bits/stl_algobase.h ****     swap_ranges(_ForwardIterator1 __first1, _ForwardIterator1 __last1,
 202:/Library/DaisyToolchain/0.1.3-ARM/arm/arm-none-eabi/include/c++/10.3.1/bits/stl_algobase.h **** 		_ForwardIterator2 __first2)
 203:/Library/DaisyToolchain/0.1.3-ARM/arm/arm-none-eabi/include/c++/10.3.1/bits/stl_algobase.h ****     {
 204:/Library/DaisyToolchain/0.1.3-ARM/arm/arm-none-eabi/include/c++/10.3.1/bits/stl_algobase.h ****       // concept requirements
 205:/Library/DaisyToolchain/0.1.3-ARM/arm/arm-none-eabi/include/c++/10.3.1/bits/stl_algobase.h ****       __glibcxx_function_requires(_Mutable_ForwardIteratorConcept<
 206:/Library/DaisyToolchain/0.1.3-ARM/arm/arm-none-eabi/include/c++/10.3.1/bits/stl_algobase.h **** 				  _ForwardIterator1>)
 207:/Library/DaisyToolchain/0.1.3-ARM/arm/arm-none-eabi/include/c++/10.3.1/bits/stl_algobase.h ****       __glibcxx_function_requires(_Mutable_ForwardIteratorConcept<
 208:/Library/DaisyToolchain/0.1.3-ARM/arm/arm-none-eabi/include/c++/10.3.1/bits/stl_algobase.h **** 				  _ForwardIterator2>)
 209:/Library/DaisyToolchain/0.1.3-ARM/arm/arm-none-eabi/include/c++/10.3.1/bits/stl_algobase.h ****       __glibcxx_requires_valid_range(__first1, __last1);
 210:/Library/DaisyToolchain/0.1.3-ARM/arm/arm-none-eabi/include/c++/10.3.1/bits/stl_algobase.h **** 
 211:/Library/DaisyToolchain/0.1.3-ARM/arm/arm-none-eabi/include/c++/10.3.1/bits/stl_algobase.h ****       for (; __first1 != __last1; ++__first1, (void)++__first2)
 212:/Library/DaisyToolchain/0.1.3-ARM/arm/arm-none-eabi/include/c++/10.3.1/bits/stl_algobase.h **** 	std::iter_swap(__first1, __first2);
 213:/Library/DaisyToolchain/0.1.3-ARM/arm/arm-none-eabi/include/c++/10.3.1/bits/stl_algobase.h ****       return __first2;
 214:/Library/DaisyToolchain/0.1.3-ARM/arm/arm-none-eabi/include/c++/10.3.1/bits/stl_algobase.h ****     }
ARM GAS  /var/folders/xd/16jvbr6j24q9nvtpm0qtw3240000gn/T//cch9jPA2.s 			page 148


 215:/Library/DaisyToolchain/0.1.3-ARM/arm/arm-none-eabi/include/c++/10.3.1/bits/stl_algobase.h **** 
 216:/Library/DaisyToolchain/0.1.3-ARM/arm/arm-none-eabi/include/c++/10.3.1/bits/stl_algobase.h ****   /**
 217:/Library/DaisyToolchain/0.1.3-ARM/arm/arm-none-eabi/include/c++/10.3.1/bits/stl_algobase.h ****    *  @brief This does what you think it does.
 218:/Library/DaisyToolchain/0.1.3-ARM/arm/arm-none-eabi/include/c++/10.3.1/bits/stl_algobase.h ****    *  @ingroup sorting_algorithms
 219:/Library/DaisyToolchain/0.1.3-ARM/arm/arm-none-eabi/include/c++/10.3.1/bits/stl_algobase.h ****    *  @param  __a  A thing of arbitrary type.
 220:/Library/DaisyToolchain/0.1.3-ARM/arm/arm-none-eabi/include/c++/10.3.1/bits/stl_algobase.h ****    *  @param  __b  Another thing of arbitrary type.
 221:/Library/DaisyToolchain/0.1.3-ARM/arm/arm-none-eabi/include/c++/10.3.1/bits/stl_algobase.h ****    *  @return   The lesser of the parameters.
 222:/Library/DaisyToolchain/0.1.3-ARM/arm/arm-none-eabi/include/c++/10.3.1/bits/stl_algobase.h ****    *
 223:/Library/DaisyToolchain/0.1.3-ARM/arm/arm-none-eabi/include/c++/10.3.1/bits/stl_algobase.h ****    *  This is the simple classic generic implementation.  It will work on
 224:/Library/DaisyToolchain/0.1.3-ARM/arm/arm-none-eabi/include/c++/10.3.1/bits/stl_algobase.h ****    *  temporary expressions, since they are only evaluated once, unlike a
 225:/Library/DaisyToolchain/0.1.3-ARM/arm/arm-none-eabi/include/c++/10.3.1/bits/stl_algobase.h ****    *  preprocessor macro.
 226:/Library/DaisyToolchain/0.1.3-ARM/arm/arm-none-eabi/include/c++/10.3.1/bits/stl_algobase.h ****   */
 227:/Library/DaisyToolchain/0.1.3-ARM/arm/arm-none-eabi/include/c++/10.3.1/bits/stl_algobase.h ****   template<typename _Tp>
 228:/Library/DaisyToolchain/0.1.3-ARM/arm/arm-none-eabi/include/c++/10.3.1/bits/stl_algobase.h ****     _GLIBCXX14_CONSTEXPR
 229:/Library/DaisyToolchain/0.1.3-ARM/arm/arm-none-eabi/include/c++/10.3.1/bits/stl_algobase.h ****     inline const _Tp&
 230:/Library/DaisyToolchain/0.1.3-ARM/arm/arm-none-eabi/include/c++/10.3.1/bits/stl_algobase.h ****     min(const _Tp& __a, const _Tp& __b)
 231:/Library/DaisyToolchain/0.1.3-ARM/arm/arm-none-eabi/include/c++/10.3.1/bits/stl_algobase.h ****     {
 232:/Library/DaisyToolchain/0.1.3-ARM/arm/arm-none-eabi/include/c++/10.3.1/bits/stl_algobase.h ****       // concept requirements
 233:/Library/DaisyToolchain/0.1.3-ARM/arm/arm-none-eabi/include/c++/10.3.1/bits/stl_algobase.h ****       __glibcxx_function_requires(_LessThanComparableConcept<_Tp>)
 234:/Library/DaisyToolchain/0.1.3-ARM/arm/arm-none-eabi/include/c++/10.3.1/bits/stl_algobase.h ****       //return __b < __a ? __b : __a;
 235:/Library/DaisyToolchain/0.1.3-ARM/arm/arm-none-eabi/include/c++/10.3.1/bits/stl_algobase.h ****       if (__b < __a)
 236:/Library/DaisyToolchain/0.1.3-ARM/arm/arm-none-eabi/include/c++/10.3.1/bits/stl_algobase.h **** 	return __b;
 237:/Library/DaisyToolchain/0.1.3-ARM/arm/arm-none-eabi/include/c++/10.3.1/bits/stl_algobase.h ****       return __a;
 238:/Library/DaisyToolchain/0.1.3-ARM/arm/arm-none-eabi/include/c++/10.3.1/bits/stl_algobase.h ****     }
 239:/Library/DaisyToolchain/0.1.3-ARM/arm/arm-none-eabi/include/c++/10.3.1/bits/stl_algobase.h **** 
 240:/Library/DaisyToolchain/0.1.3-ARM/arm/arm-none-eabi/include/c++/10.3.1/bits/stl_algobase.h ****   /**
 241:/Library/DaisyToolchain/0.1.3-ARM/arm/arm-none-eabi/include/c++/10.3.1/bits/stl_algobase.h ****    *  @brief This does what you think it does.
 242:/Library/DaisyToolchain/0.1.3-ARM/arm/arm-none-eabi/include/c++/10.3.1/bits/stl_algobase.h ****    *  @ingroup sorting_algorithms
 243:/Library/DaisyToolchain/0.1.3-ARM/arm/arm-none-eabi/include/c++/10.3.1/bits/stl_algobase.h ****    *  @param  __a  A thing of arbitrary type.
 244:/Library/DaisyToolchain/0.1.3-ARM/arm/arm-none-eabi/include/c++/10.3.1/bits/stl_algobase.h ****    *  @param  __b  Another thing of arbitrary type.
 245:/Library/DaisyToolchain/0.1.3-ARM/arm/arm-none-eabi/include/c++/10.3.1/bits/stl_algobase.h ****    *  @return   The greater of the parameters.
 246:/Library/DaisyToolchain/0.1.3-ARM/arm/arm-none-eabi/include/c++/10.3.1/bits/stl_algobase.h ****    *
 247:/Library/DaisyToolchain/0.1.3-ARM/arm/arm-none-eabi/include/c++/10.3.1/bits/stl_algobase.h ****    *  This is the simple classic generic implementation.  It will work on
 248:/Library/DaisyToolchain/0.1.3-ARM/arm/arm-none-eabi/include/c++/10.3.1/bits/stl_algobase.h ****    *  temporary expressions, since they are only evaluated once, unlike a
 249:/Library/DaisyToolchain/0.1.3-ARM/arm/arm-none-eabi/include/c++/10.3.1/bits/stl_algobase.h ****    *  preprocessor macro.
 250:/Library/DaisyToolchain/0.1.3-ARM/arm/arm-none-eabi/include/c++/10.3.1/bits/stl_algobase.h ****   */
 251:/Library/DaisyToolchain/0.1.3-ARM/arm/arm-none-eabi/include/c++/10.3.1/bits/stl_algobase.h ****   template<typename _Tp>
 252:/Library/DaisyToolchain/0.1.3-ARM/arm/arm-none-eabi/include/c++/10.3.1/bits/stl_algobase.h ****     _GLIBCXX14_CONSTEXPR
 253:/Library/DaisyToolchain/0.1.3-ARM/arm/arm-none-eabi/include/c++/10.3.1/bits/stl_algobase.h ****     inline const _Tp&
 254:/Library/DaisyToolchain/0.1.3-ARM/arm/arm-none-eabi/include/c++/10.3.1/bits/stl_algobase.h ****     max(const _Tp& __a, const _Tp& __b)
 255:/Library/DaisyToolchain/0.1.3-ARM/arm/arm-none-eabi/include/c++/10.3.1/bits/stl_algobase.h ****     {
 256:/Library/DaisyToolchain/0.1.3-ARM/arm/arm-none-eabi/include/c++/10.3.1/bits/stl_algobase.h ****       // concept requirements
 257:/Library/DaisyToolchain/0.1.3-ARM/arm/arm-none-eabi/include/c++/10.3.1/bits/stl_algobase.h ****       __glibcxx_function_requires(_LessThanComparableConcept<_Tp>)
 258:/Library/DaisyToolchain/0.1.3-ARM/arm/arm-none-eabi/include/c++/10.3.1/bits/stl_algobase.h ****       //return  __a < __b ? __b : __a;
 259:/Library/DaisyToolchain/0.1.3-ARM/arm/arm-none-eabi/include/c++/10.3.1/bits/stl_algobase.h ****       if (__a < __b)
 260:/Library/DaisyToolchain/0.1.3-ARM/arm/arm-none-eabi/include/c++/10.3.1/bits/stl_algobase.h **** 	return __b;
 261:/Library/DaisyToolchain/0.1.3-ARM/arm/arm-none-eabi/include/c++/10.3.1/bits/stl_algobase.h ****       return __a;
 262:/Library/DaisyToolchain/0.1.3-ARM/arm/arm-none-eabi/include/c++/10.3.1/bits/stl_algobase.h ****     }
 263:/Library/DaisyToolchain/0.1.3-ARM/arm/arm-none-eabi/include/c++/10.3.1/bits/stl_algobase.h **** 
 264:/Library/DaisyToolchain/0.1.3-ARM/arm/arm-none-eabi/include/c++/10.3.1/bits/stl_algobase.h ****   /**
 265:/Library/DaisyToolchain/0.1.3-ARM/arm/arm-none-eabi/include/c++/10.3.1/bits/stl_algobase.h ****    *  @brief This does what you think it does.
 266:/Library/DaisyToolchain/0.1.3-ARM/arm/arm-none-eabi/include/c++/10.3.1/bits/stl_algobase.h ****    *  @ingroup sorting_algorithms
 267:/Library/DaisyToolchain/0.1.3-ARM/arm/arm-none-eabi/include/c++/10.3.1/bits/stl_algobase.h ****    *  @param  __a  A thing of arbitrary type.
 268:/Library/DaisyToolchain/0.1.3-ARM/arm/arm-none-eabi/include/c++/10.3.1/bits/stl_algobase.h ****    *  @param  __b  Another thing of arbitrary type.
 269:/Library/DaisyToolchain/0.1.3-ARM/arm/arm-none-eabi/include/c++/10.3.1/bits/stl_algobase.h ****    *  @param  __comp  A @link comparison_functors comparison functor@endlink.
 270:/Library/DaisyToolchain/0.1.3-ARM/arm/arm-none-eabi/include/c++/10.3.1/bits/stl_algobase.h ****    *  @return   The lesser of the parameters.
 271:/Library/DaisyToolchain/0.1.3-ARM/arm/arm-none-eabi/include/c++/10.3.1/bits/stl_algobase.h ****    *
ARM GAS  /var/folders/xd/16jvbr6j24q9nvtpm0qtw3240000gn/T//cch9jPA2.s 			page 149


 272:/Library/DaisyToolchain/0.1.3-ARM/arm/arm-none-eabi/include/c++/10.3.1/bits/stl_algobase.h ****    *  This will work on temporary expressions, since they are only evaluated
 273:/Library/DaisyToolchain/0.1.3-ARM/arm/arm-none-eabi/include/c++/10.3.1/bits/stl_algobase.h ****    *  once, unlike a preprocessor macro.
 274:/Library/DaisyToolchain/0.1.3-ARM/arm/arm-none-eabi/include/c++/10.3.1/bits/stl_algobase.h ****   */
 275:/Library/DaisyToolchain/0.1.3-ARM/arm/arm-none-eabi/include/c++/10.3.1/bits/stl_algobase.h ****   template<typename _Tp, typename _Compare>
 276:/Library/DaisyToolchain/0.1.3-ARM/arm/arm-none-eabi/include/c++/10.3.1/bits/stl_algobase.h ****     _GLIBCXX14_CONSTEXPR
 277:/Library/DaisyToolchain/0.1.3-ARM/arm/arm-none-eabi/include/c++/10.3.1/bits/stl_algobase.h ****     inline const _Tp&
 278:/Library/DaisyToolchain/0.1.3-ARM/arm/arm-none-eabi/include/c++/10.3.1/bits/stl_algobase.h ****     min(const _Tp& __a, const _Tp& __b, _Compare __comp)
 279:/Library/DaisyToolchain/0.1.3-ARM/arm/arm-none-eabi/include/c++/10.3.1/bits/stl_algobase.h ****     {
 280:/Library/DaisyToolchain/0.1.3-ARM/arm/arm-none-eabi/include/c++/10.3.1/bits/stl_algobase.h ****       //return __comp(__b, __a) ? __b : __a;
 281:/Library/DaisyToolchain/0.1.3-ARM/arm/arm-none-eabi/include/c++/10.3.1/bits/stl_algobase.h ****       if (__comp(__b, __a))
 282:/Library/DaisyToolchain/0.1.3-ARM/arm/arm-none-eabi/include/c++/10.3.1/bits/stl_algobase.h **** 	return __b;
 283:/Library/DaisyToolchain/0.1.3-ARM/arm/arm-none-eabi/include/c++/10.3.1/bits/stl_algobase.h ****       return __a;
 284:/Library/DaisyToolchain/0.1.3-ARM/arm/arm-none-eabi/include/c++/10.3.1/bits/stl_algobase.h ****     }
 285:/Library/DaisyToolchain/0.1.3-ARM/arm/arm-none-eabi/include/c++/10.3.1/bits/stl_algobase.h **** 
 286:/Library/DaisyToolchain/0.1.3-ARM/arm/arm-none-eabi/include/c++/10.3.1/bits/stl_algobase.h ****   /**
 287:/Library/DaisyToolchain/0.1.3-ARM/arm/arm-none-eabi/include/c++/10.3.1/bits/stl_algobase.h ****    *  @brief This does what you think it does.
 288:/Library/DaisyToolchain/0.1.3-ARM/arm/arm-none-eabi/include/c++/10.3.1/bits/stl_algobase.h ****    *  @ingroup sorting_algorithms
 289:/Library/DaisyToolchain/0.1.3-ARM/arm/arm-none-eabi/include/c++/10.3.1/bits/stl_algobase.h ****    *  @param  __a  A thing of arbitrary type.
 290:/Library/DaisyToolchain/0.1.3-ARM/arm/arm-none-eabi/include/c++/10.3.1/bits/stl_algobase.h ****    *  @param  __b  Another thing of arbitrary type.
 291:/Library/DaisyToolchain/0.1.3-ARM/arm/arm-none-eabi/include/c++/10.3.1/bits/stl_algobase.h ****    *  @param  __comp  A @link comparison_functors comparison functor@endlink.
 292:/Library/DaisyToolchain/0.1.3-ARM/arm/arm-none-eabi/include/c++/10.3.1/bits/stl_algobase.h ****    *  @return   The greater of the parameters.
 293:/Library/DaisyToolchain/0.1.3-ARM/arm/arm-none-eabi/include/c++/10.3.1/bits/stl_algobase.h ****    *
 294:/Library/DaisyToolchain/0.1.3-ARM/arm/arm-none-eabi/include/c++/10.3.1/bits/stl_algobase.h ****    *  This will work on temporary expressions, since they are only evaluated
 295:/Library/DaisyToolchain/0.1.3-ARM/arm/arm-none-eabi/include/c++/10.3.1/bits/stl_algobase.h ****    *  once, unlike a preprocessor macro.
 296:/Library/DaisyToolchain/0.1.3-ARM/arm/arm-none-eabi/include/c++/10.3.1/bits/stl_algobase.h ****   */
 297:/Library/DaisyToolchain/0.1.3-ARM/arm/arm-none-eabi/include/c++/10.3.1/bits/stl_algobase.h ****   template<typename _Tp, typename _Compare>
 298:/Library/DaisyToolchain/0.1.3-ARM/arm/arm-none-eabi/include/c++/10.3.1/bits/stl_algobase.h ****     _GLIBCXX14_CONSTEXPR
 299:/Library/DaisyToolchain/0.1.3-ARM/arm/arm-none-eabi/include/c++/10.3.1/bits/stl_algobase.h ****     inline const _Tp&
 300:/Library/DaisyToolchain/0.1.3-ARM/arm/arm-none-eabi/include/c++/10.3.1/bits/stl_algobase.h ****     max(const _Tp& __a, const _Tp& __b, _Compare __comp)
 301:/Library/DaisyToolchain/0.1.3-ARM/arm/arm-none-eabi/include/c++/10.3.1/bits/stl_algobase.h ****     {
 302:/Library/DaisyToolchain/0.1.3-ARM/arm/arm-none-eabi/include/c++/10.3.1/bits/stl_algobase.h ****       //return __comp(__a, __b) ? __b : __a;
 303:/Library/DaisyToolchain/0.1.3-ARM/arm/arm-none-eabi/include/c++/10.3.1/bits/stl_algobase.h ****       if (__comp(__a, __b))
 304:/Library/DaisyToolchain/0.1.3-ARM/arm/arm-none-eabi/include/c++/10.3.1/bits/stl_algobase.h **** 	return __b;
 305:/Library/DaisyToolchain/0.1.3-ARM/arm/arm-none-eabi/include/c++/10.3.1/bits/stl_algobase.h ****       return __a;
 306:/Library/DaisyToolchain/0.1.3-ARM/arm/arm-none-eabi/include/c++/10.3.1/bits/stl_algobase.h ****     }
 307:/Library/DaisyToolchain/0.1.3-ARM/arm/arm-none-eabi/include/c++/10.3.1/bits/stl_algobase.h **** 
 308:/Library/DaisyToolchain/0.1.3-ARM/arm/arm-none-eabi/include/c++/10.3.1/bits/stl_algobase.h ****   // Fallback implementation of the function in bits/stl_iterator.h used to
 309:/Library/DaisyToolchain/0.1.3-ARM/arm/arm-none-eabi/include/c++/10.3.1/bits/stl_algobase.h ****   // remove the __normal_iterator wrapper. See copy, fill, ...
 310:/Library/DaisyToolchain/0.1.3-ARM/arm/arm-none-eabi/include/c++/10.3.1/bits/stl_algobase.h ****   template<typename _Iterator>
 311:/Library/DaisyToolchain/0.1.3-ARM/arm/arm-none-eabi/include/c++/10.3.1/bits/stl_algobase.h ****     _GLIBCXX20_CONSTEXPR
 312:/Library/DaisyToolchain/0.1.3-ARM/arm/arm-none-eabi/include/c++/10.3.1/bits/stl_algobase.h ****     inline _Iterator
 313:/Library/DaisyToolchain/0.1.3-ARM/arm/arm-none-eabi/include/c++/10.3.1/bits/stl_algobase.h ****     __niter_base(_Iterator __it)
 314:/Library/DaisyToolchain/0.1.3-ARM/arm/arm-none-eabi/include/c++/10.3.1/bits/stl_algobase.h ****     _GLIBCXX_NOEXCEPT_IF(std::is_nothrow_copy_constructible<_Iterator>::value)
 315:/Library/DaisyToolchain/0.1.3-ARM/arm/arm-none-eabi/include/c++/10.3.1/bits/stl_algobase.h ****     { return __it; }
 316:/Library/DaisyToolchain/0.1.3-ARM/arm/arm-none-eabi/include/c++/10.3.1/bits/stl_algobase.h **** 
 317:/Library/DaisyToolchain/0.1.3-ARM/arm/arm-none-eabi/include/c++/10.3.1/bits/stl_algobase.h ****   // Reverse the __niter_base transformation to get a
 318:/Library/DaisyToolchain/0.1.3-ARM/arm/arm-none-eabi/include/c++/10.3.1/bits/stl_algobase.h ****   // __normal_iterator back again (this assumes that __normal_iterator
 319:/Library/DaisyToolchain/0.1.3-ARM/arm/arm-none-eabi/include/c++/10.3.1/bits/stl_algobase.h ****   // is only used to wrap random access iterators, like pointers).
 320:/Library/DaisyToolchain/0.1.3-ARM/arm/arm-none-eabi/include/c++/10.3.1/bits/stl_algobase.h ****   template<typename _From, typename _To>
 321:/Library/DaisyToolchain/0.1.3-ARM/arm/arm-none-eabi/include/c++/10.3.1/bits/stl_algobase.h ****     _GLIBCXX20_CONSTEXPR
 322:/Library/DaisyToolchain/0.1.3-ARM/arm/arm-none-eabi/include/c++/10.3.1/bits/stl_algobase.h ****     inline _From
 323:/Library/DaisyToolchain/0.1.3-ARM/arm/arm-none-eabi/include/c++/10.3.1/bits/stl_algobase.h ****     __niter_wrap(_From __from, _To __res)
 324:/Library/DaisyToolchain/0.1.3-ARM/arm/arm-none-eabi/include/c++/10.3.1/bits/stl_algobase.h ****     { return __from + (__res - std::__niter_base(__from)); }
 325:/Library/DaisyToolchain/0.1.3-ARM/arm/arm-none-eabi/include/c++/10.3.1/bits/stl_algobase.h **** 
 326:/Library/DaisyToolchain/0.1.3-ARM/arm/arm-none-eabi/include/c++/10.3.1/bits/stl_algobase.h ****   // No need to wrap, iterator already has the right type.
 327:/Library/DaisyToolchain/0.1.3-ARM/arm/arm-none-eabi/include/c++/10.3.1/bits/stl_algobase.h ****   template<typename _Iterator>
 328:/Library/DaisyToolchain/0.1.3-ARM/arm/arm-none-eabi/include/c++/10.3.1/bits/stl_algobase.h ****     _GLIBCXX20_CONSTEXPR
ARM GAS  /var/folders/xd/16jvbr6j24q9nvtpm0qtw3240000gn/T//cch9jPA2.s 			page 150


 329:/Library/DaisyToolchain/0.1.3-ARM/arm/arm-none-eabi/include/c++/10.3.1/bits/stl_algobase.h ****     inline _Iterator
 330:/Library/DaisyToolchain/0.1.3-ARM/arm/arm-none-eabi/include/c++/10.3.1/bits/stl_algobase.h ****     __niter_wrap(const _Iterator&, _Iterator __res)
 331:/Library/DaisyToolchain/0.1.3-ARM/arm/arm-none-eabi/include/c++/10.3.1/bits/stl_algobase.h ****     { return __res; }
 332:/Library/DaisyToolchain/0.1.3-ARM/arm/arm-none-eabi/include/c++/10.3.1/bits/stl_algobase.h **** 
 333:/Library/DaisyToolchain/0.1.3-ARM/arm/arm-none-eabi/include/c++/10.3.1/bits/stl_algobase.h ****   // All of these auxiliary structs serve two purposes.  (1) Replace
 334:/Library/DaisyToolchain/0.1.3-ARM/arm/arm-none-eabi/include/c++/10.3.1/bits/stl_algobase.h ****   // calls to copy with memmove whenever possible.  (Memmove, not memcpy,
 335:/Library/DaisyToolchain/0.1.3-ARM/arm/arm-none-eabi/include/c++/10.3.1/bits/stl_algobase.h ****   // because the input and output ranges are permitted to overlap.)
 336:/Library/DaisyToolchain/0.1.3-ARM/arm/arm-none-eabi/include/c++/10.3.1/bits/stl_algobase.h ****   // (2) If we're using random access iterators, then write the loop as
 337:/Library/DaisyToolchain/0.1.3-ARM/arm/arm-none-eabi/include/c++/10.3.1/bits/stl_algobase.h ****   // a for loop with an explicit count.
 338:/Library/DaisyToolchain/0.1.3-ARM/arm/arm-none-eabi/include/c++/10.3.1/bits/stl_algobase.h **** 
 339:/Library/DaisyToolchain/0.1.3-ARM/arm/arm-none-eabi/include/c++/10.3.1/bits/stl_algobase.h ****   template<bool _IsMove, bool _IsSimple, typename _Category>
 340:/Library/DaisyToolchain/0.1.3-ARM/arm/arm-none-eabi/include/c++/10.3.1/bits/stl_algobase.h ****     struct __copy_move
 341:/Library/DaisyToolchain/0.1.3-ARM/arm/arm-none-eabi/include/c++/10.3.1/bits/stl_algobase.h ****     {
 342:/Library/DaisyToolchain/0.1.3-ARM/arm/arm-none-eabi/include/c++/10.3.1/bits/stl_algobase.h ****       template<typename _II, typename _OI>
 343:/Library/DaisyToolchain/0.1.3-ARM/arm/arm-none-eabi/include/c++/10.3.1/bits/stl_algobase.h **** 	_GLIBCXX20_CONSTEXPR
 344:/Library/DaisyToolchain/0.1.3-ARM/arm/arm-none-eabi/include/c++/10.3.1/bits/stl_algobase.h **** 	static _OI
 345:/Library/DaisyToolchain/0.1.3-ARM/arm/arm-none-eabi/include/c++/10.3.1/bits/stl_algobase.h **** 	__copy_m(_II __first, _II __last, _OI __result)
 346:/Library/DaisyToolchain/0.1.3-ARM/arm/arm-none-eabi/include/c++/10.3.1/bits/stl_algobase.h **** 	{
 347:/Library/DaisyToolchain/0.1.3-ARM/arm/arm-none-eabi/include/c++/10.3.1/bits/stl_algobase.h **** 	  for (; __first != __last; ++__result, (void)++__first)
 348:/Library/DaisyToolchain/0.1.3-ARM/arm/arm-none-eabi/include/c++/10.3.1/bits/stl_algobase.h **** 	    *__result = *__first;
 349:/Library/DaisyToolchain/0.1.3-ARM/arm/arm-none-eabi/include/c++/10.3.1/bits/stl_algobase.h **** 	  return __result;
 350:/Library/DaisyToolchain/0.1.3-ARM/arm/arm-none-eabi/include/c++/10.3.1/bits/stl_algobase.h **** 	}
 351:/Library/DaisyToolchain/0.1.3-ARM/arm/arm-none-eabi/include/c++/10.3.1/bits/stl_algobase.h ****     };
 352:/Library/DaisyToolchain/0.1.3-ARM/arm/arm-none-eabi/include/c++/10.3.1/bits/stl_algobase.h **** 
 353:/Library/DaisyToolchain/0.1.3-ARM/arm/arm-none-eabi/include/c++/10.3.1/bits/stl_algobase.h **** #if __cplusplus >= 201103L
 354:/Library/DaisyToolchain/0.1.3-ARM/arm/arm-none-eabi/include/c++/10.3.1/bits/stl_algobase.h ****   template<typename _Category>
 355:/Library/DaisyToolchain/0.1.3-ARM/arm/arm-none-eabi/include/c++/10.3.1/bits/stl_algobase.h ****     struct __copy_move<true, false, _Category>
 356:/Library/DaisyToolchain/0.1.3-ARM/arm/arm-none-eabi/include/c++/10.3.1/bits/stl_algobase.h ****     {
 357:/Library/DaisyToolchain/0.1.3-ARM/arm/arm-none-eabi/include/c++/10.3.1/bits/stl_algobase.h ****       template<typename _II, typename _OI>
 358:/Library/DaisyToolchain/0.1.3-ARM/arm/arm-none-eabi/include/c++/10.3.1/bits/stl_algobase.h **** 	_GLIBCXX20_CONSTEXPR
 359:/Library/DaisyToolchain/0.1.3-ARM/arm/arm-none-eabi/include/c++/10.3.1/bits/stl_algobase.h **** 	static _OI
 360:/Library/DaisyToolchain/0.1.3-ARM/arm/arm-none-eabi/include/c++/10.3.1/bits/stl_algobase.h **** 	__copy_m(_II __first, _II __last, _OI __result)
 361:/Library/DaisyToolchain/0.1.3-ARM/arm/arm-none-eabi/include/c++/10.3.1/bits/stl_algobase.h **** 	{
 362:/Library/DaisyToolchain/0.1.3-ARM/arm/arm-none-eabi/include/c++/10.3.1/bits/stl_algobase.h **** 	  for (; __first != __last; ++__result, (void)++__first)
 363:/Library/DaisyToolchain/0.1.3-ARM/arm/arm-none-eabi/include/c++/10.3.1/bits/stl_algobase.h **** 	    *__result = std::move(*__first);
 364:/Library/DaisyToolchain/0.1.3-ARM/arm/arm-none-eabi/include/c++/10.3.1/bits/stl_algobase.h **** 	  return __result;
 365:/Library/DaisyToolchain/0.1.3-ARM/arm/arm-none-eabi/include/c++/10.3.1/bits/stl_algobase.h **** 	}
 366:/Library/DaisyToolchain/0.1.3-ARM/arm/arm-none-eabi/include/c++/10.3.1/bits/stl_algobase.h ****     };
 367:/Library/DaisyToolchain/0.1.3-ARM/arm/arm-none-eabi/include/c++/10.3.1/bits/stl_algobase.h **** #endif
 368:/Library/DaisyToolchain/0.1.3-ARM/arm/arm-none-eabi/include/c++/10.3.1/bits/stl_algobase.h **** 
 369:/Library/DaisyToolchain/0.1.3-ARM/arm/arm-none-eabi/include/c++/10.3.1/bits/stl_algobase.h ****   template<>
 370:/Library/DaisyToolchain/0.1.3-ARM/arm/arm-none-eabi/include/c++/10.3.1/bits/stl_algobase.h ****     struct __copy_move<false, false, random_access_iterator_tag>
 371:/Library/DaisyToolchain/0.1.3-ARM/arm/arm-none-eabi/include/c++/10.3.1/bits/stl_algobase.h ****     {
 372:/Library/DaisyToolchain/0.1.3-ARM/arm/arm-none-eabi/include/c++/10.3.1/bits/stl_algobase.h ****       template<typename _II, typename _OI>
 373:/Library/DaisyToolchain/0.1.3-ARM/arm/arm-none-eabi/include/c++/10.3.1/bits/stl_algobase.h **** 	_GLIBCXX20_CONSTEXPR
 374:/Library/DaisyToolchain/0.1.3-ARM/arm/arm-none-eabi/include/c++/10.3.1/bits/stl_algobase.h **** 	static _OI
 375:/Library/DaisyToolchain/0.1.3-ARM/arm/arm-none-eabi/include/c++/10.3.1/bits/stl_algobase.h **** 	__copy_m(_II __first, _II __last, _OI __result)
 376:/Library/DaisyToolchain/0.1.3-ARM/arm/arm-none-eabi/include/c++/10.3.1/bits/stl_algobase.h **** 	{
 377:/Library/DaisyToolchain/0.1.3-ARM/arm/arm-none-eabi/include/c++/10.3.1/bits/stl_algobase.h **** 	  typedef typename iterator_traits<_II>::difference_type _Distance;
 378:/Library/DaisyToolchain/0.1.3-ARM/arm/arm-none-eabi/include/c++/10.3.1/bits/stl_algobase.h **** 	  for(_Distance __n = __last - __first; __n > 0; --__n)
 379:/Library/DaisyToolchain/0.1.3-ARM/arm/arm-none-eabi/include/c++/10.3.1/bits/stl_algobase.h **** 	    {
 380:/Library/DaisyToolchain/0.1.3-ARM/arm/arm-none-eabi/include/c++/10.3.1/bits/stl_algobase.h **** 	      *__result = *__first;
 381:/Library/DaisyToolchain/0.1.3-ARM/arm/arm-none-eabi/include/c++/10.3.1/bits/stl_algobase.h **** 	      ++__first;
 382:/Library/DaisyToolchain/0.1.3-ARM/arm/arm-none-eabi/include/c++/10.3.1/bits/stl_algobase.h **** 	      ++__result;
 383:/Library/DaisyToolchain/0.1.3-ARM/arm/arm-none-eabi/include/c++/10.3.1/bits/stl_algobase.h **** 	    }
 384:/Library/DaisyToolchain/0.1.3-ARM/arm/arm-none-eabi/include/c++/10.3.1/bits/stl_algobase.h **** 	  return __result;
 385:/Library/DaisyToolchain/0.1.3-ARM/arm/arm-none-eabi/include/c++/10.3.1/bits/stl_algobase.h **** 	}
ARM GAS  /var/folders/xd/16jvbr6j24q9nvtpm0qtw3240000gn/T//cch9jPA2.s 			page 151


 386:/Library/DaisyToolchain/0.1.3-ARM/arm/arm-none-eabi/include/c++/10.3.1/bits/stl_algobase.h ****     };
 387:/Library/DaisyToolchain/0.1.3-ARM/arm/arm-none-eabi/include/c++/10.3.1/bits/stl_algobase.h **** 
 388:/Library/DaisyToolchain/0.1.3-ARM/arm/arm-none-eabi/include/c++/10.3.1/bits/stl_algobase.h **** #if __cplusplus >= 201103L
 389:/Library/DaisyToolchain/0.1.3-ARM/arm/arm-none-eabi/include/c++/10.3.1/bits/stl_algobase.h ****   template<>
 390:/Library/DaisyToolchain/0.1.3-ARM/arm/arm-none-eabi/include/c++/10.3.1/bits/stl_algobase.h ****     struct __copy_move<true, false, random_access_iterator_tag>
 391:/Library/DaisyToolchain/0.1.3-ARM/arm/arm-none-eabi/include/c++/10.3.1/bits/stl_algobase.h ****     {
 392:/Library/DaisyToolchain/0.1.3-ARM/arm/arm-none-eabi/include/c++/10.3.1/bits/stl_algobase.h ****       template<typename _II, typename _OI>
 393:/Library/DaisyToolchain/0.1.3-ARM/arm/arm-none-eabi/include/c++/10.3.1/bits/stl_algobase.h **** 	_GLIBCXX20_CONSTEXPR
 394:/Library/DaisyToolchain/0.1.3-ARM/arm/arm-none-eabi/include/c++/10.3.1/bits/stl_algobase.h **** 	static _OI
 395:/Library/DaisyToolchain/0.1.3-ARM/arm/arm-none-eabi/include/c++/10.3.1/bits/stl_algobase.h **** 	__copy_m(_II __first, _II __last, _OI __result)
 396:/Library/DaisyToolchain/0.1.3-ARM/arm/arm-none-eabi/include/c++/10.3.1/bits/stl_algobase.h **** 	{
 397:/Library/DaisyToolchain/0.1.3-ARM/arm/arm-none-eabi/include/c++/10.3.1/bits/stl_algobase.h **** 	  typedef typename iterator_traits<_II>::difference_type _Distance;
 398:/Library/DaisyToolchain/0.1.3-ARM/arm/arm-none-eabi/include/c++/10.3.1/bits/stl_algobase.h **** 	  for(_Distance __n = __last - __first; __n > 0; --__n)
 399:/Library/DaisyToolchain/0.1.3-ARM/arm/arm-none-eabi/include/c++/10.3.1/bits/stl_algobase.h **** 	    {
 400:/Library/DaisyToolchain/0.1.3-ARM/arm/arm-none-eabi/include/c++/10.3.1/bits/stl_algobase.h **** 	      *__result = std::move(*__first);
 401:/Library/DaisyToolchain/0.1.3-ARM/arm/arm-none-eabi/include/c++/10.3.1/bits/stl_algobase.h **** 	      ++__first;
 402:/Library/DaisyToolchain/0.1.3-ARM/arm/arm-none-eabi/include/c++/10.3.1/bits/stl_algobase.h **** 	      ++__result;
 403:/Library/DaisyToolchain/0.1.3-ARM/arm/arm-none-eabi/include/c++/10.3.1/bits/stl_algobase.h **** 	    }
 404:/Library/DaisyToolchain/0.1.3-ARM/arm/arm-none-eabi/include/c++/10.3.1/bits/stl_algobase.h **** 	  return __result;
 405:/Library/DaisyToolchain/0.1.3-ARM/arm/arm-none-eabi/include/c++/10.3.1/bits/stl_algobase.h **** 	}
 406:/Library/DaisyToolchain/0.1.3-ARM/arm/arm-none-eabi/include/c++/10.3.1/bits/stl_algobase.h ****     };
 407:/Library/DaisyToolchain/0.1.3-ARM/arm/arm-none-eabi/include/c++/10.3.1/bits/stl_algobase.h **** #endif
 408:/Library/DaisyToolchain/0.1.3-ARM/arm/arm-none-eabi/include/c++/10.3.1/bits/stl_algobase.h **** 
 409:/Library/DaisyToolchain/0.1.3-ARM/arm/arm-none-eabi/include/c++/10.3.1/bits/stl_algobase.h ****   template<bool _IsMove>
 410:/Library/DaisyToolchain/0.1.3-ARM/arm/arm-none-eabi/include/c++/10.3.1/bits/stl_algobase.h ****     struct __copy_move<_IsMove, true, random_access_iterator_tag>
 411:/Library/DaisyToolchain/0.1.3-ARM/arm/arm-none-eabi/include/c++/10.3.1/bits/stl_algobase.h ****     {
 412:/Library/DaisyToolchain/0.1.3-ARM/arm/arm-none-eabi/include/c++/10.3.1/bits/stl_algobase.h ****       template<typename _Tp>
 413:/Library/DaisyToolchain/0.1.3-ARM/arm/arm-none-eabi/include/c++/10.3.1/bits/stl_algobase.h **** 	_GLIBCXX20_CONSTEXPR
 414:/Library/DaisyToolchain/0.1.3-ARM/arm/arm-none-eabi/include/c++/10.3.1/bits/stl_algobase.h **** 	static _Tp*
 415:/Library/DaisyToolchain/0.1.3-ARM/arm/arm-none-eabi/include/c++/10.3.1/bits/stl_algobase.h **** 	__copy_m(const _Tp* __first, const _Tp* __last, _Tp* __result)
 416:/Library/DaisyToolchain/0.1.3-ARM/arm/arm-none-eabi/include/c++/10.3.1/bits/stl_algobase.h **** 	{
 417:/Library/DaisyToolchain/0.1.3-ARM/arm/arm-none-eabi/include/c++/10.3.1/bits/stl_algobase.h **** #if __cplusplus >= 201103L
 418:/Library/DaisyToolchain/0.1.3-ARM/arm/arm-none-eabi/include/c++/10.3.1/bits/stl_algobase.h **** 	  using __assignable = conditional<_IsMove,
 419:/Library/DaisyToolchain/0.1.3-ARM/arm/arm-none-eabi/include/c++/10.3.1/bits/stl_algobase.h **** 					   is_move_assignable<_Tp>,
 420:/Library/DaisyToolchain/0.1.3-ARM/arm/arm-none-eabi/include/c++/10.3.1/bits/stl_algobase.h **** 					   is_copy_assignable<_Tp>>;
 421:/Library/DaisyToolchain/0.1.3-ARM/arm/arm-none-eabi/include/c++/10.3.1/bits/stl_algobase.h **** 	  // trivial types can have deleted assignment
 422:/Library/DaisyToolchain/0.1.3-ARM/arm/arm-none-eabi/include/c++/10.3.1/bits/stl_algobase.h **** 	  static_assert( __assignable::type::value, "type is not assignable" );
 423:/Library/DaisyToolchain/0.1.3-ARM/arm/arm-none-eabi/include/c++/10.3.1/bits/stl_algobase.h **** #endif
 424:/Library/DaisyToolchain/0.1.3-ARM/arm/arm-none-eabi/include/c++/10.3.1/bits/stl_algobase.h **** 	  const ptrdiff_t _Num = __last - __first;
 425:/Library/DaisyToolchain/0.1.3-ARM/arm/arm-none-eabi/include/c++/10.3.1/bits/stl_algobase.h **** 	  if (_Num)
 426:/Library/DaisyToolchain/0.1.3-ARM/arm/arm-none-eabi/include/c++/10.3.1/bits/stl_algobase.h **** 	    __builtin_memmove(__result, __first, sizeof(_Tp) * _Num);
 427:/Library/DaisyToolchain/0.1.3-ARM/arm/arm-none-eabi/include/c++/10.3.1/bits/stl_algobase.h **** 	  return __result + _Num;
 428:/Library/DaisyToolchain/0.1.3-ARM/arm/arm-none-eabi/include/c++/10.3.1/bits/stl_algobase.h **** 	}
 429:/Library/DaisyToolchain/0.1.3-ARM/arm/arm-none-eabi/include/c++/10.3.1/bits/stl_algobase.h ****     };
 430:/Library/DaisyToolchain/0.1.3-ARM/arm/arm-none-eabi/include/c++/10.3.1/bits/stl_algobase.h **** 
 431:/Library/DaisyToolchain/0.1.3-ARM/arm/arm-none-eabi/include/c++/10.3.1/bits/stl_algobase.h ****   // Helpers for streambuf iterators (either istream or ostream).
 432:/Library/DaisyToolchain/0.1.3-ARM/arm/arm-none-eabi/include/c++/10.3.1/bits/stl_algobase.h ****   // NB: avoid including <iosfwd>, relatively large.
 433:/Library/DaisyToolchain/0.1.3-ARM/arm/arm-none-eabi/include/c++/10.3.1/bits/stl_algobase.h ****   template<typename _CharT>
 434:/Library/DaisyToolchain/0.1.3-ARM/arm/arm-none-eabi/include/c++/10.3.1/bits/stl_algobase.h ****     struct char_traits;
 435:/Library/DaisyToolchain/0.1.3-ARM/arm/arm-none-eabi/include/c++/10.3.1/bits/stl_algobase.h **** 
 436:/Library/DaisyToolchain/0.1.3-ARM/arm/arm-none-eabi/include/c++/10.3.1/bits/stl_algobase.h ****   template<typename _CharT, typename _Traits>
 437:/Library/DaisyToolchain/0.1.3-ARM/arm/arm-none-eabi/include/c++/10.3.1/bits/stl_algobase.h ****     class istreambuf_iterator;
 438:/Library/DaisyToolchain/0.1.3-ARM/arm/arm-none-eabi/include/c++/10.3.1/bits/stl_algobase.h **** 
 439:/Library/DaisyToolchain/0.1.3-ARM/arm/arm-none-eabi/include/c++/10.3.1/bits/stl_algobase.h ****   template<typename _CharT, typename _Traits>
 440:/Library/DaisyToolchain/0.1.3-ARM/arm/arm-none-eabi/include/c++/10.3.1/bits/stl_algobase.h ****     class ostreambuf_iterator;
 441:/Library/DaisyToolchain/0.1.3-ARM/arm/arm-none-eabi/include/c++/10.3.1/bits/stl_algobase.h **** 
 442:/Library/DaisyToolchain/0.1.3-ARM/arm/arm-none-eabi/include/c++/10.3.1/bits/stl_algobase.h ****   template<bool _IsMove, typename _CharT>
ARM GAS  /var/folders/xd/16jvbr6j24q9nvtpm0qtw3240000gn/T//cch9jPA2.s 			page 152


 443:/Library/DaisyToolchain/0.1.3-ARM/arm/arm-none-eabi/include/c++/10.3.1/bits/stl_algobase.h ****     typename __gnu_cxx::__enable_if<__is_char<_CharT>::__value,
 444:/Library/DaisyToolchain/0.1.3-ARM/arm/arm-none-eabi/include/c++/10.3.1/bits/stl_algobase.h **** 	     ostreambuf_iterator<_CharT, char_traits<_CharT> > >::__type
 445:/Library/DaisyToolchain/0.1.3-ARM/arm/arm-none-eabi/include/c++/10.3.1/bits/stl_algobase.h ****     __copy_move_a2(_CharT*, _CharT*,
 446:/Library/DaisyToolchain/0.1.3-ARM/arm/arm-none-eabi/include/c++/10.3.1/bits/stl_algobase.h **** 		   ostreambuf_iterator<_CharT, char_traits<_CharT> >);
 447:/Library/DaisyToolchain/0.1.3-ARM/arm/arm-none-eabi/include/c++/10.3.1/bits/stl_algobase.h **** 
 448:/Library/DaisyToolchain/0.1.3-ARM/arm/arm-none-eabi/include/c++/10.3.1/bits/stl_algobase.h ****   template<bool _IsMove, typename _CharT>
 449:/Library/DaisyToolchain/0.1.3-ARM/arm/arm-none-eabi/include/c++/10.3.1/bits/stl_algobase.h ****     typename __gnu_cxx::__enable_if<__is_char<_CharT>::__value,
 450:/Library/DaisyToolchain/0.1.3-ARM/arm/arm-none-eabi/include/c++/10.3.1/bits/stl_algobase.h **** 	     ostreambuf_iterator<_CharT, char_traits<_CharT> > >::__type
 451:/Library/DaisyToolchain/0.1.3-ARM/arm/arm-none-eabi/include/c++/10.3.1/bits/stl_algobase.h ****     __copy_move_a2(const _CharT*, const _CharT*,
 452:/Library/DaisyToolchain/0.1.3-ARM/arm/arm-none-eabi/include/c++/10.3.1/bits/stl_algobase.h **** 		   ostreambuf_iterator<_CharT, char_traits<_CharT> >);
 453:/Library/DaisyToolchain/0.1.3-ARM/arm/arm-none-eabi/include/c++/10.3.1/bits/stl_algobase.h **** 
 454:/Library/DaisyToolchain/0.1.3-ARM/arm/arm-none-eabi/include/c++/10.3.1/bits/stl_algobase.h ****   template<bool _IsMove, typename _CharT>
 455:/Library/DaisyToolchain/0.1.3-ARM/arm/arm-none-eabi/include/c++/10.3.1/bits/stl_algobase.h ****     typename __gnu_cxx::__enable_if<__is_char<_CharT>::__value,
 456:/Library/DaisyToolchain/0.1.3-ARM/arm/arm-none-eabi/include/c++/10.3.1/bits/stl_algobase.h **** 				    _CharT*>::__type
 457:/Library/DaisyToolchain/0.1.3-ARM/arm/arm-none-eabi/include/c++/10.3.1/bits/stl_algobase.h ****     __copy_move_a2(istreambuf_iterator<_CharT, char_traits<_CharT> >,
 458:/Library/DaisyToolchain/0.1.3-ARM/arm/arm-none-eabi/include/c++/10.3.1/bits/stl_algobase.h **** 		   istreambuf_iterator<_CharT, char_traits<_CharT> >, _CharT*);
 459:/Library/DaisyToolchain/0.1.3-ARM/arm/arm-none-eabi/include/c++/10.3.1/bits/stl_algobase.h **** 
 460:/Library/DaisyToolchain/0.1.3-ARM/arm/arm-none-eabi/include/c++/10.3.1/bits/stl_algobase.h ****   template<bool _IsMove, typename _II, typename _OI>
 461:/Library/DaisyToolchain/0.1.3-ARM/arm/arm-none-eabi/include/c++/10.3.1/bits/stl_algobase.h ****     _GLIBCXX20_CONSTEXPR
 462:/Library/DaisyToolchain/0.1.3-ARM/arm/arm-none-eabi/include/c++/10.3.1/bits/stl_algobase.h ****     inline _OI
 463:/Library/DaisyToolchain/0.1.3-ARM/arm/arm-none-eabi/include/c++/10.3.1/bits/stl_algobase.h ****     __copy_move_a2(_II __first, _II __last, _OI __result)
 464:/Library/DaisyToolchain/0.1.3-ARM/arm/arm-none-eabi/include/c++/10.3.1/bits/stl_algobase.h ****     {
 465:/Library/DaisyToolchain/0.1.3-ARM/arm/arm-none-eabi/include/c++/10.3.1/bits/stl_algobase.h ****       typedef typename iterator_traits<_II>::iterator_category _Category;
 466:/Library/DaisyToolchain/0.1.3-ARM/arm/arm-none-eabi/include/c++/10.3.1/bits/stl_algobase.h **** #ifdef __cpp_lib_is_constant_evaluated
 467:/Library/DaisyToolchain/0.1.3-ARM/arm/arm-none-eabi/include/c++/10.3.1/bits/stl_algobase.h ****       if (std::is_constant_evaluated())
 468:/Library/DaisyToolchain/0.1.3-ARM/arm/arm-none-eabi/include/c++/10.3.1/bits/stl_algobase.h **** 	return std::__copy_move<_IsMove, false, _Category>::
 469:/Library/DaisyToolchain/0.1.3-ARM/arm/arm-none-eabi/include/c++/10.3.1/bits/stl_algobase.h **** 	  __copy_m(__first, __last, __result);
 470:/Library/DaisyToolchain/0.1.3-ARM/arm/arm-none-eabi/include/c++/10.3.1/bits/stl_algobase.h **** #endif
 471:/Library/DaisyToolchain/0.1.3-ARM/arm/arm-none-eabi/include/c++/10.3.1/bits/stl_algobase.h ****       return std::__copy_move<_IsMove, __memcpyable<_OI, _II>::__value,
 472:/Library/DaisyToolchain/0.1.3-ARM/arm/arm-none-eabi/include/c++/10.3.1/bits/stl_algobase.h **** 			      _Category>::__copy_m(__first, __last, __result);
 473:/Library/DaisyToolchain/0.1.3-ARM/arm/arm-none-eabi/include/c++/10.3.1/bits/stl_algobase.h ****     }
 474:/Library/DaisyToolchain/0.1.3-ARM/arm/arm-none-eabi/include/c++/10.3.1/bits/stl_algobase.h **** 
 475:/Library/DaisyToolchain/0.1.3-ARM/arm/arm-none-eabi/include/c++/10.3.1/bits/stl_algobase.h **** _GLIBCXX_BEGIN_NAMESPACE_CONTAINER
 476:/Library/DaisyToolchain/0.1.3-ARM/arm/arm-none-eabi/include/c++/10.3.1/bits/stl_algobase.h **** 
 477:/Library/DaisyToolchain/0.1.3-ARM/arm/arm-none-eabi/include/c++/10.3.1/bits/stl_algobase.h ****   template<typename _Tp, typename _Ref, typename _Ptr>
 478:/Library/DaisyToolchain/0.1.3-ARM/arm/arm-none-eabi/include/c++/10.3.1/bits/stl_algobase.h ****     struct _Deque_iterator;
 479:/Library/DaisyToolchain/0.1.3-ARM/arm/arm-none-eabi/include/c++/10.3.1/bits/stl_algobase.h **** 
 480:/Library/DaisyToolchain/0.1.3-ARM/arm/arm-none-eabi/include/c++/10.3.1/bits/stl_algobase.h **** _GLIBCXX_END_NAMESPACE_CONTAINER
 481:/Library/DaisyToolchain/0.1.3-ARM/arm/arm-none-eabi/include/c++/10.3.1/bits/stl_algobase.h **** 
 482:/Library/DaisyToolchain/0.1.3-ARM/arm/arm-none-eabi/include/c++/10.3.1/bits/stl_algobase.h ****   template<bool _IsMove,
 483:/Library/DaisyToolchain/0.1.3-ARM/arm/arm-none-eabi/include/c++/10.3.1/bits/stl_algobase.h **** 	   typename _Tp, typename _Ref, typename _Ptr, typename _OI>
 484:/Library/DaisyToolchain/0.1.3-ARM/arm/arm-none-eabi/include/c++/10.3.1/bits/stl_algobase.h ****     _OI
 485:/Library/DaisyToolchain/0.1.3-ARM/arm/arm-none-eabi/include/c++/10.3.1/bits/stl_algobase.h ****     __copy_move_a1(_GLIBCXX_STD_C::_Deque_iterator<_Tp, _Ref, _Ptr>,
 486:/Library/DaisyToolchain/0.1.3-ARM/arm/arm-none-eabi/include/c++/10.3.1/bits/stl_algobase.h **** 		   _GLIBCXX_STD_C::_Deque_iterator<_Tp, _Ref, _Ptr>,
 487:/Library/DaisyToolchain/0.1.3-ARM/arm/arm-none-eabi/include/c++/10.3.1/bits/stl_algobase.h **** 		   _OI);
 488:/Library/DaisyToolchain/0.1.3-ARM/arm/arm-none-eabi/include/c++/10.3.1/bits/stl_algobase.h **** 
 489:/Library/DaisyToolchain/0.1.3-ARM/arm/arm-none-eabi/include/c++/10.3.1/bits/stl_algobase.h ****   template<bool _IsMove,
 490:/Library/DaisyToolchain/0.1.3-ARM/arm/arm-none-eabi/include/c++/10.3.1/bits/stl_algobase.h **** 	   typename _ITp, typename _IRef, typename _IPtr, typename _OTp>
 491:/Library/DaisyToolchain/0.1.3-ARM/arm/arm-none-eabi/include/c++/10.3.1/bits/stl_algobase.h ****     _GLIBCXX_STD_C::_Deque_iterator<_OTp, _OTp&, _OTp*>
 492:/Library/DaisyToolchain/0.1.3-ARM/arm/arm-none-eabi/include/c++/10.3.1/bits/stl_algobase.h ****     __copy_move_a1(_GLIBCXX_STD_C::_Deque_iterator<_ITp, _IRef, _IPtr>,
 493:/Library/DaisyToolchain/0.1.3-ARM/arm/arm-none-eabi/include/c++/10.3.1/bits/stl_algobase.h **** 		   _GLIBCXX_STD_C::_Deque_iterator<_ITp, _IRef, _IPtr>,
 494:/Library/DaisyToolchain/0.1.3-ARM/arm/arm-none-eabi/include/c++/10.3.1/bits/stl_algobase.h **** 		   _GLIBCXX_STD_C::_Deque_iterator<_OTp, _OTp&, _OTp*>);
 495:/Library/DaisyToolchain/0.1.3-ARM/arm/arm-none-eabi/include/c++/10.3.1/bits/stl_algobase.h **** 
 496:/Library/DaisyToolchain/0.1.3-ARM/arm/arm-none-eabi/include/c++/10.3.1/bits/stl_algobase.h ****   template<bool _IsMove, typename _II, typename _Tp>
 497:/Library/DaisyToolchain/0.1.3-ARM/arm/arm-none-eabi/include/c++/10.3.1/bits/stl_algobase.h ****     typename __gnu_cxx::__enable_if<
 498:/Library/DaisyToolchain/0.1.3-ARM/arm/arm-none-eabi/include/c++/10.3.1/bits/stl_algobase.h ****       __is_random_access_iter<_II>::__value,
 499:/Library/DaisyToolchain/0.1.3-ARM/arm/arm-none-eabi/include/c++/10.3.1/bits/stl_algobase.h ****       _GLIBCXX_STD_C::_Deque_iterator<_Tp, _Tp&, _Tp*> >::__type
ARM GAS  /var/folders/xd/16jvbr6j24q9nvtpm0qtw3240000gn/T//cch9jPA2.s 			page 153


 500:/Library/DaisyToolchain/0.1.3-ARM/arm/arm-none-eabi/include/c++/10.3.1/bits/stl_algobase.h ****     __copy_move_a1(_II, _II, _GLIBCXX_STD_C::_Deque_iterator<_Tp, _Tp&, _Tp*>);
 501:/Library/DaisyToolchain/0.1.3-ARM/arm/arm-none-eabi/include/c++/10.3.1/bits/stl_algobase.h **** 
 502:/Library/DaisyToolchain/0.1.3-ARM/arm/arm-none-eabi/include/c++/10.3.1/bits/stl_algobase.h ****   template<bool _IsMove, typename _II, typename _OI>
 503:/Library/DaisyToolchain/0.1.3-ARM/arm/arm-none-eabi/include/c++/10.3.1/bits/stl_algobase.h ****     _GLIBCXX20_CONSTEXPR
 504:/Library/DaisyToolchain/0.1.3-ARM/arm/arm-none-eabi/include/c++/10.3.1/bits/stl_algobase.h ****     inline _OI
 505:/Library/DaisyToolchain/0.1.3-ARM/arm/arm-none-eabi/include/c++/10.3.1/bits/stl_algobase.h ****     __copy_move_a1(_II __first, _II __last, _OI __result)
 506:/Library/DaisyToolchain/0.1.3-ARM/arm/arm-none-eabi/include/c++/10.3.1/bits/stl_algobase.h ****     { return std::__copy_move_a2<_IsMove>(__first, __last, __result); }
 507:/Library/DaisyToolchain/0.1.3-ARM/arm/arm-none-eabi/include/c++/10.3.1/bits/stl_algobase.h **** 
 508:/Library/DaisyToolchain/0.1.3-ARM/arm/arm-none-eabi/include/c++/10.3.1/bits/stl_algobase.h ****   template<bool _IsMove, typename _II, typename _OI>
 509:/Library/DaisyToolchain/0.1.3-ARM/arm/arm-none-eabi/include/c++/10.3.1/bits/stl_algobase.h ****     _GLIBCXX20_CONSTEXPR
 510:/Library/DaisyToolchain/0.1.3-ARM/arm/arm-none-eabi/include/c++/10.3.1/bits/stl_algobase.h ****     inline _OI
 511:/Library/DaisyToolchain/0.1.3-ARM/arm/arm-none-eabi/include/c++/10.3.1/bits/stl_algobase.h ****     __copy_move_a(_II __first, _II __last, _OI __result)
 512:/Library/DaisyToolchain/0.1.3-ARM/arm/arm-none-eabi/include/c++/10.3.1/bits/stl_algobase.h ****     {
 513:/Library/DaisyToolchain/0.1.3-ARM/arm/arm-none-eabi/include/c++/10.3.1/bits/stl_algobase.h ****       return std::__niter_wrap(__result,
 514:/Library/DaisyToolchain/0.1.3-ARM/arm/arm-none-eabi/include/c++/10.3.1/bits/stl_algobase.h **** 		std::__copy_move_a1<_IsMove>(std::__niter_base(__first),
 515:/Library/DaisyToolchain/0.1.3-ARM/arm/arm-none-eabi/include/c++/10.3.1/bits/stl_algobase.h **** 					     std::__niter_base(__last),
 516:/Library/DaisyToolchain/0.1.3-ARM/arm/arm-none-eabi/include/c++/10.3.1/bits/stl_algobase.h **** 					     std::__niter_base(__result)));
 517:/Library/DaisyToolchain/0.1.3-ARM/arm/arm-none-eabi/include/c++/10.3.1/bits/stl_algobase.h ****     }
 518:/Library/DaisyToolchain/0.1.3-ARM/arm/arm-none-eabi/include/c++/10.3.1/bits/stl_algobase.h **** 
 519:/Library/DaisyToolchain/0.1.3-ARM/arm/arm-none-eabi/include/c++/10.3.1/bits/stl_algobase.h ****   template<bool _IsMove,
 520:/Library/DaisyToolchain/0.1.3-ARM/arm/arm-none-eabi/include/c++/10.3.1/bits/stl_algobase.h **** 	   typename _Ite, typename _Seq, typename _Cat, typename _OI>
 521:/Library/DaisyToolchain/0.1.3-ARM/arm/arm-none-eabi/include/c++/10.3.1/bits/stl_algobase.h ****     _OI
 522:/Library/DaisyToolchain/0.1.3-ARM/arm/arm-none-eabi/include/c++/10.3.1/bits/stl_algobase.h ****     __copy_move_a(const ::__gnu_debug::_Safe_iterator<_Ite, _Seq, _Cat>&,
 523:/Library/DaisyToolchain/0.1.3-ARM/arm/arm-none-eabi/include/c++/10.3.1/bits/stl_algobase.h **** 		  const ::__gnu_debug::_Safe_iterator<_Ite, _Seq, _Cat>&,
 524:/Library/DaisyToolchain/0.1.3-ARM/arm/arm-none-eabi/include/c++/10.3.1/bits/stl_algobase.h **** 		  _OI);
 525:/Library/DaisyToolchain/0.1.3-ARM/arm/arm-none-eabi/include/c++/10.3.1/bits/stl_algobase.h **** 
 526:/Library/DaisyToolchain/0.1.3-ARM/arm/arm-none-eabi/include/c++/10.3.1/bits/stl_algobase.h ****   template<bool _IsMove,
 527:/Library/DaisyToolchain/0.1.3-ARM/arm/arm-none-eabi/include/c++/10.3.1/bits/stl_algobase.h **** 	   typename _II, typename _Ite, typename _Seq, typename _Cat>
 528:/Library/DaisyToolchain/0.1.3-ARM/arm/arm-none-eabi/include/c++/10.3.1/bits/stl_algobase.h ****     __gnu_debug::_Safe_iterator<_Ite, _Seq, _Cat>
 529:/Library/DaisyToolchain/0.1.3-ARM/arm/arm-none-eabi/include/c++/10.3.1/bits/stl_algobase.h ****     __copy_move_a(_II, _II,
 530:/Library/DaisyToolchain/0.1.3-ARM/arm/arm-none-eabi/include/c++/10.3.1/bits/stl_algobase.h **** 		  const ::__gnu_debug::_Safe_iterator<_Ite, _Seq, _Cat>&);
 531:/Library/DaisyToolchain/0.1.3-ARM/arm/arm-none-eabi/include/c++/10.3.1/bits/stl_algobase.h **** 
 532:/Library/DaisyToolchain/0.1.3-ARM/arm/arm-none-eabi/include/c++/10.3.1/bits/stl_algobase.h ****   template<bool _IsMove,
 533:/Library/DaisyToolchain/0.1.3-ARM/arm/arm-none-eabi/include/c++/10.3.1/bits/stl_algobase.h **** 	   typename _IIte, typename _ISeq, typename _ICat,
 534:/Library/DaisyToolchain/0.1.3-ARM/arm/arm-none-eabi/include/c++/10.3.1/bits/stl_algobase.h **** 	   typename _OIte, typename _OSeq, typename _OCat>
 535:/Library/DaisyToolchain/0.1.3-ARM/arm/arm-none-eabi/include/c++/10.3.1/bits/stl_algobase.h ****     ::__gnu_debug::_Safe_iterator<_OIte, _OSeq, _OCat>
 536:/Library/DaisyToolchain/0.1.3-ARM/arm/arm-none-eabi/include/c++/10.3.1/bits/stl_algobase.h ****     __copy_move_a(const ::__gnu_debug::_Safe_iterator<_IIte, _ISeq, _ICat>&,
 537:/Library/DaisyToolchain/0.1.3-ARM/arm/arm-none-eabi/include/c++/10.3.1/bits/stl_algobase.h **** 		  const ::__gnu_debug::_Safe_iterator<_IIte, _ISeq, _ICat>&,
 538:/Library/DaisyToolchain/0.1.3-ARM/arm/arm-none-eabi/include/c++/10.3.1/bits/stl_algobase.h **** 		  const ::__gnu_debug::_Safe_iterator<_OIte, _OSeq, _OCat>&);
 539:/Library/DaisyToolchain/0.1.3-ARM/arm/arm-none-eabi/include/c++/10.3.1/bits/stl_algobase.h **** 
 540:/Library/DaisyToolchain/0.1.3-ARM/arm/arm-none-eabi/include/c++/10.3.1/bits/stl_algobase.h ****   /**
 541:/Library/DaisyToolchain/0.1.3-ARM/arm/arm-none-eabi/include/c++/10.3.1/bits/stl_algobase.h ****    *  @brief Copies the range [first,last) into result.
 542:/Library/DaisyToolchain/0.1.3-ARM/arm/arm-none-eabi/include/c++/10.3.1/bits/stl_algobase.h ****    *  @ingroup mutating_algorithms
 543:/Library/DaisyToolchain/0.1.3-ARM/arm/arm-none-eabi/include/c++/10.3.1/bits/stl_algobase.h ****    *  @param  __first  An input iterator.
 544:/Library/DaisyToolchain/0.1.3-ARM/arm/arm-none-eabi/include/c++/10.3.1/bits/stl_algobase.h ****    *  @param  __last   An input iterator.
 545:/Library/DaisyToolchain/0.1.3-ARM/arm/arm-none-eabi/include/c++/10.3.1/bits/stl_algobase.h ****    *  @param  __result An output iterator.
 546:/Library/DaisyToolchain/0.1.3-ARM/arm/arm-none-eabi/include/c++/10.3.1/bits/stl_algobase.h ****    *  @return   result + (last - first)
 547:/Library/DaisyToolchain/0.1.3-ARM/arm/arm-none-eabi/include/c++/10.3.1/bits/stl_algobase.h ****    *
 548:/Library/DaisyToolchain/0.1.3-ARM/arm/arm-none-eabi/include/c++/10.3.1/bits/stl_algobase.h ****    *  This inline function will boil down to a call to @c memmove whenever
 549:/Library/DaisyToolchain/0.1.3-ARM/arm/arm-none-eabi/include/c++/10.3.1/bits/stl_algobase.h ****    *  possible.  Failing that, if random access iterators are passed, then the
 550:/Library/DaisyToolchain/0.1.3-ARM/arm/arm-none-eabi/include/c++/10.3.1/bits/stl_algobase.h ****    *  loop count will be known (and therefore a candidate for compiler
 551:/Library/DaisyToolchain/0.1.3-ARM/arm/arm-none-eabi/include/c++/10.3.1/bits/stl_algobase.h ****    *  optimizations such as unrolling).  Result may not be contained within
 552:/Library/DaisyToolchain/0.1.3-ARM/arm/arm-none-eabi/include/c++/10.3.1/bits/stl_algobase.h ****    *  [first,last); the copy_backward function should be used instead.
 553:/Library/DaisyToolchain/0.1.3-ARM/arm/arm-none-eabi/include/c++/10.3.1/bits/stl_algobase.h ****    *
 554:/Library/DaisyToolchain/0.1.3-ARM/arm/arm-none-eabi/include/c++/10.3.1/bits/stl_algobase.h ****    *  Note that the end of the output range is permitted to be contained
 555:/Library/DaisyToolchain/0.1.3-ARM/arm/arm-none-eabi/include/c++/10.3.1/bits/stl_algobase.h ****    *  within [first,last).
 556:/Library/DaisyToolchain/0.1.3-ARM/arm/arm-none-eabi/include/c++/10.3.1/bits/stl_algobase.h ****   */
ARM GAS  /var/folders/xd/16jvbr6j24q9nvtpm0qtw3240000gn/T//cch9jPA2.s 			page 154


 557:/Library/DaisyToolchain/0.1.3-ARM/arm/arm-none-eabi/include/c++/10.3.1/bits/stl_algobase.h ****   template<typename _II, typename _OI>
 558:/Library/DaisyToolchain/0.1.3-ARM/arm/arm-none-eabi/include/c++/10.3.1/bits/stl_algobase.h ****     _GLIBCXX20_CONSTEXPR
 559:/Library/DaisyToolchain/0.1.3-ARM/arm/arm-none-eabi/include/c++/10.3.1/bits/stl_algobase.h ****     inline _OI
 560:/Library/DaisyToolchain/0.1.3-ARM/arm/arm-none-eabi/include/c++/10.3.1/bits/stl_algobase.h ****     copy(_II __first, _II __last, _OI __result)
 561:/Library/DaisyToolchain/0.1.3-ARM/arm/arm-none-eabi/include/c++/10.3.1/bits/stl_algobase.h ****     {
 562:/Library/DaisyToolchain/0.1.3-ARM/arm/arm-none-eabi/include/c++/10.3.1/bits/stl_algobase.h ****       // concept requirements
 563:/Library/DaisyToolchain/0.1.3-ARM/arm/arm-none-eabi/include/c++/10.3.1/bits/stl_algobase.h ****       __glibcxx_function_requires(_InputIteratorConcept<_II>)
 564:/Library/DaisyToolchain/0.1.3-ARM/arm/arm-none-eabi/include/c++/10.3.1/bits/stl_algobase.h ****       __glibcxx_function_requires(_OutputIteratorConcept<_OI,
 565:/Library/DaisyToolchain/0.1.3-ARM/arm/arm-none-eabi/include/c++/10.3.1/bits/stl_algobase.h **** 	    typename iterator_traits<_II>::value_type>)
 566:/Library/DaisyToolchain/0.1.3-ARM/arm/arm-none-eabi/include/c++/10.3.1/bits/stl_algobase.h ****       __glibcxx_requires_can_increment_range(__first, __last, __result);
 567:/Library/DaisyToolchain/0.1.3-ARM/arm/arm-none-eabi/include/c++/10.3.1/bits/stl_algobase.h **** 
 568:/Library/DaisyToolchain/0.1.3-ARM/arm/arm-none-eabi/include/c++/10.3.1/bits/stl_algobase.h ****       return std::__copy_move_a<__is_move_iterator<_II>::__value>
 569:/Library/DaisyToolchain/0.1.3-ARM/arm/arm-none-eabi/include/c++/10.3.1/bits/stl_algobase.h **** 	     (std::__miter_base(__first), std::__miter_base(__last), __result);
 570:/Library/DaisyToolchain/0.1.3-ARM/arm/arm-none-eabi/include/c++/10.3.1/bits/stl_algobase.h ****     }
 571:/Library/DaisyToolchain/0.1.3-ARM/arm/arm-none-eabi/include/c++/10.3.1/bits/stl_algobase.h **** 
 572:/Library/DaisyToolchain/0.1.3-ARM/arm/arm-none-eabi/include/c++/10.3.1/bits/stl_algobase.h **** #if __cplusplus >= 201103L
 573:/Library/DaisyToolchain/0.1.3-ARM/arm/arm-none-eabi/include/c++/10.3.1/bits/stl_algobase.h ****   /**
 574:/Library/DaisyToolchain/0.1.3-ARM/arm/arm-none-eabi/include/c++/10.3.1/bits/stl_algobase.h ****    *  @brief Moves the range [first,last) into result.
 575:/Library/DaisyToolchain/0.1.3-ARM/arm/arm-none-eabi/include/c++/10.3.1/bits/stl_algobase.h ****    *  @ingroup mutating_algorithms
 576:/Library/DaisyToolchain/0.1.3-ARM/arm/arm-none-eabi/include/c++/10.3.1/bits/stl_algobase.h ****    *  @param  __first  An input iterator.
 577:/Library/DaisyToolchain/0.1.3-ARM/arm/arm-none-eabi/include/c++/10.3.1/bits/stl_algobase.h ****    *  @param  __last   An input iterator.
 578:/Library/DaisyToolchain/0.1.3-ARM/arm/arm-none-eabi/include/c++/10.3.1/bits/stl_algobase.h ****    *  @param  __result An output iterator.
 579:/Library/DaisyToolchain/0.1.3-ARM/arm/arm-none-eabi/include/c++/10.3.1/bits/stl_algobase.h ****    *  @return   result + (last - first)
 580:/Library/DaisyToolchain/0.1.3-ARM/arm/arm-none-eabi/include/c++/10.3.1/bits/stl_algobase.h ****    *
 581:/Library/DaisyToolchain/0.1.3-ARM/arm/arm-none-eabi/include/c++/10.3.1/bits/stl_algobase.h ****    *  This inline function will boil down to a call to @c memmove whenever
 582:/Library/DaisyToolchain/0.1.3-ARM/arm/arm-none-eabi/include/c++/10.3.1/bits/stl_algobase.h ****    *  possible.  Failing that, if random access iterators are passed, then the
 583:/Library/DaisyToolchain/0.1.3-ARM/arm/arm-none-eabi/include/c++/10.3.1/bits/stl_algobase.h ****    *  loop count will be known (and therefore a candidate for compiler
 584:/Library/DaisyToolchain/0.1.3-ARM/arm/arm-none-eabi/include/c++/10.3.1/bits/stl_algobase.h ****    *  optimizations such as unrolling).  Result may not be contained within
 585:/Library/DaisyToolchain/0.1.3-ARM/arm/arm-none-eabi/include/c++/10.3.1/bits/stl_algobase.h ****    *  [first,last); the move_backward function should be used instead.
 586:/Library/DaisyToolchain/0.1.3-ARM/arm/arm-none-eabi/include/c++/10.3.1/bits/stl_algobase.h ****    *
 587:/Library/DaisyToolchain/0.1.3-ARM/arm/arm-none-eabi/include/c++/10.3.1/bits/stl_algobase.h ****    *  Note that the end of the output range is permitted to be contained
 588:/Library/DaisyToolchain/0.1.3-ARM/arm/arm-none-eabi/include/c++/10.3.1/bits/stl_algobase.h ****    *  within [first,last).
 589:/Library/DaisyToolchain/0.1.3-ARM/arm/arm-none-eabi/include/c++/10.3.1/bits/stl_algobase.h ****   */
 590:/Library/DaisyToolchain/0.1.3-ARM/arm/arm-none-eabi/include/c++/10.3.1/bits/stl_algobase.h ****   template<typename _II, typename _OI>
 591:/Library/DaisyToolchain/0.1.3-ARM/arm/arm-none-eabi/include/c++/10.3.1/bits/stl_algobase.h ****     _GLIBCXX20_CONSTEXPR
 592:/Library/DaisyToolchain/0.1.3-ARM/arm/arm-none-eabi/include/c++/10.3.1/bits/stl_algobase.h ****     inline _OI
 593:/Library/DaisyToolchain/0.1.3-ARM/arm/arm-none-eabi/include/c++/10.3.1/bits/stl_algobase.h ****     move(_II __first, _II __last, _OI __result)
 594:/Library/DaisyToolchain/0.1.3-ARM/arm/arm-none-eabi/include/c++/10.3.1/bits/stl_algobase.h ****     {
 595:/Library/DaisyToolchain/0.1.3-ARM/arm/arm-none-eabi/include/c++/10.3.1/bits/stl_algobase.h ****       // concept requirements
 596:/Library/DaisyToolchain/0.1.3-ARM/arm/arm-none-eabi/include/c++/10.3.1/bits/stl_algobase.h ****       __glibcxx_function_requires(_InputIteratorConcept<_II>)
 597:/Library/DaisyToolchain/0.1.3-ARM/arm/arm-none-eabi/include/c++/10.3.1/bits/stl_algobase.h ****       __glibcxx_function_requires(_OutputIteratorConcept<_OI,
 598:/Library/DaisyToolchain/0.1.3-ARM/arm/arm-none-eabi/include/c++/10.3.1/bits/stl_algobase.h **** 	    typename iterator_traits<_II>::value_type>)
 599:/Library/DaisyToolchain/0.1.3-ARM/arm/arm-none-eabi/include/c++/10.3.1/bits/stl_algobase.h ****       __glibcxx_requires_can_increment_range(__first, __last, __result);
 600:/Library/DaisyToolchain/0.1.3-ARM/arm/arm-none-eabi/include/c++/10.3.1/bits/stl_algobase.h **** 
 601:/Library/DaisyToolchain/0.1.3-ARM/arm/arm-none-eabi/include/c++/10.3.1/bits/stl_algobase.h ****       return std::__copy_move_a<true>(std::__miter_base(__first),
 602:/Library/DaisyToolchain/0.1.3-ARM/arm/arm-none-eabi/include/c++/10.3.1/bits/stl_algobase.h **** 				      std::__miter_base(__last), __result);
 603:/Library/DaisyToolchain/0.1.3-ARM/arm/arm-none-eabi/include/c++/10.3.1/bits/stl_algobase.h ****     }
 604:/Library/DaisyToolchain/0.1.3-ARM/arm/arm-none-eabi/include/c++/10.3.1/bits/stl_algobase.h **** 
 605:/Library/DaisyToolchain/0.1.3-ARM/arm/arm-none-eabi/include/c++/10.3.1/bits/stl_algobase.h **** #define _GLIBCXX_MOVE3(_Tp, _Up, _Vp) std::move(_Tp, _Up, _Vp)
 606:/Library/DaisyToolchain/0.1.3-ARM/arm/arm-none-eabi/include/c++/10.3.1/bits/stl_algobase.h **** #else
 607:/Library/DaisyToolchain/0.1.3-ARM/arm/arm-none-eabi/include/c++/10.3.1/bits/stl_algobase.h **** #define _GLIBCXX_MOVE3(_Tp, _Up, _Vp) std::copy(_Tp, _Up, _Vp)
 608:/Library/DaisyToolchain/0.1.3-ARM/arm/arm-none-eabi/include/c++/10.3.1/bits/stl_algobase.h **** #endif
 609:/Library/DaisyToolchain/0.1.3-ARM/arm/arm-none-eabi/include/c++/10.3.1/bits/stl_algobase.h **** 
 610:/Library/DaisyToolchain/0.1.3-ARM/arm/arm-none-eabi/include/c++/10.3.1/bits/stl_algobase.h ****   template<bool _IsMove, bool _IsSimple, typename _Category>
 611:/Library/DaisyToolchain/0.1.3-ARM/arm/arm-none-eabi/include/c++/10.3.1/bits/stl_algobase.h ****     struct __copy_move_backward
 612:/Library/DaisyToolchain/0.1.3-ARM/arm/arm-none-eabi/include/c++/10.3.1/bits/stl_algobase.h ****     {
 613:/Library/DaisyToolchain/0.1.3-ARM/arm/arm-none-eabi/include/c++/10.3.1/bits/stl_algobase.h ****       template<typename _BI1, typename _BI2>
ARM GAS  /var/folders/xd/16jvbr6j24q9nvtpm0qtw3240000gn/T//cch9jPA2.s 			page 155


 614:/Library/DaisyToolchain/0.1.3-ARM/arm/arm-none-eabi/include/c++/10.3.1/bits/stl_algobase.h **** 	_GLIBCXX20_CONSTEXPR
 615:/Library/DaisyToolchain/0.1.3-ARM/arm/arm-none-eabi/include/c++/10.3.1/bits/stl_algobase.h **** 	static _BI2
 616:/Library/DaisyToolchain/0.1.3-ARM/arm/arm-none-eabi/include/c++/10.3.1/bits/stl_algobase.h **** 	__copy_move_b(_BI1 __first, _BI1 __last, _BI2 __result)
 617:/Library/DaisyToolchain/0.1.3-ARM/arm/arm-none-eabi/include/c++/10.3.1/bits/stl_algobase.h **** 	{
 618:/Library/DaisyToolchain/0.1.3-ARM/arm/arm-none-eabi/include/c++/10.3.1/bits/stl_algobase.h **** 	  while (__first != __last)
 619:/Library/DaisyToolchain/0.1.3-ARM/arm/arm-none-eabi/include/c++/10.3.1/bits/stl_algobase.h **** 	    *--__result = *--__last;
 620:/Library/DaisyToolchain/0.1.3-ARM/arm/arm-none-eabi/include/c++/10.3.1/bits/stl_algobase.h **** 	  return __result;
 621:/Library/DaisyToolchain/0.1.3-ARM/arm/arm-none-eabi/include/c++/10.3.1/bits/stl_algobase.h **** 	}
 622:/Library/DaisyToolchain/0.1.3-ARM/arm/arm-none-eabi/include/c++/10.3.1/bits/stl_algobase.h ****     };
 623:/Library/DaisyToolchain/0.1.3-ARM/arm/arm-none-eabi/include/c++/10.3.1/bits/stl_algobase.h **** 
 624:/Library/DaisyToolchain/0.1.3-ARM/arm/arm-none-eabi/include/c++/10.3.1/bits/stl_algobase.h **** #if __cplusplus >= 201103L
 625:/Library/DaisyToolchain/0.1.3-ARM/arm/arm-none-eabi/include/c++/10.3.1/bits/stl_algobase.h ****   template<typename _Category>
 626:/Library/DaisyToolchain/0.1.3-ARM/arm/arm-none-eabi/include/c++/10.3.1/bits/stl_algobase.h ****     struct __copy_move_backward<true, false, _Category>
 627:/Library/DaisyToolchain/0.1.3-ARM/arm/arm-none-eabi/include/c++/10.3.1/bits/stl_algobase.h ****     {
 628:/Library/DaisyToolchain/0.1.3-ARM/arm/arm-none-eabi/include/c++/10.3.1/bits/stl_algobase.h ****       template<typename _BI1, typename _BI2>
 629:/Library/DaisyToolchain/0.1.3-ARM/arm/arm-none-eabi/include/c++/10.3.1/bits/stl_algobase.h **** 	_GLIBCXX20_CONSTEXPR
 630:/Library/DaisyToolchain/0.1.3-ARM/arm/arm-none-eabi/include/c++/10.3.1/bits/stl_algobase.h **** 	static _BI2
 631:/Library/DaisyToolchain/0.1.3-ARM/arm/arm-none-eabi/include/c++/10.3.1/bits/stl_algobase.h **** 	__copy_move_b(_BI1 __first, _BI1 __last, _BI2 __result)
 632:/Library/DaisyToolchain/0.1.3-ARM/arm/arm-none-eabi/include/c++/10.3.1/bits/stl_algobase.h **** 	{
 633:/Library/DaisyToolchain/0.1.3-ARM/arm/arm-none-eabi/include/c++/10.3.1/bits/stl_algobase.h **** 	  while (__first != __last)
 634:/Library/DaisyToolchain/0.1.3-ARM/arm/arm-none-eabi/include/c++/10.3.1/bits/stl_algobase.h **** 	    *--__result = std::move(*--__last);
 635:/Library/DaisyToolchain/0.1.3-ARM/arm/arm-none-eabi/include/c++/10.3.1/bits/stl_algobase.h **** 	  return __result;
 636:/Library/DaisyToolchain/0.1.3-ARM/arm/arm-none-eabi/include/c++/10.3.1/bits/stl_algobase.h **** 	}
 637:/Library/DaisyToolchain/0.1.3-ARM/arm/arm-none-eabi/include/c++/10.3.1/bits/stl_algobase.h ****     };
 638:/Library/DaisyToolchain/0.1.3-ARM/arm/arm-none-eabi/include/c++/10.3.1/bits/stl_algobase.h **** #endif
 639:/Library/DaisyToolchain/0.1.3-ARM/arm/arm-none-eabi/include/c++/10.3.1/bits/stl_algobase.h **** 
 640:/Library/DaisyToolchain/0.1.3-ARM/arm/arm-none-eabi/include/c++/10.3.1/bits/stl_algobase.h ****   template<>
 641:/Library/DaisyToolchain/0.1.3-ARM/arm/arm-none-eabi/include/c++/10.3.1/bits/stl_algobase.h ****     struct __copy_move_backward<false, false, random_access_iterator_tag>
 642:/Library/DaisyToolchain/0.1.3-ARM/arm/arm-none-eabi/include/c++/10.3.1/bits/stl_algobase.h ****     {
 643:/Library/DaisyToolchain/0.1.3-ARM/arm/arm-none-eabi/include/c++/10.3.1/bits/stl_algobase.h ****       template<typename _BI1, typename _BI2>
 644:/Library/DaisyToolchain/0.1.3-ARM/arm/arm-none-eabi/include/c++/10.3.1/bits/stl_algobase.h **** 	_GLIBCXX20_CONSTEXPR
 645:/Library/DaisyToolchain/0.1.3-ARM/arm/arm-none-eabi/include/c++/10.3.1/bits/stl_algobase.h **** 	static _BI2
 646:/Library/DaisyToolchain/0.1.3-ARM/arm/arm-none-eabi/include/c++/10.3.1/bits/stl_algobase.h **** 	__copy_move_b(_BI1 __first, _BI1 __last, _BI2 __result)
 647:/Library/DaisyToolchain/0.1.3-ARM/arm/arm-none-eabi/include/c++/10.3.1/bits/stl_algobase.h **** 	{
 648:/Library/DaisyToolchain/0.1.3-ARM/arm/arm-none-eabi/include/c++/10.3.1/bits/stl_algobase.h **** 	  typename iterator_traits<_BI1>::difference_type
 649:/Library/DaisyToolchain/0.1.3-ARM/arm/arm-none-eabi/include/c++/10.3.1/bits/stl_algobase.h **** 	    __n = __last - __first;
 650:/Library/DaisyToolchain/0.1.3-ARM/arm/arm-none-eabi/include/c++/10.3.1/bits/stl_algobase.h **** 	  for (; __n > 0; --__n)
 651:/Library/DaisyToolchain/0.1.3-ARM/arm/arm-none-eabi/include/c++/10.3.1/bits/stl_algobase.h **** 	    *--__result = *--__last;
 652:/Library/DaisyToolchain/0.1.3-ARM/arm/arm-none-eabi/include/c++/10.3.1/bits/stl_algobase.h **** 	  return __result;
 653:/Library/DaisyToolchain/0.1.3-ARM/arm/arm-none-eabi/include/c++/10.3.1/bits/stl_algobase.h **** 	}
 654:/Library/DaisyToolchain/0.1.3-ARM/arm/arm-none-eabi/include/c++/10.3.1/bits/stl_algobase.h ****     };
 655:/Library/DaisyToolchain/0.1.3-ARM/arm/arm-none-eabi/include/c++/10.3.1/bits/stl_algobase.h **** 
 656:/Library/DaisyToolchain/0.1.3-ARM/arm/arm-none-eabi/include/c++/10.3.1/bits/stl_algobase.h **** #if __cplusplus >= 201103L
 657:/Library/DaisyToolchain/0.1.3-ARM/arm/arm-none-eabi/include/c++/10.3.1/bits/stl_algobase.h ****   template<>
 658:/Library/DaisyToolchain/0.1.3-ARM/arm/arm-none-eabi/include/c++/10.3.1/bits/stl_algobase.h ****     struct __copy_move_backward<true, false, random_access_iterator_tag>
 659:/Library/DaisyToolchain/0.1.3-ARM/arm/arm-none-eabi/include/c++/10.3.1/bits/stl_algobase.h ****     {
 660:/Library/DaisyToolchain/0.1.3-ARM/arm/arm-none-eabi/include/c++/10.3.1/bits/stl_algobase.h ****       template<typename _BI1, typename _BI2>
 661:/Library/DaisyToolchain/0.1.3-ARM/arm/arm-none-eabi/include/c++/10.3.1/bits/stl_algobase.h **** 	_GLIBCXX20_CONSTEXPR
 662:/Library/DaisyToolchain/0.1.3-ARM/arm/arm-none-eabi/include/c++/10.3.1/bits/stl_algobase.h **** 	static _BI2
 663:/Library/DaisyToolchain/0.1.3-ARM/arm/arm-none-eabi/include/c++/10.3.1/bits/stl_algobase.h **** 	__copy_move_b(_BI1 __first, _BI1 __last, _BI2 __result)
 664:/Library/DaisyToolchain/0.1.3-ARM/arm/arm-none-eabi/include/c++/10.3.1/bits/stl_algobase.h **** 	{
 665:/Library/DaisyToolchain/0.1.3-ARM/arm/arm-none-eabi/include/c++/10.3.1/bits/stl_algobase.h **** 	  typename iterator_traits<_BI1>::difference_type
 666:/Library/DaisyToolchain/0.1.3-ARM/arm/arm-none-eabi/include/c++/10.3.1/bits/stl_algobase.h **** 	    __n = __last - __first;
 667:/Library/DaisyToolchain/0.1.3-ARM/arm/arm-none-eabi/include/c++/10.3.1/bits/stl_algobase.h **** 	  for (; __n > 0; --__n)
 668:/Library/DaisyToolchain/0.1.3-ARM/arm/arm-none-eabi/include/c++/10.3.1/bits/stl_algobase.h **** 	    *--__result = std::move(*--__last);
 669:/Library/DaisyToolchain/0.1.3-ARM/arm/arm-none-eabi/include/c++/10.3.1/bits/stl_algobase.h **** 	  return __result;
 670:/Library/DaisyToolchain/0.1.3-ARM/arm/arm-none-eabi/include/c++/10.3.1/bits/stl_algobase.h **** 	}
ARM GAS  /var/folders/xd/16jvbr6j24q9nvtpm0qtw3240000gn/T//cch9jPA2.s 			page 156


 671:/Library/DaisyToolchain/0.1.3-ARM/arm/arm-none-eabi/include/c++/10.3.1/bits/stl_algobase.h ****     };
 672:/Library/DaisyToolchain/0.1.3-ARM/arm/arm-none-eabi/include/c++/10.3.1/bits/stl_algobase.h **** #endif
 673:/Library/DaisyToolchain/0.1.3-ARM/arm/arm-none-eabi/include/c++/10.3.1/bits/stl_algobase.h **** 
 674:/Library/DaisyToolchain/0.1.3-ARM/arm/arm-none-eabi/include/c++/10.3.1/bits/stl_algobase.h ****   template<bool _IsMove>
 675:/Library/DaisyToolchain/0.1.3-ARM/arm/arm-none-eabi/include/c++/10.3.1/bits/stl_algobase.h ****     struct __copy_move_backward<_IsMove, true, random_access_iterator_tag>
 676:/Library/DaisyToolchain/0.1.3-ARM/arm/arm-none-eabi/include/c++/10.3.1/bits/stl_algobase.h ****     {
 677:/Library/DaisyToolchain/0.1.3-ARM/arm/arm-none-eabi/include/c++/10.3.1/bits/stl_algobase.h ****       template<typename _Tp>
 678:/Library/DaisyToolchain/0.1.3-ARM/arm/arm-none-eabi/include/c++/10.3.1/bits/stl_algobase.h **** 	_GLIBCXX20_CONSTEXPR
 679:/Library/DaisyToolchain/0.1.3-ARM/arm/arm-none-eabi/include/c++/10.3.1/bits/stl_algobase.h **** 	static _Tp*
 680:/Library/DaisyToolchain/0.1.3-ARM/arm/arm-none-eabi/include/c++/10.3.1/bits/stl_algobase.h **** 	__copy_move_b(const _Tp* __first, const _Tp* __last, _Tp* __result)
 681:/Library/DaisyToolchain/0.1.3-ARM/arm/arm-none-eabi/include/c++/10.3.1/bits/stl_algobase.h **** 	{
 682:/Library/DaisyToolchain/0.1.3-ARM/arm/arm-none-eabi/include/c++/10.3.1/bits/stl_algobase.h **** #if __cplusplus >= 201103L
 683:/Library/DaisyToolchain/0.1.3-ARM/arm/arm-none-eabi/include/c++/10.3.1/bits/stl_algobase.h **** 	  using __assignable = conditional<_IsMove,
 684:/Library/DaisyToolchain/0.1.3-ARM/arm/arm-none-eabi/include/c++/10.3.1/bits/stl_algobase.h **** 					   is_move_assignable<_Tp>,
 685:/Library/DaisyToolchain/0.1.3-ARM/arm/arm-none-eabi/include/c++/10.3.1/bits/stl_algobase.h **** 					   is_copy_assignable<_Tp>>;
 686:/Library/DaisyToolchain/0.1.3-ARM/arm/arm-none-eabi/include/c++/10.3.1/bits/stl_algobase.h **** 	  // trivial types can have deleted assignment
 687:/Library/DaisyToolchain/0.1.3-ARM/arm/arm-none-eabi/include/c++/10.3.1/bits/stl_algobase.h **** 	  static_assert( __assignable::type::value, "type is not assignable" );
 688:/Library/DaisyToolchain/0.1.3-ARM/arm/arm-none-eabi/include/c++/10.3.1/bits/stl_algobase.h **** #endif
 689:/Library/DaisyToolchain/0.1.3-ARM/arm/arm-none-eabi/include/c++/10.3.1/bits/stl_algobase.h **** 	  const ptrdiff_t _Num = __last - __first;
 690:/Library/DaisyToolchain/0.1.3-ARM/arm/arm-none-eabi/include/c++/10.3.1/bits/stl_algobase.h **** 	  if (_Num)
 691:/Library/DaisyToolchain/0.1.3-ARM/arm/arm-none-eabi/include/c++/10.3.1/bits/stl_algobase.h **** 	    __builtin_memmove(__result - _Num, __first, sizeof(_Tp) * _Num);
 692:/Library/DaisyToolchain/0.1.3-ARM/arm/arm-none-eabi/include/c++/10.3.1/bits/stl_algobase.h **** 	  return __result - _Num;
 693:/Library/DaisyToolchain/0.1.3-ARM/arm/arm-none-eabi/include/c++/10.3.1/bits/stl_algobase.h **** 	}
 694:/Library/DaisyToolchain/0.1.3-ARM/arm/arm-none-eabi/include/c++/10.3.1/bits/stl_algobase.h ****     };
 695:/Library/DaisyToolchain/0.1.3-ARM/arm/arm-none-eabi/include/c++/10.3.1/bits/stl_algobase.h **** 
 696:/Library/DaisyToolchain/0.1.3-ARM/arm/arm-none-eabi/include/c++/10.3.1/bits/stl_algobase.h ****   template<bool _IsMove, typename _BI1, typename _BI2>
 697:/Library/DaisyToolchain/0.1.3-ARM/arm/arm-none-eabi/include/c++/10.3.1/bits/stl_algobase.h ****     _GLIBCXX20_CONSTEXPR
 698:/Library/DaisyToolchain/0.1.3-ARM/arm/arm-none-eabi/include/c++/10.3.1/bits/stl_algobase.h ****     inline _BI2
 699:/Library/DaisyToolchain/0.1.3-ARM/arm/arm-none-eabi/include/c++/10.3.1/bits/stl_algobase.h ****     __copy_move_backward_a2(_BI1 __first, _BI1 __last, _BI2 __result)
 700:/Library/DaisyToolchain/0.1.3-ARM/arm/arm-none-eabi/include/c++/10.3.1/bits/stl_algobase.h ****     {
 701:/Library/DaisyToolchain/0.1.3-ARM/arm/arm-none-eabi/include/c++/10.3.1/bits/stl_algobase.h ****       typedef typename iterator_traits<_BI1>::iterator_category _Category;
 702:/Library/DaisyToolchain/0.1.3-ARM/arm/arm-none-eabi/include/c++/10.3.1/bits/stl_algobase.h **** #ifdef __cpp_lib_is_constant_evaluated
 703:/Library/DaisyToolchain/0.1.3-ARM/arm/arm-none-eabi/include/c++/10.3.1/bits/stl_algobase.h ****       if (std::is_constant_evaluated())
 704:/Library/DaisyToolchain/0.1.3-ARM/arm/arm-none-eabi/include/c++/10.3.1/bits/stl_algobase.h **** 	return std::__copy_move_backward<_IsMove, false, _Category>::
 705:/Library/DaisyToolchain/0.1.3-ARM/arm/arm-none-eabi/include/c++/10.3.1/bits/stl_algobase.h **** 	  __copy_move_b(__first, __last, __result);
 706:/Library/DaisyToolchain/0.1.3-ARM/arm/arm-none-eabi/include/c++/10.3.1/bits/stl_algobase.h **** #endif
 707:/Library/DaisyToolchain/0.1.3-ARM/arm/arm-none-eabi/include/c++/10.3.1/bits/stl_algobase.h ****       return std::__copy_move_backward<_IsMove,
 708:/Library/DaisyToolchain/0.1.3-ARM/arm/arm-none-eabi/include/c++/10.3.1/bits/stl_algobase.h **** 				       __memcpyable<_BI2, _BI1>::__value,
 709:/Library/DaisyToolchain/0.1.3-ARM/arm/arm-none-eabi/include/c++/10.3.1/bits/stl_algobase.h **** 				       _Category>::__copy_move_b(__first,
 710:/Library/DaisyToolchain/0.1.3-ARM/arm/arm-none-eabi/include/c++/10.3.1/bits/stl_algobase.h **** 								 __last,
 711:/Library/DaisyToolchain/0.1.3-ARM/arm/arm-none-eabi/include/c++/10.3.1/bits/stl_algobase.h **** 								 __result);
 712:/Library/DaisyToolchain/0.1.3-ARM/arm/arm-none-eabi/include/c++/10.3.1/bits/stl_algobase.h ****     }
 713:/Library/DaisyToolchain/0.1.3-ARM/arm/arm-none-eabi/include/c++/10.3.1/bits/stl_algobase.h **** 
 714:/Library/DaisyToolchain/0.1.3-ARM/arm/arm-none-eabi/include/c++/10.3.1/bits/stl_algobase.h ****   template<bool _IsMove, typename _BI1, typename _BI2>
 715:/Library/DaisyToolchain/0.1.3-ARM/arm/arm-none-eabi/include/c++/10.3.1/bits/stl_algobase.h ****     _GLIBCXX20_CONSTEXPR
 716:/Library/DaisyToolchain/0.1.3-ARM/arm/arm-none-eabi/include/c++/10.3.1/bits/stl_algobase.h ****     inline _BI2
 717:/Library/DaisyToolchain/0.1.3-ARM/arm/arm-none-eabi/include/c++/10.3.1/bits/stl_algobase.h ****     __copy_move_backward_a1(_BI1 __first, _BI1 __last, _BI2 __result)
 718:/Library/DaisyToolchain/0.1.3-ARM/arm/arm-none-eabi/include/c++/10.3.1/bits/stl_algobase.h ****     { return std::__copy_move_backward_a2<_IsMove>(__first, __last, __result); }
 719:/Library/DaisyToolchain/0.1.3-ARM/arm/arm-none-eabi/include/c++/10.3.1/bits/stl_algobase.h **** 
 720:/Library/DaisyToolchain/0.1.3-ARM/arm/arm-none-eabi/include/c++/10.3.1/bits/stl_algobase.h ****   template<bool _IsMove,
 721:/Library/DaisyToolchain/0.1.3-ARM/arm/arm-none-eabi/include/c++/10.3.1/bits/stl_algobase.h **** 	   typename _Tp, typename _Ref, typename _Ptr, typename _OI>
 722:/Library/DaisyToolchain/0.1.3-ARM/arm/arm-none-eabi/include/c++/10.3.1/bits/stl_algobase.h ****     _OI
 723:/Library/DaisyToolchain/0.1.3-ARM/arm/arm-none-eabi/include/c++/10.3.1/bits/stl_algobase.h ****     __copy_move_backward_a1(_GLIBCXX_STD_C::_Deque_iterator<_Tp, _Ref, _Ptr>,
 724:/Library/DaisyToolchain/0.1.3-ARM/arm/arm-none-eabi/include/c++/10.3.1/bits/stl_algobase.h **** 			    _GLIBCXX_STD_C::_Deque_iterator<_Tp, _Ref, _Ptr>,
 725:/Library/DaisyToolchain/0.1.3-ARM/arm/arm-none-eabi/include/c++/10.3.1/bits/stl_algobase.h **** 			    _OI);
 726:/Library/DaisyToolchain/0.1.3-ARM/arm/arm-none-eabi/include/c++/10.3.1/bits/stl_algobase.h **** 
 727:/Library/DaisyToolchain/0.1.3-ARM/arm/arm-none-eabi/include/c++/10.3.1/bits/stl_algobase.h ****   template<bool _IsMove,
ARM GAS  /var/folders/xd/16jvbr6j24q9nvtpm0qtw3240000gn/T//cch9jPA2.s 			page 157


 728:/Library/DaisyToolchain/0.1.3-ARM/arm/arm-none-eabi/include/c++/10.3.1/bits/stl_algobase.h **** 	   typename _ITp, typename _IRef, typename _IPtr, typename _OTp>
 729:/Library/DaisyToolchain/0.1.3-ARM/arm/arm-none-eabi/include/c++/10.3.1/bits/stl_algobase.h ****     _GLIBCXX_STD_C::_Deque_iterator<_OTp, _OTp&, _OTp*>
 730:/Library/DaisyToolchain/0.1.3-ARM/arm/arm-none-eabi/include/c++/10.3.1/bits/stl_algobase.h ****     __copy_move_backward_a1(
 731:/Library/DaisyToolchain/0.1.3-ARM/arm/arm-none-eabi/include/c++/10.3.1/bits/stl_algobase.h **** 			_GLIBCXX_STD_C::_Deque_iterator<_ITp, _IRef, _IPtr>,
 732:/Library/DaisyToolchain/0.1.3-ARM/arm/arm-none-eabi/include/c++/10.3.1/bits/stl_algobase.h **** 			_GLIBCXX_STD_C::_Deque_iterator<_ITp, _IRef, _IPtr>,
 733:/Library/DaisyToolchain/0.1.3-ARM/arm/arm-none-eabi/include/c++/10.3.1/bits/stl_algobase.h **** 			_GLIBCXX_STD_C::_Deque_iterator<_OTp, _OTp&, _OTp*>);
 734:/Library/DaisyToolchain/0.1.3-ARM/arm/arm-none-eabi/include/c++/10.3.1/bits/stl_algobase.h **** 
 735:/Library/DaisyToolchain/0.1.3-ARM/arm/arm-none-eabi/include/c++/10.3.1/bits/stl_algobase.h ****   template<bool _IsMove, typename _II, typename _Tp>
 736:/Library/DaisyToolchain/0.1.3-ARM/arm/arm-none-eabi/include/c++/10.3.1/bits/stl_algobase.h ****     typename __gnu_cxx::__enable_if<
 737:/Library/DaisyToolchain/0.1.3-ARM/arm/arm-none-eabi/include/c++/10.3.1/bits/stl_algobase.h ****       __is_random_access_iter<_II>::__value,
 738:/Library/DaisyToolchain/0.1.3-ARM/arm/arm-none-eabi/include/c++/10.3.1/bits/stl_algobase.h ****       _GLIBCXX_STD_C::_Deque_iterator<_Tp, _Tp&, _Tp*> >::__type
 739:/Library/DaisyToolchain/0.1.3-ARM/arm/arm-none-eabi/include/c++/10.3.1/bits/stl_algobase.h ****     __copy_move_backward_a1(_II, _II,
 740:/Library/DaisyToolchain/0.1.3-ARM/arm/arm-none-eabi/include/c++/10.3.1/bits/stl_algobase.h **** 			    _GLIBCXX_STD_C::_Deque_iterator<_Tp, _Tp&, _Tp*>);
 741:/Library/DaisyToolchain/0.1.3-ARM/arm/arm-none-eabi/include/c++/10.3.1/bits/stl_algobase.h **** 
 742:/Library/DaisyToolchain/0.1.3-ARM/arm/arm-none-eabi/include/c++/10.3.1/bits/stl_algobase.h ****   template<bool _IsMove, typename _II, typename _OI>
 743:/Library/DaisyToolchain/0.1.3-ARM/arm/arm-none-eabi/include/c++/10.3.1/bits/stl_algobase.h ****     _GLIBCXX20_CONSTEXPR
 744:/Library/DaisyToolchain/0.1.3-ARM/arm/arm-none-eabi/include/c++/10.3.1/bits/stl_algobase.h ****     inline _OI
 745:/Library/DaisyToolchain/0.1.3-ARM/arm/arm-none-eabi/include/c++/10.3.1/bits/stl_algobase.h ****     __copy_move_backward_a(_II __first, _II __last, _OI __result)
 746:/Library/DaisyToolchain/0.1.3-ARM/arm/arm-none-eabi/include/c++/10.3.1/bits/stl_algobase.h ****     {
 747:/Library/DaisyToolchain/0.1.3-ARM/arm/arm-none-eabi/include/c++/10.3.1/bits/stl_algobase.h ****       return std::__niter_wrap(__result,
 748:/Library/DaisyToolchain/0.1.3-ARM/arm/arm-none-eabi/include/c++/10.3.1/bits/stl_algobase.h **** 		std::__copy_move_backward_a1<_IsMove>
 749:/Library/DaisyToolchain/0.1.3-ARM/arm/arm-none-eabi/include/c++/10.3.1/bits/stl_algobase.h **** 		  (std::__niter_base(__first), std::__niter_base(__last),
 750:/Library/DaisyToolchain/0.1.3-ARM/arm/arm-none-eabi/include/c++/10.3.1/bits/stl_algobase.h **** 		   std::__niter_base(__result)));
 751:/Library/DaisyToolchain/0.1.3-ARM/arm/arm-none-eabi/include/c++/10.3.1/bits/stl_algobase.h ****     }
 752:/Library/DaisyToolchain/0.1.3-ARM/arm/arm-none-eabi/include/c++/10.3.1/bits/stl_algobase.h **** 
 753:/Library/DaisyToolchain/0.1.3-ARM/arm/arm-none-eabi/include/c++/10.3.1/bits/stl_algobase.h ****   template<bool _IsMove,
 754:/Library/DaisyToolchain/0.1.3-ARM/arm/arm-none-eabi/include/c++/10.3.1/bits/stl_algobase.h **** 	   typename _Ite, typename _Seq, typename _Cat, typename _OI>
 755:/Library/DaisyToolchain/0.1.3-ARM/arm/arm-none-eabi/include/c++/10.3.1/bits/stl_algobase.h ****     _OI
 756:/Library/DaisyToolchain/0.1.3-ARM/arm/arm-none-eabi/include/c++/10.3.1/bits/stl_algobase.h ****     __copy_move_backward_a(
 757:/Library/DaisyToolchain/0.1.3-ARM/arm/arm-none-eabi/include/c++/10.3.1/bits/stl_algobase.h **** 		const ::__gnu_debug::_Safe_iterator<_Ite, _Seq, _Cat>&,
 758:/Library/DaisyToolchain/0.1.3-ARM/arm/arm-none-eabi/include/c++/10.3.1/bits/stl_algobase.h **** 		const ::__gnu_debug::_Safe_iterator<_Ite, _Seq, _Cat>&,
 759:/Library/DaisyToolchain/0.1.3-ARM/arm/arm-none-eabi/include/c++/10.3.1/bits/stl_algobase.h **** 		_OI);
 760:/Library/DaisyToolchain/0.1.3-ARM/arm/arm-none-eabi/include/c++/10.3.1/bits/stl_algobase.h **** 
 761:/Library/DaisyToolchain/0.1.3-ARM/arm/arm-none-eabi/include/c++/10.3.1/bits/stl_algobase.h ****   template<bool _IsMove,
 762:/Library/DaisyToolchain/0.1.3-ARM/arm/arm-none-eabi/include/c++/10.3.1/bits/stl_algobase.h **** 	   typename _II, typename _Ite, typename _Seq, typename _Cat>
 763:/Library/DaisyToolchain/0.1.3-ARM/arm/arm-none-eabi/include/c++/10.3.1/bits/stl_algobase.h ****     __gnu_debug::_Safe_iterator<_Ite, _Seq, _Cat>
 764:/Library/DaisyToolchain/0.1.3-ARM/arm/arm-none-eabi/include/c++/10.3.1/bits/stl_algobase.h ****     __copy_move_backward_a(_II, _II,
 765:/Library/DaisyToolchain/0.1.3-ARM/arm/arm-none-eabi/include/c++/10.3.1/bits/stl_algobase.h **** 		const ::__gnu_debug::_Safe_iterator<_Ite, _Seq, _Cat>&);
 766:/Library/DaisyToolchain/0.1.3-ARM/arm/arm-none-eabi/include/c++/10.3.1/bits/stl_algobase.h **** 
 767:/Library/DaisyToolchain/0.1.3-ARM/arm/arm-none-eabi/include/c++/10.3.1/bits/stl_algobase.h ****   template<bool _IsMove,
 768:/Library/DaisyToolchain/0.1.3-ARM/arm/arm-none-eabi/include/c++/10.3.1/bits/stl_algobase.h **** 	   typename _IIte, typename _ISeq, typename _ICat,
 769:/Library/DaisyToolchain/0.1.3-ARM/arm/arm-none-eabi/include/c++/10.3.1/bits/stl_algobase.h **** 	   typename _OIte, typename _OSeq, typename _OCat>
 770:/Library/DaisyToolchain/0.1.3-ARM/arm/arm-none-eabi/include/c++/10.3.1/bits/stl_algobase.h ****     ::__gnu_debug::_Safe_iterator<_OIte, _OSeq, _OCat>
 771:/Library/DaisyToolchain/0.1.3-ARM/arm/arm-none-eabi/include/c++/10.3.1/bits/stl_algobase.h ****     __copy_move_backward_a(
 772:/Library/DaisyToolchain/0.1.3-ARM/arm/arm-none-eabi/include/c++/10.3.1/bits/stl_algobase.h **** 		const ::__gnu_debug::_Safe_iterator<_IIte, _ISeq, _ICat>&,
 773:/Library/DaisyToolchain/0.1.3-ARM/arm/arm-none-eabi/include/c++/10.3.1/bits/stl_algobase.h **** 		const ::__gnu_debug::_Safe_iterator<_IIte, _ISeq, _ICat>&,
 774:/Library/DaisyToolchain/0.1.3-ARM/arm/arm-none-eabi/include/c++/10.3.1/bits/stl_algobase.h **** 		const ::__gnu_debug::_Safe_iterator<_OIte, _OSeq, _OCat>&);
 775:/Library/DaisyToolchain/0.1.3-ARM/arm/arm-none-eabi/include/c++/10.3.1/bits/stl_algobase.h **** 
 776:/Library/DaisyToolchain/0.1.3-ARM/arm/arm-none-eabi/include/c++/10.3.1/bits/stl_algobase.h ****   /**
 777:/Library/DaisyToolchain/0.1.3-ARM/arm/arm-none-eabi/include/c++/10.3.1/bits/stl_algobase.h ****    *  @brief Copies the range [first,last) into result.
 778:/Library/DaisyToolchain/0.1.3-ARM/arm/arm-none-eabi/include/c++/10.3.1/bits/stl_algobase.h ****    *  @ingroup mutating_algorithms
 779:/Library/DaisyToolchain/0.1.3-ARM/arm/arm-none-eabi/include/c++/10.3.1/bits/stl_algobase.h ****    *  @param  __first  A bidirectional iterator.
 780:/Library/DaisyToolchain/0.1.3-ARM/arm/arm-none-eabi/include/c++/10.3.1/bits/stl_algobase.h ****    *  @param  __last   A bidirectional iterator.
 781:/Library/DaisyToolchain/0.1.3-ARM/arm/arm-none-eabi/include/c++/10.3.1/bits/stl_algobase.h ****    *  @param  __result A bidirectional iterator.
 782:/Library/DaisyToolchain/0.1.3-ARM/arm/arm-none-eabi/include/c++/10.3.1/bits/stl_algobase.h ****    *  @return   result - (last - first)
 783:/Library/DaisyToolchain/0.1.3-ARM/arm/arm-none-eabi/include/c++/10.3.1/bits/stl_algobase.h ****    *
 784:/Library/DaisyToolchain/0.1.3-ARM/arm/arm-none-eabi/include/c++/10.3.1/bits/stl_algobase.h ****    *  The function has the same effect as copy, but starts at the end of the
ARM GAS  /var/folders/xd/16jvbr6j24q9nvtpm0qtw3240000gn/T//cch9jPA2.s 			page 158


 785:/Library/DaisyToolchain/0.1.3-ARM/arm/arm-none-eabi/include/c++/10.3.1/bits/stl_algobase.h ****    *  range and works its way to the start, returning the start of the result.
 786:/Library/DaisyToolchain/0.1.3-ARM/arm/arm-none-eabi/include/c++/10.3.1/bits/stl_algobase.h ****    *  This inline function will boil down to a call to @c memmove whenever
 787:/Library/DaisyToolchain/0.1.3-ARM/arm/arm-none-eabi/include/c++/10.3.1/bits/stl_algobase.h ****    *  possible.  Failing that, if random access iterators are passed, then the
 788:/Library/DaisyToolchain/0.1.3-ARM/arm/arm-none-eabi/include/c++/10.3.1/bits/stl_algobase.h ****    *  loop count will be known (and therefore a candidate for compiler
 789:/Library/DaisyToolchain/0.1.3-ARM/arm/arm-none-eabi/include/c++/10.3.1/bits/stl_algobase.h ****    *  optimizations such as unrolling).
 790:/Library/DaisyToolchain/0.1.3-ARM/arm/arm-none-eabi/include/c++/10.3.1/bits/stl_algobase.h ****    *
 791:/Library/DaisyToolchain/0.1.3-ARM/arm/arm-none-eabi/include/c++/10.3.1/bits/stl_algobase.h ****    *  Result may not be in the range (first,last].  Use copy instead.  Note
 792:/Library/DaisyToolchain/0.1.3-ARM/arm/arm-none-eabi/include/c++/10.3.1/bits/stl_algobase.h ****    *  that the start of the output range may overlap [first,last).
 793:/Library/DaisyToolchain/0.1.3-ARM/arm/arm-none-eabi/include/c++/10.3.1/bits/stl_algobase.h ****   */
 794:/Library/DaisyToolchain/0.1.3-ARM/arm/arm-none-eabi/include/c++/10.3.1/bits/stl_algobase.h ****   template<typename _BI1, typename _BI2>
 795:/Library/DaisyToolchain/0.1.3-ARM/arm/arm-none-eabi/include/c++/10.3.1/bits/stl_algobase.h ****     _GLIBCXX20_CONSTEXPR
 796:/Library/DaisyToolchain/0.1.3-ARM/arm/arm-none-eabi/include/c++/10.3.1/bits/stl_algobase.h ****     inline _BI2
 797:/Library/DaisyToolchain/0.1.3-ARM/arm/arm-none-eabi/include/c++/10.3.1/bits/stl_algobase.h ****     copy_backward(_BI1 __first, _BI1 __last, _BI2 __result)
 798:/Library/DaisyToolchain/0.1.3-ARM/arm/arm-none-eabi/include/c++/10.3.1/bits/stl_algobase.h ****     {
 799:/Library/DaisyToolchain/0.1.3-ARM/arm/arm-none-eabi/include/c++/10.3.1/bits/stl_algobase.h ****       // concept requirements
 800:/Library/DaisyToolchain/0.1.3-ARM/arm/arm-none-eabi/include/c++/10.3.1/bits/stl_algobase.h ****       __glibcxx_function_requires(_BidirectionalIteratorConcept<_BI1>)
 801:/Library/DaisyToolchain/0.1.3-ARM/arm/arm-none-eabi/include/c++/10.3.1/bits/stl_algobase.h ****       __glibcxx_function_requires(_Mutable_BidirectionalIteratorConcept<_BI2>)
 802:/Library/DaisyToolchain/0.1.3-ARM/arm/arm-none-eabi/include/c++/10.3.1/bits/stl_algobase.h ****       __glibcxx_function_requires(_ConvertibleConcept<
 803:/Library/DaisyToolchain/0.1.3-ARM/arm/arm-none-eabi/include/c++/10.3.1/bits/stl_algobase.h **** 	    typename iterator_traits<_BI1>::value_type,
 804:/Library/DaisyToolchain/0.1.3-ARM/arm/arm-none-eabi/include/c++/10.3.1/bits/stl_algobase.h **** 	    typename iterator_traits<_BI2>::value_type>)
 805:/Library/DaisyToolchain/0.1.3-ARM/arm/arm-none-eabi/include/c++/10.3.1/bits/stl_algobase.h ****       __glibcxx_requires_can_decrement_range(__first, __last, __result);
 806:/Library/DaisyToolchain/0.1.3-ARM/arm/arm-none-eabi/include/c++/10.3.1/bits/stl_algobase.h **** 
 807:/Library/DaisyToolchain/0.1.3-ARM/arm/arm-none-eabi/include/c++/10.3.1/bits/stl_algobase.h ****       return std::__copy_move_backward_a<__is_move_iterator<_BI1>::__value>
 808:/Library/DaisyToolchain/0.1.3-ARM/arm/arm-none-eabi/include/c++/10.3.1/bits/stl_algobase.h **** 	     (std::__miter_base(__first), std::__miter_base(__last), __result);
 809:/Library/DaisyToolchain/0.1.3-ARM/arm/arm-none-eabi/include/c++/10.3.1/bits/stl_algobase.h ****     }
 810:/Library/DaisyToolchain/0.1.3-ARM/arm/arm-none-eabi/include/c++/10.3.1/bits/stl_algobase.h **** 
 811:/Library/DaisyToolchain/0.1.3-ARM/arm/arm-none-eabi/include/c++/10.3.1/bits/stl_algobase.h **** #if __cplusplus >= 201103L
 812:/Library/DaisyToolchain/0.1.3-ARM/arm/arm-none-eabi/include/c++/10.3.1/bits/stl_algobase.h ****   /**
 813:/Library/DaisyToolchain/0.1.3-ARM/arm/arm-none-eabi/include/c++/10.3.1/bits/stl_algobase.h ****    *  @brief Moves the range [first,last) into result.
 814:/Library/DaisyToolchain/0.1.3-ARM/arm/arm-none-eabi/include/c++/10.3.1/bits/stl_algobase.h ****    *  @ingroup mutating_algorithms
 815:/Library/DaisyToolchain/0.1.3-ARM/arm/arm-none-eabi/include/c++/10.3.1/bits/stl_algobase.h ****    *  @param  __first  A bidirectional iterator.
 816:/Library/DaisyToolchain/0.1.3-ARM/arm/arm-none-eabi/include/c++/10.3.1/bits/stl_algobase.h ****    *  @param  __last   A bidirectional iterator.
 817:/Library/DaisyToolchain/0.1.3-ARM/arm/arm-none-eabi/include/c++/10.3.1/bits/stl_algobase.h ****    *  @param  __result A bidirectional iterator.
 818:/Library/DaisyToolchain/0.1.3-ARM/arm/arm-none-eabi/include/c++/10.3.1/bits/stl_algobase.h ****    *  @return   result - (last - first)
 819:/Library/DaisyToolchain/0.1.3-ARM/arm/arm-none-eabi/include/c++/10.3.1/bits/stl_algobase.h ****    *
 820:/Library/DaisyToolchain/0.1.3-ARM/arm/arm-none-eabi/include/c++/10.3.1/bits/stl_algobase.h ****    *  The function has the same effect as move, but starts at the end of the
 821:/Library/DaisyToolchain/0.1.3-ARM/arm/arm-none-eabi/include/c++/10.3.1/bits/stl_algobase.h ****    *  range and works its way to the start, returning the start of the result.
 822:/Library/DaisyToolchain/0.1.3-ARM/arm/arm-none-eabi/include/c++/10.3.1/bits/stl_algobase.h ****    *  This inline function will boil down to a call to @c memmove whenever
 823:/Library/DaisyToolchain/0.1.3-ARM/arm/arm-none-eabi/include/c++/10.3.1/bits/stl_algobase.h ****    *  possible.  Failing that, if random access iterators are passed, then the
 824:/Library/DaisyToolchain/0.1.3-ARM/arm/arm-none-eabi/include/c++/10.3.1/bits/stl_algobase.h ****    *  loop count will be known (and therefore a candidate for compiler
 825:/Library/DaisyToolchain/0.1.3-ARM/arm/arm-none-eabi/include/c++/10.3.1/bits/stl_algobase.h ****    *  optimizations such as unrolling).
 826:/Library/DaisyToolchain/0.1.3-ARM/arm/arm-none-eabi/include/c++/10.3.1/bits/stl_algobase.h ****    *
 827:/Library/DaisyToolchain/0.1.3-ARM/arm/arm-none-eabi/include/c++/10.3.1/bits/stl_algobase.h ****    *  Result may not be in the range (first,last].  Use move instead.  Note
 828:/Library/DaisyToolchain/0.1.3-ARM/arm/arm-none-eabi/include/c++/10.3.1/bits/stl_algobase.h ****    *  that the start of the output range may overlap [first,last).
 829:/Library/DaisyToolchain/0.1.3-ARM/arm/arm-none-eabi/include/c++/10.3.1/bits/stl_algobase.h ****   */
 830:/Library/DaisyToolchain/0.1.3-ARM/arm/arm-none-eabi/include/c++/10.3.1/bits/stl_algobase.h ****   template<typename _BI1, typename _BI2>
 831:/Library/DaisyToolchain/0.1.3-ARM/arm/arm-none-eabi/include/c++/10.3.1/bits/stl_algobase.h ****     _GLIBCXX20_CONSTEXPR
 832:/Library/DaisyToolchain/0.1.3-ARM/arm/arm-none-eabi/include/c++/10.3.1/bits/stl_algobase.h ****     inline _BI2
 833:/Library/DaisyToolchain/0.1.3-ARM/arm/arm-none-eabi/include/c++/10.3.1/bits/stl_algobase.h ****     move_backward(_BI1 __first, _BI1 __last, _BI2 __result)
 834:/Library/DaisyToolchain/0.1.3-ARM/arm/arm-none-eabi/include/c++/10.3.1/bits/stl_algobase.h ****     {
 835:/Library/DaisyToolchain/0.1.3-ARM/arm/arm-none-eabi/include/c++/10.3.1/bits/stl_algobase.h ****       // concept requirements
 836:/Library/DaisyToolchain/0.1.3-ARM/arm/arm-none-eabi/include/c++/10.3.1/bits/stl_algobase.h ****       __glibcxx_function_requires(_BidirectionalIteratorConcept<_BI1>)
 837:/Library/DaisyToolchain/0.1.3-ARM/arm/arm-none-eabi/include/c++/10.3.1/bits/stl_algobase.h ****       __glibcxx_function_requires(_Mutable_BidirectionalIteratorConcept<_BI2>)
 838:/Library/DaisyToolchain/0.1.3-ARM/arm/arm-none-eabi/include/c++/10.3.1/bits/stl_algobase.h ****       __glibcxx_function_requires(_ConvertibleConcept<
 839:/Library/DaisyToolchain/0.1.3-ARM/arm/arm-none-eabi/include/c++/10.3.1/bits/stl_algobase.h **** 	    typename iterator_traits<_BI1>::value_type,
 840:/Library/DaisyToolchain/0.1.3-ARM/arm/arm-none-eabi/include/c++/10.3.1/bits/stl_algobase.h **** 	    typename iterator_traits<_BI2>::value_type>)
 841:/Library/DaisyToolchain/0.1.3-ARM/arm/arm-none-eabi/include/c++/10.3.1/bits/stl_algobase.h ****       __glibcxx_requires_can_decrement_range(__first, __last, __result);
ARM GAS  /var/folders/xd/16jvbr6j24q9nvtpm0qtw3240000gn/T//cch9jPA2.s 			page 159


 842:/Library/DaisyToolchain/0.1.3-ARM/arm/arm-none-eabi/include/c++/10.3.1/bits/stl_algobase.h **** 
 843:/Library/DaisyToolchain/0.1.3-ARM/arm/arm-none-eabi/include/c++/10.3.1/bits/stl_algobase.h ****       return std::__copy_move_backward_a<true>(std::__miter_base(__first),
 844:/Library/DaisyToolchain/0.1.3-ARM/arm/arm-none-eabi/include/c++/10.3.1/bits/stl_algobase.h **** 					       std::__miter_base(__last),
 845:/Library/DaisyToolchain/0.1.3-ARM/arm/arm-none-eabi/include/c++/10.3.1/bits/stl_algobase.h **** 					       __result);
 846:/Library/DaisyToolchain/0.1.3-ARM/arm/arm-none-eabi/include/c++/10.3.1/bits/stl_algobase.h ****     }
 847:/Library/DaisyToolchain/0.1.3-ARM/arm/arm-none-eabi/include/c++/10.3.1/bits/stl_algobase.h **** 
 848:/Library/DaisyToolchain/0.1.3-ARM/arm/arm-none-eabi/include/c++/10.3.1/bits/stl_algobase.h **** #define _GLIBCXX_MOVE_BACKWARD3(_Tp, _Up, _Vp) std::move_backward(_Tp, _Up, _Vp)
 849:/Library/DaisyToolchain/0.1.3-ARM/arm/arm-none-eabi/include/c++/10.3.1/bits/stl_algobase.h **** #else
 850:/Library/DaisyToolchain/0.1.3-ARM/arm/arm-none-eabi/include/c++/10.3.1/bits/stl_algobase.h **** #define _GLIBCXX_MOVE_BACKWARD3(_Tp, _Up, _Vp) std::copy_backward(_Tp, _Up, _Vp)
 851:/Library/DaisyToolchain/0.1.3-ARM/arm/arm-none-eabi/include/c++/10.3.1/bits/stl_algobase.h **** #endif
 852:/Library/DaisyToolchain/0.1.3-ARM/arm/arm-none-eabi/include/c++/10.3.1/bits/stl_algobase.h **** 
 853:/Library/DaisyToolchain/0.1.3-ARM/arm/arm-none-eabi/include/c++/10.3.1/bits/stl_algobase.h ****   template<typename _ForwardIterator, typename _Tp>
 854:/Library/DaisyToolchain/0.1.3-ARM/arm/arm-none-eabi/include/c++/10.3.1/bits/stl_algobase.h ****     _GLIBCXX20_CONSTEXPR
 855:/Library/DaisyToolchain/0.1.3-ARM/arm/arm-none-eabi/include/c++/10.3.1/bits/stl_algobase.h ****     inline typename
 856:/Library/DaisyToolchain/0.1.3-ARM/arm/arm-none-eabi/include/c++/10.3.1/bits/stl_algobase.h ****     __gnu_cxx::__enable_if<!__is_scalar<_Tp>::__value, void>::__type
 857:/Library/DaisyToolchain/0.1.3-ARM/arm/arm-none-eabi/include/c++/10.3.1/bits/stl_algobase.h ****     __fill_a1(_ForwardIterator __first, _ForwardIterator __last,
 858:/Library/DaisyToolchain/0.1.3-ARM/arm/arm-none-eabi/include/c++/10.3.1/bits/stl_algobase.h **** 	      const _Tp& __value)
 859:/Library/DaisyToolchain/0.1.3-ARM/arm/arm-none-eabi/include/c++/10.3.1/bits/stl_algobase.h ****     {
 860:/Library/DaisyToolchain/0.1.3-ARM/arm/arm-none-eabi/include/c++/10.3.1/bits/stl_algobase.h ****       for (; __first != __last; ++__first)
 861:/Library/DaisyToolchain/0.1.3-ARM/arm/arm-none-eabi/include/c++/10.3.1/bits/stl_algobase.h **** 	*__first = __value;
 862:/Library/DaisyToolchain/0.1.3-ARM/arm/arm-none-eabi/include/c++/10.3.1/bits/stl_algobase.h ****     }
 863:/Library/DaisyToolchain/0.1.3-ARM/arm/arm-none-eabi/include/c++/10.3.1/bits/stl_algobase.h **** 
 864:/Library/DaisyToolchain/0.1.3-ARM/arm/arm-none-eabi/include/c++/10.3.1/bits/stl_algobase.h ****   template<typename _ForwardIterator, typename _Tp>
 865:/Library/DaisyToolchain/0.1.3-ARM/arm/arm-none-eabi/include/c++/10.3.1/bits/stl_algobase.h ****     _GLIBCXX20_CONSTEXPR
 866:/Library/DaisyToolchain/0.1.3-ARM/arm/arm-none-eabi/include/c++/10.3.1/bits/stl_algobase.h ****     inline typename
 867:/Library/DaisyToolchain/0.1.3-ARM/arm/arm-none-eabi/include/c++/10.3.1/bits/stl_algobase.h ****     __gnu_cxx::__enable_if<__is_scalar<_Tp>::__value, void>::__type
 868:/Library/DaisyToolchain/0.1.3-ARM/arm/arm-none-eabi/include/c++/10.3.1/bits/stl_algobase.h ****     __fill_a1(_ForwardIterator __first, _ForwardIterator __last,
 869:/Library/DaisyToolchain/0.1.3-ARM/arm/arm-none-eabi/include/c++/10.3.1/bits/stl_algobase.h **** 	      const _Tp& __value)
 870:/Library/DaisyToolchain/0.1.3-ARM/arm/arm-none-eabi/include/c++/10.3.1/bits/stl_algobase.h ****     {
 871:/Library/DaisyToolchain/0.1.3-ARM/arm/arm-none-eabi/include/c++/10.3.1/bits/stl_algobase.h ****       const _Tp __tmp = __value;
 872:/Library/DaisyToolchain/0.1.3-ARM/arm/arm-none-eabi/include/c++/10.3.1/bits/stl_algobase.h ****       for (; __first != __last; ++__first)
 873:/Library/DaisyToolchain/0.1.3-ARM/arm/arm-none-eabi/include/c++/10.3.1/bits/stl_algobase.h **** 	*__first = __tmp;
 874:/Library/DaisyToolchain/0.1.3-ARM/arm/arm-none-eabi/include/c++/10.3.1/bits/stl_algobase.h ****     }
 875:/Library/DaisyToolchain/0.1.3-ARM/arm/arm-none-eabi/include/c++/10.3.1/bits/stl_algobase.h **** 
 876:/Library/DaisyToolchain/0.1.3-ARM/arm/arm-none-eabi/include/c++/10.3.1/bits/stl_algobase.h ****   // Specialization: for char types we can use memset.
 877:/Library/DaisyToolchain/0.1.3-ARM/arm/arm-none-eabi/include/c++/10.3.1/bits/stl_algobase.h ****   template<typename _Tp>
 878:/Library/DaisyToolchain/0.1.3-ARM/arm/arm-none-eabi/include/c++/10.3.1/bits/stl_algobase.h ****     _GLIBCXX20_CONSTEXPR
 879:/Library/DaisyToolchain/0.1.3-ARM/arm/arm-none-eabi/include/c++/10.3.1/bits/stl_algobase.h ****     inline typename
 880:/Library/DaisyToolchain/0.1.3-ARM/arm/arm-none-eabi/include/c++/10.3.1/bits/stl_algobase.h ****     __gnu_cxx::__enable_if<__is_byte<_Tp>::__value, void>::__type
 881:/Library/DaisyToolchain/0.1.3-ARM/arm/arm-none-eabi/include/c++/10.3.1/bits/stl_algobase.h ****     __fill_a1(_Tp* __first, _Tp* __last, const _Tp& __c)
 882:/Library/DaisyToolchain/0.1.3-ARM/arm/arm-none-eabi/include/c++/10.3.1/bits/stl_algobase.h ****     {
 883:/Library/DaisyToolchain/0.1.3-ARM/arm/arm-none-eabi/include/c++/10.3.1/bits/stl_algobase.h ****       const _Tp __tmp = __c;
 884:/Library/DaisyToolchain/0.1.3-ARM/arm/arm-none-eabi/include/c++/10.3.1/bits/stl_algobase.h **** #if __cpp_lib_is_constant_evaluated
 885:/Library/DaisyToolchain/0.1.3-ARM/arm/arm-none-eabi/include/c++/10.3.1/bits/stl_algobase.h ****       if (std::is_constant_evaluated())
 886:/Library/DaisyToolchain/0.1.3-ARM/arm/arm-none-eabi/include/c++/10.3.1/bits/stl_algobase.h **** 	{
 887:/Library/DaisyToolchain/0.1.3-ARM/arm/arm-none-eabi/include/c++/10.3.1/bits/stl_algobase.h **** 	  for (; __first != __last; ++__first)
 888:/Library/DaisyToolchain/0.1.3-ARM/arm/arm-none-eabi/include/c++/10.3.1/bits/stl_algobase.h **** 	    *__first = __tmp;
 889:/Library/DaisyToolchain/0.1.3-ARM/arm/arm-none-eabi/include/c++/10.3.1/bits/stl_algobase.h **** 	  return;
 890:/Library/DaisyToolchain/0.1.3-ARM/arm/arm-none-eabi/include/c++/10.3.1/bits/stl_algobase.h **** 	}
 891:/Library/DaisyToolchain/0.1.3-ARM/arm/arm-none-eabi/include/c++/10.3.1/bits/stl_algobase.h **** #endif
 892:/Library/DaisyToolchain/0.1.3-ARM/arm/arm-none-eabi/include/c++/10.3.1/bits/stl_algobase.h ****       if (const size_t __len = __last - __first)
 893:/Library/DaisyToolchain/0.1.3-ARM/arm/arm-none-eabi/include/c++/10.3.1/bits/stl_algobase.h **** 	__builtin_memset(__first, static_cast<unsigned char>(__tmp), __len);
 894:/Library/DaisyToolchain/0.1.3-ARM/arm/arm-none-eabi/include/c++/10.3.1/bits/stl_algobase.h ****     }
 895:/Library/DaisyToolchain/0.1.3-ARM/arm/arm-none-eabi/include/c++/10.3.1/bits/stl_algobase.h **** 
 896:/Library/DaisyToolchain/0.1.3-ARM/arm/arm-none-eabi/include/c++/10.3.1/bits/stl_algobase.h ****   template<typename _Ite, typename _Cont, typename _Tp>
 897:/Library/DaisyToolchain/0.1.3-ARM/arm/arm-none-eabi/include/c++/10.3.1/bits/stl_algobase.h ****     _GLIBCXX20_CONSTEXPR
 898:/Library/DaisyToolchain/0.1.3-ARM/arm/arm-none-eabi/include/c++/10.3.1/bits/stl_algobase.h ****     inline void
ARM GAS  /var/folders/xd/16jvbr6j24q9nvtpm0qtw3240000gn/T//cch9jPA2.s 			page 160


 899:/Library/DaisyToolchain/0.1.3-ARM/arm/arm-none-eabi/include/c++/10.3.1/bits/stl_algobase.h ****     __fill_a1(::__gnu_cxx::__normal_iterator<_Ite, _Cont> __first,
 900:/Library/DaisyToolchain/0.1.3-ARM/arm/arm-none-eabi/include/c++/10.3.1/bits/stl_algobase.h **** 	      ::__gnu_cxx::__normal_iterator<_Ite, _Cont> __last,
 901:/Library/DaisyToolchain/0.1.3-ARM/arm/arm-none-eabi/include/c++/10.3.1/bits/stl_algobase.h **** 	      const _Tp& __value)
 902:/Library/DaisyToolchain/0.1.3-ARM/arm/arm-none-eabi/include/c++/10.3.1/bits/stl_algobase.h ****     { std::__fill_a1(__first.base(), __last.base(), __value); }
 903:/Library/DaisyToolchain/0.1.3-ARM/arm/arm-none-eabi/include/c++/10.3.1/bits/stl_algobase.h **** 
 904:/Library/DaisyToolchain/0.1.3-ARM/arm/arm-none-eabi/include/c++/10.3.1/bits/stl_algobase.h ****   template<typename _Tp, typename _VTp>
 905:/Library/DaisyToolchain/0.1.3-ARM/arm/arm-none-eabi/include/c++/10.3.1/bits/stl_algobase.h ****     void
 906:/Library/DaisyToolchain/0.1.3-ARM/arm/arm-none-eabi/include/c++/10.3.1/bits/stl_algobase.h ****     __fill_a1(const _GLIBCXX_STD_C::_Deque_iterator<_Tp, _Tp&, _Tp*>&,
 907:/Library/DaisyToolchain/0.1.3-ARM/arm/arm-none-eabi/include/c++/10.3.1/bits/stl_algobase.h **** 	      const _GLIBCXX_STD_C::_Deque_iterator<_Tp, _Tp&, _Tp*>&,
 908:/Library/DaisyToolchain/0.1.3-ARM/arm/arm-none-eabi/include/c++/10.3.1/bits/stl_algobase.h **** 	      const _VTp&);
 909:/Library/DaisyToolchain/0.1.3-ARM/arm/arm-none-eabi/include/c++/10.3.1/bits/stl_algobase.h **** 
 910:/Library/DaisyToolchain/0.1.3-ARM/arm/arm-none-eabi/include/c++/10.3.1/bits/stl_algobase.h ****   template<typename _FIte, typename _Tp>
 911:/Library/DaisyToolchain/0.1.3-ARM/arm/arm-none-eabi/include/c++/10.3.1/bits/stl_algobase.h ****     _GLIBCXX20_CONSTEXPR
 912:/Library/DaisyToolchain/0.1.3-ARM/arm/arm-none-eabi/include/c++/10.3.1/bits/stl_algobase.h ****     inline void
 913:/Library/DaisyToolchain/0.1.3-ARM/arm/arm-none-eabi/include/c++/10.3.1/bits/stl_algobase.h ****     __fill_a(_FIte __first, _FIte __last, const _Tp& __value)
 914:/Library/DaisyToolchain/0.1.3-ARM/arm/arm-none-eabi/include/c++/10.3.1/bits/stl_algobase.h ****     { std::__fill_a1(__first, __last, __value); }
 915:/Library/DaisyToolchain/0.1.3-ARM/arm/arm-none-eabi/include/c++/10.3.1/bits/stl_algobase.h **** 
 916:/Library/DaisyToolchain/0.1.3-ARM/arm/arm-none-eabi/include/c++/10.3.1/bits/stl_algobase.h ****   template<typename _Ite, typename _Seq, typename _Cat, typename _Tp>
 917:/Library/DaisyToolchain/0.1.3-ARM/arm/arm-none-eabi/include/c++/10.3.1/bits/stl_algobase.h ****     void
 918:/Library/DaisyToolchain/0.1.3-ARM/arm/arm-none-eabi/include/c++/10.3.1/bits/stl_algobase.h ****     __fill_a(const ::__gnu_debug::_Safe_iterator<_Ite, _Seq, _Cat>&,
 919:/Library/DaisyToolchain/0.1.3-ARM/arm/arm-none-eabi/include/c++/10.3.1/bits/stl_algobase.h **** 	     const ::__gnu_debug::_Safe_iterator<_Ite, _Seq, _Cat>&,
 920:/Library/DaisyToolchain/0.1.3-ARM/arm/arm-none-eabi/include/c++/10.3.1/bits/stl_algobase.h **** 	     const _Tp&);
 921:/Library/DaisyToolchain/0.1.3-ARM/arm/arm-none-eabi/include/c++/10.3.1/bits/stl_algobase.h **** 
 922:/Library/DaisyToolchain/0.1.3-ARM/arm/arm-none-eabi/include/c++/10.3.1/bits/stl_algobase.h ****   /**
 923:/Library/DaisyToolchain/0.1.3-ARM/arm/arm-none-eabi/include/c++/10.3.1/bits/stl_algobase.h ****    *  @brief Fills the range [first,last) with copies of value.
 924:/Library/DaisyToolchain/0.1.3-ARM/arm/arm-none-eabi/include/c++/10.3.1/bits/stl_algobase.h ****    *  @ingroup mutating_algorithms
 925:/Library/DaisyToolchain/0.1.3-ARM/arm/arm-none-eabi/include/c++/10.3.1/bits/stl_algobase.h ****    *  @param  __first  A forward iterator.
 926:/Library/DaisyToolchain/0.1.3-ARM/arm/arm-none-eabi/include/c++/10.3.1/bits/stl_algobase.h ****    *  @param  __last   A forward iterator.
 927:/Library/DaisyToolchain/0.1.3-ARM/arm/arm-none-eabi/include/c++/10.3.1/bits/stl_algobase.h ****    *  @param  __value  A reference-to-const of arbitrary type.
 928:/Library/DaisyToolchain/0.1.3-ARM/arm/arm-none-eabi/include/c++/10.3.1/bits/stl_algobase.h ****    *  @return   Nothing.
 929:/Library/DaisyToolchain/0.1.3-ARM/arm/arm-none-eabi/include/c++/10.3.1/bits/stl_algobase.h ****    *
 930:/Library/DaisyToolchain/0.1.3-ARM/arm/arm-none-eabi/include/c++/10.3.1/bits/stl_algobase.h ****    *  This function fills a range with copies of the same value.  For char
 931:/Library/DaisyToolchain/0.1.3-ARM/arm/arm-none-eabi/include/c++/10.3.1/bits/stl_algobase.h ****    *  types filling contiguous areas of memory, this becomes an inline call
 932:/Library/DaisyToolchain/0.1.3-ARM/arm/arm-none-eabi/include/c++/10.3.1/bits/stl_algobase.h ****    *  to @c memset or @c wmemset.
 933:/Library/DaisyToolchain/0.1.3-ARM/arm/arm-none-eabi/include/c++/10.3.1/bits/stl_algobase.h ****   */
 934:/Library/DaisyToolchain/0.1.3-ARM/arm/arm-none-eabi/include/c++/10.3.1/bits/stl_algobase.h ****   template<typename _ForwardIterator, typename _Tp>
 935:/Library/DaisyToolchain/0.1.3-ARM/arm/arm-none-eabi/include/c++/10.3.1/bits/stl_algobase.h ****     _GLIBCXX20_CONSTEXPR
 936:/Library/DaisyToolchain/0.1.3-ARM/arm/arm-none-eabi/include/c++/10.3.1/bits/stl_algobase.h ****     inline void
 937:/Library/DaisyToolchain/0.1.3-ARM/arm/arm-none-eabi/include/c++/10.3.1/bits/stl_algobase.h ****     fill(_ForwardIterator __first, _ForwardIterator __last, const _Tp& __value)
 938:/Library/DaisyToolchain/0.1.3-ARM/arm/arm-none-eabi/include/c++/10.3.1/bits/stl_algobase.h ****     {
 939:/Library/DaisyToolchain/0.1.3-ARM/arm/arm-none-eabi/include/c++/10.3.1/bits/stl_algobase.h ****       // concept requirements
 940:/Library/DaisyToolchain/0.1.3-ARM/arm/arm-none-eabi/include/c++/10.3.1/bits/stl_algobase.h ****       __glibcxx_function_requires(_Mutable_ForwardIteratorConcept<
 941:/Library/DaisyToolchain/0.1.3-ARM/arm/arm-none-eabi/include/c++/10.3.1/bits/stl_algobase.h **** 				  _ForwardIterator>)
 942:/Library/DaisyToolchain/0.1.3-ARM/arm/arm-none-eabi/include/c++/10.3.1/bits/stl_algobase.h ****       __glibcxx_requires_valid_range(__first, __last);
 943:/Library/DaisyToolchain/0.1.3-ARM/arm/arm-none-eabi/include/c++/10.3.1/bits/stl_algobase.h **** 
 944:/Library/DaisyToolchain/0.1.3-ARM/arm/arm-none-eabi/include/c++/10.3.1/bits/stl_algobase.h ****       std::__fill_a(__first, __last, __value);
 945:/Library/DaisyToolchain/0.1.3-ARM/arm/arm-none-eabi/include/c++/10.3.1/bits/stl_algobase.h ****     }
 946:/Library/DaisyToolchain/0.1.3-ARM/arm/arm-none-eabi/include/c++/10.3.1/bits/stl_algobase.h **** 
 947:/Library/DaisyToolchain/0.1.3-ARM/arm/arm-none-eabi/include/c++/10.3.1/bits/stl_algobase.h ****   // Used by fill_n, generate_n, etc. to convert _Size to an integral type:
 948:/Library/DaisyToolchain/0.1.3-ARM/arm/arm-none-eabi/include/c++/10.3.1/bits/stl_algobase.h ****   inline _GLIBCXX_CONSTEXPR int
 949:/Library/DaisyToolchain/0.1.3-ARM/arm/arm-none-eabi/include/c++/10.3.1/bits/stl_algobase.h ****   __size_to_integer(int __n) { return __n; }
 950:/Library/DaisyToolchain/0.1.3-ARM/arm/arm-none-eabi/include/c++/10.3.1/bits/stl_algobase.h ****   inline _GLIBCXX_CONSTEXPR unsigned
 951:/Library/DaisyToolchain/0.1.3-ARM/arm/arm-none-eabi/include/c++/10.3.1/bits/stl_algobase.h ****   __size_to_integer(unsigned __n) { return __n; }
 952:/Library/DaisyToolchain/0.1.3-ARM/arm/arm-none-eabi/include/c++/10.3.1/bits/stl_algobase.h ****   inline _GLIBCXX_CONSTEXPR long
 953:/Library/DaisyToolchain/0.1.3-ARM/arm/arm-none-eabi/include/c++/10.3.1/bits/stl_algobase.h ****   __size_to_integer(long __n) { return __n; }
 954:/Library/DaisyToolchain/0.1.3-ARM/arm/arm-none-eabi/include/c++/10.3.1/bits/stl_algobase.h ****   inline _GLIBCXX_CONSTEXPR unsigned long
 955:/Library/DaisyToolchain/0.1.3-ARM/arm/arm-none-eabi/include/c++/10.3.1/bits/stl_algobase.h ****   __size_to_integer(unsigned long __n) { return __n; }
ARM GAS  /var/folders/xd/16jvbr6j24q9nvtpm0qtw3240000gn/T//cch9jPA2.s 			page 161


 956:/Library/DaisyToolchain/0.1.3-ARM/arm/arm-none-eabi/include/c++/10.3.1/bits/stl_algobase.h ****   inline _GLIBCXX_CONSTEXPR long long
 957:/Library/DaisyToolchain/0.1.3-ARM/arm/arm-none-eabi/include/c++/10.3.1/bits/stl_algobase.h ****   __size_to_integer(long long __n) { return __n; }
 958:/Library/DaisyToolchain/0.1.3-ARM/arm/arm-none-eabi/include/c++/10.3.1/bits/stl_algobase.h ****   inline _GLIBCXX_CONSTEXPR unsigned long long
 959:/Library/DaisyToolchain/0.1.3-ARM/arm/arm-none-eabi/include/c++/10.3.1/bits/stl_algobase.h ****   __size_to_integer(unsigned long long __n) { return __n; }
 960:/Library/DaisyToolchain/0.1.3-ARM/arm/arm-none-eabi/include/c++/10.3.1/bits/stl_algobase.h **** 
 961:/Library/DaisyToolchain/0.1.3-ARM/arm/arm-none-eabi/include/c++/10.3.1/bits/stl_algobase.h **** #if defined(__GLIBCXX_TYPE_INT_N_0)
 962:/Library/DaisyToolchain/0.1.3-ARM/arm/arm-none-eabi/include/c++/10.3.1/bits/stl_algobase.h ****   inline _GLIBCXX_CONSTEXPR __GLIBCXX_TYPE_INT_N_0
 963:/Library/DaisyToolchain/0.1.3-ARM/arm/arm-none-eabi/include/c++/10.3.1/bits/stl_algobase.h ****   __size_to_integer(__GLIBCXX_TYPE_INT_N_0 __n) { return __n; }
 964:/Library/DaisyToolchain/0.1.3-ARM/arm/arm-none-eabi/include/c++/10.3.1/bits/stl_algobase.h ****   inline _GLIBCXX_CONSTEXPR unsigned __GLIBCXX_TYPE_INT_N_0
 965:/Library/DaisyToolchain/0.1.3-ARM/arm/arm-none-eabi/include/c++/10.3.1/bits/stl_algobase.h ****   __size_to_integer(unsigned __GLIBCXX_TYPE_INT_N_0 __n) { return __n; }
 966:/Library/DaisyToolchain/0.1.3-ARM/arm/arm-none-eabi/include/c++/10.3.1/bits/stl_algobase.h **** #endif
 967:/Library/DaisyToolchain/0.1.3-ARM/arm/arm-none-eabi/include/c++/10.3.1/bits/stl_algobase.h **** #if defined(__GLIBCXX_TYPE_INT_N_1)
 968:/Library/DaisyToolchain/0.1.3-ARM/arm/arm-none-eabi/include/c++/10.3.1/bits/stl_algobase.h ****   inline _GLIBCXX_CONSTEXPR __GLIBCXX_TYPE_INT_N_1
 969:/Library/DaisyToolchain/0.1.3-ARM/arm/arm-none-eabi/include/c++/10.3.1/bits/stl_algobase.h ****   __size_to_integer(__GLIBCXX_TYPE_INT_N_1 __n) { return __n; }
 970:/Library/DaisyToolchain/0.1.3-ARM/arm/arm-none-eabi/include/c++/10.3.1/bits/stl_algobase.h ****   inline _GLIBCXX_CONSTEXPR unsigned __GLIBCXX_TYPE_INT_N_1
 971:/Library/DaisyToolchain/0.1.3-ARM/arm/arm-none-eabi/include/c++/10.3.1/bits/stl_algobase.h ****   __size_to_integer(unsigned __GLIBCXX_TYPE_INT_N_1 __n) { return __n; }
 972:/Library/DaisyToolchain/0.1.3-ARM/arm/arm-none-eabi/include/c++/10.3.1/bits/stl_algobase.h **** #endif
 973:/Library/DaisyToolchain/0.1.3-ARM/arm/arm-none-eabi/include/c++/10.3.1/bits/stl_algobase.h **** #if defined(__GLIBCXX_TYPE_INT_N_2)
 974:/Library/DaisyToolchain/0.1.3-ARM/arm/arm-none-eabi/include/c++/10.3.1/bits/stl_algobase.h ****   inline _GLIBCXX_CONSTEXPR __GLIBCXX_TYPE_INT_N_2
 975:/Library/DaisyToolchain/0.1.3-ARM/arm/arm-none-eabi/include/c++/10.3.1/bits/stl_algobase.h ****   __size_to_integer(__GLIBCXX_TYPE_INT_N_2 __n) { return __n; }
 976:/Library/DaisyToolchain/0.1.3-ARM/arm/arm-none-eabi/include/c++/10.3.1/bits/stl_algobase.h ****   inline _GLIBCXX_CONSTEXPR unsigned __GLIBCXX_TYPE_INT_N_2
 977:/Library/DaisyToolchain/0.1.3-ARM/arm/arm-none-eabi/include/c++/10.3.1/bits/stl_algobase.h ****   __size_to_integer(unsigned __GLIBCXX_TYPE_INT_N_2 __n) { return __n; }
 978:/Library/DaisyToolchain/0.1.3-ARM/arm/arm-none-eabi/include/c++/10.3.1/bits/stl_algobase.h **** #endif
 979:/Library/DaisyToolchain/0.1.3-ARM/arm/arm-none-eabi/include/c++/10.3.1/bits/stl_algobase.h **** #if defined(__GLIBCXX_TYPE_INT_N_3)
 980:/Library/DaisyToolchain/0.1.3-ARM/arm/arm-none-eabi/include/c++/10.3.1/bits/stl_algobase.h ****   inline _GLIBCXX_CONSTEXPR unsigned __GLIBCXX_TYPE_INT_N_3
 981:/Library/DaisyToolchain/0.1.3-ARM/arm/arm-none-eabi/include/c++/10.3.1/bits/stl_algobase.h ****   __size_to_integer(__GLIBCXX_TYPE_INT_N_3 __n) { return __n; }
 982:/Library/DaisyToolchain/0.1.3-ARM/arm/arm-none-eabi/include/c++/10.3.1/bits/stl_algobase.h ****   inline _GLIBCXX_CONSTEXPR __GLIBCXX_TYPE_INT_N_3
 983:/Library/DaisyToolchain/0.1.3-ARM/arm/arm-none-eabi/include/c++/10.3.1/bits/stl_algobase.h ****   __size_to_integer(unsigned __GLIBCXX_TYPE_INT_N_3 __n) { return __n; }
 984:/Library/DaisyToolchain/0.1.3-ARM/arm/arm-none-eabi/include/c++/10.3.1/bits/stl_algobase.h **** #endif
 985:/Library/DaisyToolchain/0.1.3-ARM/arm/arm-none-eabi/include/c++/10.3.1/bits/stl_algobase.h **** 
 986:/Library/DaisyToolchain/0.1.3-ARM/arm/arm-none-eabi/include/c++/10.3.1/bits/stl_algobase.h ****   inline _GLIBCXX_CONSTEXPR long long
 987:/Library/DaisyToolchain/0.1.3-ARM/arm/arm-none-eabi/include/c++/10.3.1/bits/stl_algobase.h ****   __size_to_integer(float __n) { return (long long)__n; }
 988:/Library/DaisyToolchain/0.1.3-ARM/arm/arm-none-eabi/include/c++/10.3.1/bits/stl_algobase.h ****   inline _GLIBCXX_CONSTEXPR long long
 989:/Library/DaisyToolchain/0.1.3-ARM/arm/arm-none-eabi/include/c++/10.3.1/bits/stl_algobase.h ****   __size_to_integer(double __n) { return (long long)__n; }
 990:/Library/DaisyToolchain/0.1.3-ARM/arm/arm-none-eabi/include/c++/10.3.1/bits/stl_algobase.h ****   inline _GLIBCXX_CONSTEXPR long long
 991:/Library/DaisyToolchain/0.1.3-ARM/arm/arm-none-eabi/include/c++/10.3.1/bits/stl_algobase.h ****   __size_to_integer(long double __n) { return (long long)__n; }
 992:/Library/DaisyToolchain/0.1.3-ARM/arm/arm-none-eabi/include/c++/10.3.1/bits/stl_algobase.h **** #if !defined(__STRICT_ANSI__) && defined(_GLIBCXX_USE_FLOAT128)
 993:/Library/DaisyToolchain/0.1.3-ARM/arm/arm-none-eabi/include/c++/10.3.1/bits/stl_algobase.h ****   inline _GLIBCXX_CONSTEXPR long long
 994:/Library/DaisyToolchain/0.1.3-ARM/arm/arm-none-eabi/include/c++/10.3.1/bits/stl_algobase.h ****   __size_to_integer(__float128 __n) { return (long long)__n; }
 995:/Library/DaisyToolchain/0.1.3-ARM/arm/arm-none-eabi/include/c++/10.3.1/bits/stl_algobase.h **** #endif
 996:/Library/DaisyToolchain/0.1.3-ARM/arm/arm-none-eabi/include/c++/10.3.1/bits/stl_algobase.h **** 
 997:/Library/DaisyToolchain/0.1.3-ARM/arm/arm-none-eabi/include/c++/10.3.1/bits/stl_algobase.h ****   template<typename _OutputIterator, typename _Size, typename _Tp>
 998:/Library/DaisyToolchain/0.1.3-ARM/arm/arm-none-eabi/include/c++/10.3.1/bits/stl_algobase.h ****     _GLIBCXX20_CONSTEXPR
 999:/Library/DaisyToolchain/0.1.3-ARM/arm/arm-none-eabi/include/c++/10.3.1/bits/stl_algobase.h ****     inline typename
1000:/Library/DaisyToolchain/0.1.3-ARM/arm/arm-none-eabi/include/c++/10.3.1/bits/stl_algobase.h ****     __gnu_cxx::__enable_if<!__is_scalar<_Tp>::__value, _OutputIterator>::__type
1001:/Library/DaisyToolchain/0.1.3-ARM/arm/arm-none-eabi/include/c++/10.3.1/bits/stl_algobase.h ****     __fill_n_a1(_OutputIterator __first, _Size __n, const _Tp& __value)
1002:/Library/DaisyToolchain/0.1.3-ARM/arm/arm-none-eabi/include/c++/10.3.1/bits/stl_algobase.h ****     {
1003:/Library/DaisyToolchain/0.1.3-ARM/arm/arm-none-eabi/include/c++/10.3.1/bits/stl_algobase.h ****       for (; __n > 0; --__n, (void) ++__first)
1004:/Library/DaisyToolchain/0.1.3-ARM/arm/arm-none-eabi/include/c++/10.3.1/bits/stl_algobase.h **** 	*__first = __value;
1005:/Library/DaisyToolchain/0.1.3-ARM/arm/arm-none-eabi/include/c++/10.3.1/bits/stl_algobase.h ****       return __first;
1006:/Library/DaisyToolchain/0.1.3-ARM/arm/arm-none-eabi/include/c++/10.3.1/bits/stl_algobase.h ****     }
1007:/Library/DaisyToolchain/0.1.3-ARM/arm/arm-none-eabi/include/c++/10.3.1/bits/stl_algobase.h **** 
1008:/Library/DaisyToolchain/0.1.3-ARM/arm/arm-none-eabi/include/c++/10.3.1/bits/stl_algobase.h ****   template<typename _OutputIterator, typename _Size, typename _Tp>
1009:/Library/DaisyToolchain/0.1.3-ARM/arm/arm-none-eabi/include/c++/10.3.1/bits/stl_algobase.h ****     _GLIBCXX20_CONSTEXPR
1010:/Library/DaisyToolchain/0.1.3-ARM/arm/arm-none-eabi/include/c++/10.3.1/bits/stl_algobase.h ****     inline typename
1011:/Library/DaisyToolchain/0.1.3-ARM/arm/arm-none-eabi/include/c++/10.3.1/bits/stl_algobase.h ****     __gnu_cxx::__enable_if<__is_scalar<_Tp>::__value, _OutputIterator>::__type
1012:/Library/DaisyToolchain/0.1.3-ARM/arm/arm-none-eabi/include/c++/10.3.1/bits/stl_algobase.h ****     __fill_n_a1(_OutputIterator __first, _Size __n, const _Tp& __value)
ARM GAS  /var/folders/xd/16jvbr6j24q9nvtpm0qtw3240000gn/T//cch9jPA2.s 			page 162


1013:/Library/DaisyToolchain/0.1.3-ARM/arm/arm-none-eabi/include/c++/10.3.1/bits/stl_algobase.h ****     {
1014:/Library/DaisyToolchain/0.1.3-ARM/arm/arm-none-eabi/include/c++/10.3.1/bits/stl_algobase.h ****       const _Tp __tmp = __value;
1015:/Library/DaisyToolchain/0.1.3-ARM/arm/arm-none-eabi/include/c++/10.3.1/bits/stl_algobase.h ****       for (; __n > 0; --__n, (void) ++__first)
1016:/Library/DaisyToolchain/0.1.3-ARM/arm/arm-none-eabi/include/c++/10.3.1/bits/stl_algobase.h **** 	*__first = __tmp;
1017:/Library/DaisyToolchain/0.1.3-ARM/arm/arm-none-eabi/include/c++/10.3.1/bits/stl_algobase.h ****       return __first;
1018:/Library/DaisyToolchain/0.1.3-ARM/arm/arm-none-eabi/include/c++/10.3.1/bits/stl_algobase.h ****     }
1019:/Library/DaisyToolchain/0.1.3-ARM/arm/arm-none-eabi/include/c++/10.3.1/bits/stl_algobase.h **** 
1020:/Library/DaisyToolchain/0.1.3-ARM/arm/arm-none-eabi/include/c++/10.3.1/bits/stl_algobase.h ****   template<typename _Ite, typename _Seq, typename _Cat, typename _Size,
1021:/Library/DaisyToolchain/0.1.3-ARM/arm/arm-none-eabi/include/c++/10.3.1/bits/stl_algobase.h **** 	   typename _Tp>
1022:/Library/DaisyToolchain/0.1.3-ARM/arm/arm-none-eabi/include/c++/10.3.1/bits/stl_algobase.h ****     ::__gnu_debug::_Safe_iterator<_Ite, _Seq, _Cat>
1023:/Library/DaisyToolchain/0.1.3-ARM/arm/arm-none-eabi/include/c++/10.3.1/bits/stl_algobase.h ****     __fill_n_a(const ::__gnu_debug::_Safe_iterator<_Ite, _Seq, _Cat>& __first,
1024:/Library/DaisyToolchain/0.1.3-ARM/arm/arm-none-eabi/include/c++/10.3.1/bits/stl_algobase.h **** 	       _Size __n, const _Tp& __value,
1025:/Library/DaisyToolchain/0.1.3-ARM/arm/arm-none-eabi/include/c++/10.3.1/bits/stl_algobase.h **** 	       std::input_iterator_tag);
1026:/Library/DaisyToolchain/0.1.3-ARM/arm/arm-none-eabi/include/c++/10.3.1/bits/stl_algobase.h **** 
1027:/Library/DaisyToolchain/0.1.3-ARM/arm/arm-none-eabi/include/c++/10.3.1/bits/stl_algobase.h ****   template<typename _OutputIterator, typename _Size, typename _Tp>
1028:/Library/DaisyToolchain/0.1.3-ARM/arm/arm-none-eabi/include/c++/10.3.1/bits/stl_algobase.h ****     _GLIBCXX20_CONSTEXPR
1029:/Library/DaisyToolchain/0.1.3-ARM/arm/arm-none-eabi/include/c++/10.3.1/bits/stl_algobase.h ****     inline _OutputIterator
1030:/Library/DaisyToolchain/0.1.3-ARM/arm/arm-none-eabi/include/c++/10.3.1/bits/stl_algobase.h ****     __fill_n_a(_OutputIterator __first, _Size __n, const _Tp& __value,
1031:/Library/DaisyToolchain/0.1.3-ARM/arm/arm-none-eabi/include/c++/10.3.1/bits/stl_algobase.h **** 	       std::output_iterator_tag)
1032:/Library/DaisyToolchain/0.1.3-ARM/arm/arm-none-eabi/include/c++/10.3.1/bits/stl_algobase.h ****     {
1033:/Library/DaisyToolchain/0.1.3-ARM/arm/arm-none-eabi/include/c++/10.3.1/bits/stl_algobase.h **** #if __cplusplus >= 201103L
1034:/Library/DaisyToolchain/0.1.3-ARM/arm/arm-none-eabi/include/c++/10.3.1/bits/stl_algobase.h ****       static_assert(is_integral<_Size>{}, "fill_n must pass integral size");
1035:/Library/DaisyToolchain/0.1.3-ARM/arm/arm-none-eabi/include/c++/10.3.1/bits/stl_algobase.h **** #endif
1036:/Library/DaisyToolchain/0.1.3-ARM/arm/arm-none-eabi/include/c++/10.3.1/bits/stl_algobase.h ****       return __fill_n_a1(__first, __n, __value);
1037:/Library/DaisyToolchain/0.1.3-ARM/arm/arm-none-eabi/include/c++/10.3.1/bits/stl_algobase.h ****     }
1038:/Library/DaisyToolchain/0.1.3-ARM/arm/arm-none-eabi/include/c++/10.3.1/bits/stl_algobase.h **** 
1039:/Library/DaisyToolchain/0.1.3-ARM/arm/arm-none-eabi/include/c++/10.3.1/bits/stl_algobase.h ****   template<typename _OutputIterator, typename _Size, typename _Tp>
1040:/Library/DaisyToolchain/0.1.3-ARM/arm/arm-none-eabi/include/c++/10.3.1/bits/stl_algobase.h ****     _GLIBCXX20_CONSTEXPR
1041:/Library/DaisyToolchain/0.1.3-ARM/arm/arm-none-eabi/include/c++/10.3.1/bits/stl_algobase.h ****     inline _OutputIterator
1042:/Library/DaisyToolchain/0.1.3-ARM/arm/arm-none-eabi/include/c++/10.3.1/bits/stl_algobase.h ****     __fill_n_a(_OutputIterator __first, _Size __n, const _Tp& __value,
1043:/Library/DaisyToolchain/0.1.3-ARM/arm/arm-none-eabi/include/c++/10.3.1/bits/stl_algobase.h **** 	       std::input_iterator_tag)
1044:/Library/DaisyToolchain/0.1.3-ARM/arm/arm-none-eabi/include/c++/10.3.1/bits/stl_algobase.h ****     {
1045:/Library/DaisyToolchain/0.1.3-ARM/arm/arm-none-eabi/include/c++/10.3.1/bits/stl_algobase.h **** #if __cplusplus >= 201103L
1046:/Library/DaisyToolchain/0.1.3-ARM/arm/arm-none-eabi/include/c++/10.3.1/bits/stl_algobase.h ****       static_assert(is_integral<_Size>{}, "fill_n must pass integral size");
1047:/Library/DaisyToolchain/0.1.3-ARM/arm/arm-none-eabi/include/c++/10.3.1/bits/stl_algobase.h **** #endif
1048:/Library/DaisyToolchain/0.1.3-ARM/arm/arm-none-eabi/include/c++/10.3.1/bits/stl_algobase.h ****       return __fill_n_a1(__first, __n, __value);
1049:/Library/DaisyToolchain/0.1.3-ARM/arm/arm-none-eabi/include/c++/10.3.1/bits/stl_algobase.h ****     }
1050:/Library/DaisyToolchain/0.1.3-ARM/arm/arm-none-eabi/include/c++/10.3.1/bits/stl_algobase.h **** 
1051:/Library/DaisyToolchain/0.1.3-ARM/arm/arm-none-eabi/include/c++/10.3.1/bits/stl_algobase.h ****   template<typename _OutputIterator, typename _Size, typename _Tp>
1052:/Library/DaisyToolchain/0.1.3-ARM/arm/arm-none-eabi/include/c++/10.3.1/bits/stl_algobase.h ****     _GLIBCXX20_CONSTEXPR
1053:/Library/DaisyToolchain/0.1.3-ARM/arm/arm-none-eabi/include/c++/10.3.1/bits/stl_algobase.h ****     inline _OutputIterator
1054:/Library/DaisyToolchain/0.1.3-ARM/arm/arm-none-eabi/include/c++/10.3.1/bits/stl_algobase.h ****     __fill_n_a(_OutputIterator __first, _Size __n, const _Tp& __value,
1055:/Library/DaisyToolchain/0.1.3-ARM/arm/arm-none-eabi/include/c++/10.3.1/bits/stl_algobase.h **** 	       std::random_access_iterator_tag)
1056:/Library/DaisyToolchain/0.1.3-ARM/arm/arm-none-eabi/include/c++/10.3.1/bits/stl_algobase.h ****     {
1057:/Library/DaisyToolchain/0.1.3-ARM/arm/arm-none-eabi/include/c++/10.3.1/bits/stl_algobase.h **** #if __cplusplus >= 201103L
1058:/Library/DaisyToolchain/0.1.3-ARM/arm/arm-none-eabi/include/c++/10.3.1/bits/stl_algobase.h ****       static_assert(is_integral<_Size>{}, "fill_n must pass integral size");
1059:/Library/DaisyToolchain/0.1.3-ARM/arm/arm-none-eabi/include/c++/10.3.1/bits/stl_algobase.h **** #endif
1060:/Library/DaisyToolchain/0.1.3-ARM/arm/arm-none-eabi/include/c++/10.3.1/bits/stl_algobase.h ****       if (__n <= 0)
1061:/Library/DaisyToolchain/0.1.3-ARM/arm/arm-none-eabi/include/c++/10.3.1/bits/stl_algobase.h **** 	return __first;
1062:/Library/DaisyToolchain/0.1.3-ARM/arm/arm-none-eabi/include/c++/10.3.1/bits/stl_algobase.h **** 
1063:/Library/DaisyToolchain/0.1.3-ARM/arm/arm-none-eabi/include/c++/10.3.1/bits/stl_algobase.h ****       __glibcxx_requires_can_increment(__first, __n);
1064:/Library/DaisyToolchain/0.1.3-ARM/arm/arm-none-eabi/include/c++/10.3.1/bits/stl_algobase.h **** 
1065:/Library/DaisyToolchain/0.1.3-ARM/arm/arm-none-eabi/include/c++/10.3.1/bits/stl_algobase.h ****       std::__fill_a(__first, __first + __n, __value);
1066:/Library/DaisyToolchain/0.1.3-ARM/arm/arm-none-eabi/include/c++/10.3.1/bits/stl_algobase.h ****       return __first + __n;
1067:/Library/DaisyToolchain/0.1.3-ARM/arm/arm-none-eabi/include/c++/10.3.1/bits/stl_algobase.h ****     }
1068:/Library/DaisyToolchain/0.1.3-ARM/arm/arm-none-eabi/include/c++/10.3.1/bits/stl_algobase.h **** 
1069:/Library/DaisyToolchain/0.1.3-ARM/arm/arm-none-eabi/include/c++/10.3.1/bits/stl_algobase.h ****   /**
ARM GAS  /var/folders/xd/16jvbr6j24q9nvtpm0qtw3240000gn/T//cch9jPA2.s 			page 163


1070:/Library/DaisyToolchain/0.1.3-ARM/arm/arm-none-eabi/include/c++/10.3.1/bits/stl_algobase.h ****    *  @brief Fills the range [first,first+n) with copies of value.
1071:/Library/DaisyToolchain/0.1.3-ARM/arm/arm-none-eabi/include/c++/10.3.1/bits/stl_algobase.h ****    *  @ingroup mutating_algorithms
1072:/Library/DaisyToolchain/0.1.3-ARM/arm/arm-none-eabi/include/c++/10.3.1/bits/stl_algobase.h ****    *  @param  __first  An output iterator.
1073:/Library/DaisyToolchain/0.1.3-ARM/arm/arm-none-eabi/include/c++/10.3.1/bits/stl_algobase.h ****    *  @param  __n      The count of copies to perform.
1074:/Library/DaisyToolchain/0.1.3-ARM/arm/arm-none-eabi/include/c++/10.3.1/bits/stl_algobase.h ****    *  @param  __value  A reference-to-const of arbitrary type.
1075:/Library/DaisyToolchain/0.1.3-ARM/arm/arm-none-eabi/include/c++/10.3.1/bits/stl_algobase.h ****    *  @return   The iterator at first+n.
1076:/Library/DaisyToolchain/0.1.3-ARM/arm/arm-none-eabi/include/c++/10.3.1/bits/stl_algobase.h ****    *
1077:/Library/DaisyToolchain/0.1.3-ARM/arm/arm-none-eabi/include/c++/10.3.1/bits/stl_algobase.h ****    *  This function fills a range with copies of the same value.  For char
1078:/Library/DaisyToolchain/0.1.3-ARM/arm/arm-none-eabi/include/c++/10.3.1/bits/stl_algobase.h ****    *  types filling contiguous areas of memory, this becomes an inline call
1079:/Library/DaisyToolchain/0.1.3-ARM/arm/arm-none-eabi/include/c++/10.3.1/bits/stl_algobase.h ****    *  to @c memset or @c wmemset.
1080:/Library/DaisyToolchain/0.1.3-ARM/arm/arm-none-eabi/include/c++/10.3.1/bits/stl_algobase.h ****    *
1081:/Library/DaisyToolchain/0.1.3-ARM/arm/arm-none-eabi/include/c++/10.3.1/bits/stl_algobase.h ****    *  If @p __n is negative, the function does nothing.
1082:/Library/DaisyToolchain/0.1.3-ARM/arm/arm-none-eabi/include/c++/10.3.1/bits/stl_algobase.h ****   */
1083:/Library/DaisyToolchain/0.1.3-ARM/arm/arm-none-eabi/include/c++/10.3.1/bits/stl_algobase.h ****   // _GLIBCXX_RESOLVE_LIB_DEFECTS
1084:/Library/DaisyToolchain/0.1.3-ARM/arm/arm-none-eabi/include/c++/10.3.1/bits/stl_algobase.h ****   // DR 865. More algorithms that throw away information
1085:/Library/DaisyToolchain/0.1.3-ARM/arm/arm-none-eabi/include/c++/10.3.1/bits/stl_algobase.h ****   // DR 426. search_n(), fill_n(), and generate_n() with negative n
1086:/Library/DaisyToolchain/0.1.3-ARM/arm/arm-none-eabi/include/c++/10.3.1/bits/stl_algobase.h ****   template<typename _OI, typename _Size, typename _Tp>
1087:/Library/DaisyToolchain/0.1.3-ARM/arm/arm-none-eabi/include/c++/10.3.1/bits/stl_algobase.h ****     _GLIBCXX20_CONSTEXPR
1088:/Library/DaisyToolchain/0.1.3-ARM/arm/arm-none-eabi/include/c++/10.3.1/bits/stl_algobase.h ****     inline _OI
1089:/Library/DaisyToolchain/0.1.3-ARM/arm/arm-none-eabi/include/c++/10.3.1/bits/stl_algobase.h ****     fill_n(_OI __first, _Size __n, const _Tp& __value)
 3277              		.loc 16 1089 5 view .LVU872
 3278              		.loc 16 1089 5 is_stmt 0 view .LVU873
 3279              	.LBE915:
 3280              	.LBE914:
 3281              	.LBE913:
 3282              	.LBE912:
 3283              	.LBE911:
 3284              	.LBE910:
 3285              	.LBE904:
 3286              	.LBE903:
 3287              	.LBE902:
 3288              	.LBE901:
 951:/Library/DaisyToolchain/0.1.3-ARM/arm/arm-none-eabi/include/c++/10.3.1/bits/stl_algobase.h ****   inline _GLIBCXX_CONSTEXPR long
 3289              		.loc 16 951 37 is_stmt 1 view .LVU874
 3290              	.LBB944:
 3291              	.LBB942:
 3292              	.LBB940:
 3293              	.LBB938:
 3294              	.LBB936:
 3295              	.LBB934:
 3296              	.LBB932:
 3297              	.LBB930:
 3298              	.LBB928:
 3299              	.LBB926:
 3300              	.LBB916:
 3301              	.LBI916:
1054:/Library/DaisyToolchain/0.1.3-ARM/arm/arm-none-eabi/include/c++/10.3.1/bits/stl_algobase.h **** 	       std::random_access_iterator_tag)
 3302              		.loc 16 1054 5 view .LVU875
 3303              	.LBB917:
 3304              	.LBI917:
 913:/Library/DaisyToolchain/0.1.3-ARM/arm/arm-none-eabi/include/c++/10.3.1/bits/stl_algobase.h ****     { std::__fill_a1(__first, __last, __value); }
 3305              		.loc 16 913 5 view .LVU876
 3306              	.LBB918:
 3307              	.LBI918:
 881:/Library/DaisyToolchain/0.1.3-ARM/arm/arm-none-eabi/include/c++/10.3.1/bits/stl_algobase.h ****     {
 3308              		.loc 16 881 5 view .LVU877
 3309              	.LBB919:
ARM GAS  /var/folders/xd/16jvbr6j24q9nvtpm0qtw3240000gn/T//cch9jPA2.s 			page 164


 3310              	.LBB920:
 893:/Library/DaisyToolchain/0.1.3-ARM/arm/arm-none-eabi/include/c++/10.3.1/bits/stl_algobase.h ****     }
 3311              		.loc 16 893 18 is_stmt 0 view .LVU878
 3312 0022 2246     		mov	r2, r4
 3313 0024 0021     		movs	r1, #0
 3314 0026 751E     		subs	r5, r6, #1
 3315 0028 FFF7FEFF 		bl	memset
 3316              	.LVL252:
 893:/Library/DaisyToolchain/0.1.3-ARM/arm/arm-none-eabi/include/c++/10.3.1/bits/stl_algobase.h ****     }
 3317              		.loc 16 893 18 view .LVU879
 3318              	.LBE920:
 3319              	.LBE919:
 3320              	.LBE918:
 3321              	.LBE917:
 3322              	.LBE916:
 3323              	.LBE926:
 3324              	.LBE928:
 3325              	.LBE930:
 3326              	.LBE932:
 3327              	.LBE934:
 3328              	.LBE936:
 3329              	.LBE938:
 3330              	.LBE940:
 3331              	.LBE942:
 3332              	.LBE944:
 634:time_machine_hardware.cpp ****         uint8_t *testmem = test.data();
 3333              		.loc 1 634 9 is_stmt 1 view .LVU880
 635:time_machine_hardware.cpp **** 
 636:time_machine_hardware.cpp ****         for (size_t i = 0; i < size; i++) {
 3334              		.loc 1 636 9 view .LVU881
 3335              	.LBB945:
 3336              		.loc 1 636 30 view .LVU882
 3337              		.loc 1 636 21 is_stmt 0 view .LVU883
 3338 002c 0022     		movs	r2, #0
 3339              	.LBE945:
 3340              	.LBB946:
 3341              	.LBB943:
 3342              	.LBB941:
 3343              	.LBB939:
 3344              	.LBB937:
 3345              	.LBB935:
 3346              	.LBB933:
 3347              	.LBB931:
 3348              	.LBB929:
 3349              	.LBB927:
 3350              	.LBB925:
 3351              	.LBB924:
 3352              	.LBB923:
 3353              	.LBB922:
 3354              	.LBB921:
 893:/Library/DaisyToolchain/0.1.3-ARM/arm/arm-none-eabi/include/c++/10.3.1/bits/stl_algobase.h ****     }
 3355              		.loc 16 893 18 view .LVU884
 3356 002e 2946     		mov	r1, r5
 3357              	.LVL253:
 3358              	.L176:
 893:/Library/DaisyToolchain/0.1.3-ARM/arm/arm-none-eabi/include/c++/10.3.1/bits/stl_algobase.h ****     }
 3359              		.loc 16 893 18 view .LVU885
ARM GAS  /var/folders/xd/16jvbr6j24q9nvtpm0qtw3240000gn/T//cch9jPA2.s 			page 165


 3360              	.LBE921:
 3361              	.LBE922:
 3362              	.LBE923:
 3363              	.LBE924:
 3364              	.LBE925:
 3365              	.LBE927:
 3366              	.LBE929:
 3367              	.LBE931:
 3368              	.LBE933:
 3369              	.LBE935:
 3370              	.LBE937:
 3371              	.LBE939:
 3372              	.LBE941:
 3373              	.LBE943:
 3374              	.LBE946:
 3375              	.LBB947:
 637:time_machine_hardware.cpp ****             testmem[i] = (uint8_t) (i & 0xff);
 3376              		.loc 1 637 13 is_stmt 1 discriminator 2 view .LVU886
 3377              		.loc 1 637 24 is_stmt 0 discriminator 2 view .LVU887
 3378 0030 01F8012F 		strb	r2, [r1, #1]!
 636:time_machine_hardware.cpp ****             testmem[i] = (uint8_t) (i & 0xff);
 3379              		.loc 1 636 9 is_stmt 1 discriminator 2 view .LVU888
 3380 0034 0132     		adds	r2, r2, #1
 3381              	.LVL254:
 636:time_machine_hardware.cpp ****             testmem[i] = (uint8_t) (i & 0xff);
 3382              		.loc 1 636 30 discriminator 2 view .LVU889
 3383 0036 A242     		cmp	r2, r4
 3384 0038 FAD1     		bne	.L176
 3385              	.LBE947:
 638:time_machine_hardware.cpp ****         }
 639:time_machine_hardware.cpp **** 
 640:time_machine_hardware.cpp ****         // Write the test data to the device
 641:time_machine_hardware.cpp ****         qspi.Write(start, size, testmem);
 3386              		.loc 1 641 9 view .LVU890
 3387              		.loc 1 641 19 is_stmt 0 view .LVU891
 3388 003a 3946     		mov	r1, r7
 3389 003c 4046     		mov	r0, r8
 3390 003e 3346     		mov	r3, r6
 3391 0040 2246     		mov	r2, r4
 3392              	.LVL255:
 3393              		.loc 1 641 19 view .LVU892
 3394 0042 FFF7FEFF 		bl	_ZN5daisy10QSPIHandle5WriteEmmPh
 3395              	.LVL256:
 642:time_machine_hardware.cpp **** 
 643:time_machine_hardware.cpp ****         // Read it all back and count any/all errors
 644:time_machine_hardware.cpp ****         // I supppose any byte where ((data & 0xff) == data)
 645:time_machine_hardware.cpp ****         // would be able to false-pass..
 646:time_machine_hardware.cpp **** 
 647:time_machine_hardware.cpp ****         size_t fail_cnt = 0;
 3396              		.loc 1 647 9 is_stmt 1 view .LVU893
 648:time_machine_hardware.cpp **** 
 649:time_machine_hardware.cpp ****         for (size_t i = 0; i < size; i++)
 3397              		.loc 1 649 9 view .LVU894
 3398              	.LBB948:
 3399              		.loc 1 649 30 view .LVU895
 3400 0046 601E     		subs	r0, r4, #1
 3401              	.LBE948:
ARM GAS  /var/folders/xd/16jvbr6j24q9nvtpm0qtw3240000gn/T//cch9jPA2.s 			page 166


 641:time_machine_hardware.cpp **** 
 3402              		.loc 1 641 19 is_stmt 0 view .LVU896
 3403 0048 2946     		mov	r1, r5
 647:time_machine_hardware.cpp **** 
 3404              		.loc 1 647 16 view .LVU897
 3405 004a 0027     		movs	r7, #0
 3406              	.LVL257:
 647:time_machine_hardware.cpp **** 
 3407              		.loc 1 647 16 view .LVU898
 3408 004c 3044     		add	r0, r0, r6
 3409              	.LVL258:
 3410              	.L178:
 3411              	.LBB949:
 650:time_machine_hardware.cpp ****         {
 651:time_machine_hardware.cpp ****             if (testmem[i] != (uint8_t) (i & 0xff)) {
 3412              		.loc 1 651 13 is_stmt 1 view .LVU899
 652:time_machine_hardware.cpp ****                 fail_cnt++;
 3413              		.loc 1 652 17 view .LVU900
 651:time_machine_hardware.cpp ****                 fail_cnt++;
 3414              		.loc 1 651 26 is_stmt 0 view .LVU901
 3415 004e 0131     		adds	r1, r1, #1
 651:time_machine_hardware.cpp ****                 fail_cnt++;
 3416              		.loc 1 651 13 view .LVU902
 3417 0050 0B78     		ldrb	r3, [r1]	@ zero_extendqisi2
 3418 0052 4A1E     		subs	r2, r1, #1
 3419 0054 521B     		subs	r2, r2, r5
 3420 0056 D2B2     		uxtb	r2, r2
 3421 0058 9342     		cmp	r3, r2
 3422              		.loc 1 652 25 view .LVU903
 3423 005a 18BF     		it	ne
 3424 005c 0137     		addne	r7, r7, #1
 3425              	.LVL259:
 649:time_machine_hardware.cpp ****         {
 3426              		.loc 1 649 9 is_stmt 1 view .LVU904
 649:time_machine_hardware.cpp ****         {
 3427              		.loc 1 649 30 view .LVU905
 3428 005e 8842     		cmp	r0, r1
 3429 0060 F5D1     		bne	.L178
 3430              	.LBE949:
 653:time_machine_hardware.cpp ****             }
 654:time_machine_hardware.cpp ****         }
 655:time_machine_hardware.cpp **** 
 656:time_machine_hardware.cpp ****         return fail_cnt == 0;
 3431              		.loc 1 656 9 view .LVU906
 3432              	.LVL260:
 3433              	.LBB950:
 3434              	.LBI950:
 678:/Library/DaisyToolchain/0.1.3-ARM/arm/arm-none-eabi/include/c++/10.3.1/bits/stl_vector.h ****       {
 3435              		.loc 10 678 7 view .LVU907
 3436              	.LBB951:
 3437              	.LBI951:
 276:/Library/DaisyToolchain/0.1.3-ARM/arm/arm-none-eabi/include/c++/10.3.1/bits/stl_vector.h ****       { return this->_M_impl; }
 3438              		.loc 10 276 7 view .LVU908
 276:/Library/DaisyToolchain/0.1.3-ARM/arm/arm-none-eabi/include/c++/10.3.1/bits/stl_vector.h ****       { return this->_M_impl; }
 3439              		.loc 10 276 7 is_stmt 0 view .LVU909
 3440              	.LBE951:
 3441              	.LBB952:
ARM GAS  /var/folders/xd/16jvbr6j24q9nvtpm0qtw3240000gn/T//cch9jPA2.s 			page 167


 3442              	.LBI952:
 460:/Library/DaisyToolchain/0.1.3-ARM/arm/arm-none-eabi/include/c++/10.3.1/bits/alloc_traits.h ****       { return __a.allocate(__n); }
 461:/Library/DaisyToolchain/0.1.3-ARM/arm/arm-none-eabi/include/c++/10.3.1/bits/alloc_traits.h **** 
 462:/Library/DaisyToolchain/0.1.3-ARM/arm/arm-none-eabi/include/c++/10.3.1/bits/alloc_traits.h ****       /**
 463:/Library/DaisyToolchain/0.1.3-ARM/arm/arm-none-eabi/include/c++/10.3.1/bits/alloc_traits.h ****        *  @brief  Allocate memory.
 464:/Library/DaisyToolchain/0.1.3-ARM/arm/arm-none-eabi/include/c++/10.3.1/bits/alloc_traits.h ****        *  @param  __a  An allocator.
 465:/Library/DaisyToolchain/0.1.3-ARM/arm/arm-none-eabi/include/c++/10.3.1/bits/alloc_traits.h ****        *  @param  __n  The number of objects to allocate space for.
 466:/Library/DaisyToolchain/0.1.3-ARM/arm/arm-none-eabi/include/c++/10.3.1/bits/alloc_traits.h ****        *  @param  __hint Aid to locality.
 467:/Library/DaisyToolchain/0.1.3-ARM/arm/arm-none-eabi/include/c++/10.3.1/bits/alloc_traits.h ****        *  @return Memory of suitable size and alignment for @a n objects
 468:/Library/DaisyToolchain/0.1.3-ARM/arm/arm-none-eabi/include/c++/10.3.1/bits/alloc_traits.h ****        *          of type @c value_type
 469:/Library/DaisyToolchain/0.1.3-ARM/arm/arm-none-eabi/include/c++/10.3.1/bits/alloc_traits.h ****        *
 470:/Library/DaisyToolchain/0.1.3-ARM/arm/arm-none-eabi/include/c++/10.3.1/bits/alloc_traits.h ****        *  Returns <tt> a.allocate(n, hint) </tt>
 471:/Library/DaisyToolchain/0.1.3-ARM/arm/arm-none-eabi/include/c++/10.3.1/bits/alloc_traits.h ****       */
 472:/Library/DaisyToolchain/0.1.3-ARM/arm/arm-none-eabi/include/c++/10.3.1/bits/alloc_traits.h ****       _GLIBCXX_NODISCARD static _GLIBCXX20_CONSTEXPR pointer
 473:/Library/DaisyToolchain/0.1.3-ARM/arm/arm-none-eabi/include/c++/10.3.1/bits/alloc_traits.h ****       allocate(allocator_type& __a, size_type __n, const_void_pointer __hint)
 474:/Library/DaisyToolchain/0.1.3-ARM/arm/arm-none-eabi/include/c++/10.3.1/bits/alloc_traits.h ****       {
 475:/Library/DaisyToolchain/0.1.3-ARM/arm/arm-none-eabi/include/c++/10.3.1/bits/alloc_traits.h **** #if __cplusplus <= 201703L
 476:/Library/DaisyToolchain/0.1.3-ARM/arm/arm-none-eabi/include/c++/10.3.1/bits/alloc_traits.h **** 	return __a.allocate(__n, __hint);
 477:/Library/DaisyToolchain/0.1.3-ARM/arm/arm-none-eabi/include/c++/10.3.1/bits/alloc_traits.h **** #else
 478:/Library/DaisyToolchain/0.1.3-ARM/arm/arm-none-eabi/include/c++/10.3.1/bits/alloc_traits.h **** 	return __a.allocate(__n);
 479:/Library/DaisyToolchain/0.1.3-ARM/arm/arm-none-eabi/include/c++/10.3.1/bits/alloc_traits.h **** #endif
 480:/Library/DaisyToolchain/0.1.3-ARM/arm/arm-none-eabi/include/c++/10.3.1/bits/alloc_traits.h ****       }
 481:/Library/DaisyToolchain/0.1.3-ARM/arm/arm-none-eabi/include/c++/10.3.1/bits/alloc_traits.h **** 
 482:/Library/DaisyToolchain/0.1.3-ARM/arm/arm-none-eabi/include/c++/10.3.1/bits/alloc_traits.h ****       /**
 483:/Library/DaisyToolchain/0.1.3-ARM/arm/arm-none-eabi/include/c++/10.3.1/bits/alloc_traits.h ****        *  @brief  Deallocate memory.
 484:/Library/DaisyToolchain/0.1.3-ARM/arm/arm-none-eabi/include/c++/10.3.1/bits/alloc_traits.h ****        *  @param  __a  An allocator.
 485:/Library/DaisyToolchain/0.1.3-ARM/arm/arm-none-eabi/include/c++/10.3.1/bits/alloc_traits.h ****        *  @param  __p  Pointer to the memory to deallocate.
 486:/Library/DaisyToolchain/0.1.3-ARM/arm/arm-none-eabi/include/c++/10.3.1/bits/alloc_traits.h ****        *  @param  __n  The number of objects space was allocated for.
 487:/Library/DaisyToolchain/0.1.3-ARM/arm/arm-none-eabi/include/c++/10.3.1/bits/alloc_traits.h ****        *
 488:/Library/DaisyToolchain/0.1.3-ARM/arm/arm-none-eabi/include/c++/10.3.1/bits/alloc_traits.h ****        *  Calls <tt> a.deallocate(p, n) </tt>
 489:/Library/DaisyToolchain/0.1.3-ARM/arm/arm-none-eabi/include/c++/10.3.1/bits/alloc_traits.h ****       */
 490:/Library/DaisyToolchain/0.1.3-ARM/arm/arm-none-eabi/include/c++/10.3.1/bits/alloc_traits.h ****       static _GLIBCXX20_CONSTEXPR void
 491:/Library/DaisyToolchain/0.1.3-ARM/arm/arm-none-eabi/include/c++/10.3.1/bits/alloc_traits.h ****       deallocate(allocator_type& __a, pointer __p, size_type __n)
 492:/Library/DaisyToolchain/0.1.3-ARM/arm/arm-none-eabi/include/c++/10.3.1/bits/alloc_traits.h ****       { __a.deallocate(__p, __n); }
 493:/Library/DaisyToolchain/0.1.3-ARM/arm/arm-none-eabi/include/c++/10.3.1/bits/alloc_traits.h **** 
 494:/Library/DaisyToolchain/0.1.3-ARM/arm/arm-none-eabi/include/c++/10.3.1/bits/alloc_traits.h ****       /**
 495:/Library/DaisyToolchain/0.1.3-ARM/arm/arm-none-eabi/include/c++/10.3.1/bits/alloc_traits.h ****        *  @brief  Construct an object of type `_Up`
 496:/Library/DaisyToolchain/0.1.3-ARM/arm/arm-none-eabi/include/c++/10.3.1/bits/alloc_traits.h ****        *  @param  __a  An allocator.
 497:/Library/DaisyToolchain/0.1.3-ARM/arm/arm-none-eabi/include/c++/10.3.1/bits/alloc_traits.h ****        *  @param  __p  Pointer to memory of suitable size and alignment for
 498:/Library/DaisyToolchain/0.1.3-ARM/arm/arm-none-eabi/include/c++/10.3.1/bits/alloc_traits.h ****        *	       an object of type `_Up`.
 499:/Library/DaisyToolchain/0.1.3-ARM/arm/arm-none-eabi/include/c++/10.3.1/bits/alloc_traits.h ****        *  @param  __args Constructor arguments.
 500:/Library/DaisyToolchain/0.1.3-ARM/arm/arm-none-eabi/include/c++/10.3.1/bits/alloc_traits.h ****        *
 501:/Library/DaisyToolchain/0.1.3-ARM/arm/arm-none-eabi/include/c++/10.3.1/bits/alloc_traits.h ****        *  Calls `__a.construct(__p, std::forward<_Args>(__args)...)`
 502:/Library/DaisyToolchain/0.1.3-ARM/arm/arm-none-eabi/include/c++/10.3.1/bits/alloc_traits.h ****        *  in C++11, C++14 and C++17. Changed in C++20 to call
 503:/Library/DaisyToolchain/0.1.3-ARM/arm/arm-none-eabi/include/c++/10.3.1/bits/alloc_traits.h ****        *  `std::construct_at(__p, std::forward<_Args>(__args)...)` instead.
 504:/Library/DaisyToolchain/0.1.3-ARM/arm/arm-none-eabi/include/c++/10.3.1/bits/alloc_traits.h ****       */
 505:/Library/DaisyToolchain/0.1.3-ARM/arm/arm-none-eabi/include/c++/10.3.1/bits/alloc_traits.h ****       template<typename _Up, typename... _Args>
 506:/Library/DaisyToolchain/0.1.3-ARM/arm/arm-none-eabi/include/c++/10.3.1/bits/alloc_traits.h **** 	static _GLIBCXX20_CONSTEXPR void
 507:/Library/DaisyToolchain/0.1.3-ARM/arm/arm-none-eabi/include/c++/10.3.1/bits/alloc_traits.h **** 	construct(allocator_type& __a __attribute__((__unused__)), _Up* __p,
 508:/Library/DaisyToolchain/0.1.3-ARM/arm/arm-none-eabi/include/c++/10.3.1/bits/alloc_traits.h **** 		  _Args&&... __args)
 509:/Library/DaisyToolchain/0.1.3-ARM/arm/arm-none-eabi/include/c++/10.3.1/bits/alloc_traits.h **** 	noexcept(std::is_nothrow_constructible<_Up, _Args...>::value)
 510:/Library/DaisyToolchain/0.1.3-ARM/arm/arm-none-eabi/include/c++/10.3.1/bits/alloc_traits.h **** 	{
 511:/Library/DaisyToolchain/0.1.3-ARM/arm/arm-none-eabi/include/c++/10.3.1/bits/alloc_traits.h **** #if __cplusplus <= 201703L
 512:/Library/DaisyToolchain/0.1.3-ARM/arm/arm-none-eabi/include/c++/10.3.1/bits/alloc_traits.h **** 	  __a.construct(__p, std::forward<_Args>(__args)...);
 513:/Library/DaisyToolchain/0.1.3-ARM/arm/arm-none-eabi/include/c++/10.3.1/bits/alloc_traits.h **** #else
 514:/Library/DaisyToolchain/0.1.3-ARM/arm/arm-none-eabi/include/c++/10.3.1/bits/alloc_traits.h **** 	  std::construct_at(__p, std::forward<_Args>(__args)...);
 515:/Library/DaisyToolchain/0.1.3-ARM/arm/arm-none-eabi/include/c++/10.3.1/bits/alloc_traits.h **** #endif
ARM GAS  /var/folders/xd/16jvbr6j24q9nvtpm0qtw3240000gn/T//cch9jPA2.s 			page 168


 516:/Library/DaisyToolchain/0.1.3-ARM/arm/arm-none-eabi/include/c++/10.3.1/bits/alloc_traits.h **** 	}
 517:/Library/DaisyToolchain/0.1.3-ARM/arm/arm-none-eabi/include/c++/10.3.1/bits/alloc_traits.h **** 
 518:/Library/DaisyToolchain/0.1.3-ARM/arm/arm-none-eabi/include/c++/10.3.1/bits/alloc_traits.h ****       /**
 519:/Library/DaisyToolchain/0.1.3-ARM/arm/arm-none-eabi/include/c++/10.3.1/bits/alloc_traits.h ****        *  @brief  Destroy an object of type @a _Up
 520:/Library/DaisyToolchain/0.1.3-ARM/arm/arm-none-eabi/include/c++/10.3.1/bits/alloc_traits.h ****        *  @param  __a  An allocator.
 521:/Library/DaisyToolchain/0.1.3-ARM/arm/arm-none-eabi/include/c++/10.3.1/bits/alloc_traits.h ****        *  @param  __p  Pointer to the object to destroy
 522:/Library/DaisyToolchain/0.1.3-ARM/arm/arm-none-eabi/include/c++/10.3.1/bits/alloc_traits.h ****        *
 523:/Library/DaisyToolchain/0.1.3-ARM/arm/arm-none-eabi/include/c++/10.3.1/bits/alloc_traits.h ****        *  Calls @c __a.destroy(__p).
 524:/Library/DaisyToolchain/0.1.3-ARM/arm/arm-none-eabi/include/c++/10.3.1/bits/alloc_traits.h ****       */
 525:/Library/DaisyToolchain/0.1.3-ARM/arm/arm-none-eabi/include/c++/10.3.1/bits/alloc_traits.h ****       template<typename _Up>
 526:/Library/DaisyToolchain/0.1.3-ARM/arm/arm-none-eabi/include/c++/10.3.1/bits/alloc_traits.h **** 	static _GLIBCXX20_CONSTEXPR void
 527:/Library/DaisyToolchain/0.1.3-ARM/arm/arm-none-eabi/include/c++/10.3.1/bits/alloc_traits.h **** 	destroy(allocator_type& __a __attribute__((__unused__)), _Up* __p)
 528:/Library/DaisyToolchain/0.1.3-ARM/arm/arm-none-eabi/include/c++/10.3.1/bits/alloc_traits.h **** 	noexcept(is_nothrow_destructible<_Up>::value)
 529:/Library/DaisyToolchain/0.1.3-ARM/arm/arm-none-eabi/include/c++/10.3.1/bits/alloc_traits.h **** 	{
 530:/Library/DaisyToolchain/0.1.3-ARM/arm/arm-none-eabi/include/c++/10.3.1/bits/alloc_traits.h **** #if __cplusplus <= 201703L
 531:/Library/DaisyToolchain/0.1.3-ARM/arm/arm-none-eabi/include/c++/10.3.1/bits/alloc_traits.h **** 	  __a.destroy(__p);
 532:/Library/DaisyToolchain/0.1.3-ARM/arm/arm-none-eabi/include/c++/10.3.1/bits/alloc_traits.h **** #else
 533:/Library/DaisyToolchain/0.1.3-ARM/arm/arm-none-eabi/include/c++/10.3.1/bits/alloc_traits.h **** 	  std::destroy_at(__p);
 534:/Library/DaisyToolchain/0.1.3-ARM/arm/arm-none-eabi/include/c++/10.3.1/bits/alloc_traits.h **** #endif
 535:/Library/DaisyToolchain/0.1.3-ARM/arm/arm-none-eabi/include/c++/10.3.1/bits/alloc_traits.h **** 	}
 536:/Library/DaisyToolchain/0.1.3-ARM/arm/arm-none-eabi/include/c++/10.3.1/bits/alloc_traits.h **** 
 537:/Library/DaisyToolchain/0.1.3-ARM/arm/arm-none-eabi/include/c++/10.3.1/bits/alloc_traits.h ****       /**
 538:/Library/DaisyToolchain/0.1.3-ARM/arm/arm-none-eabi/include/c++/10.3.1/bits/alloc_traits.h ****        *  @brief  The maximum supported allocation size
 539:/Library/DaisyToolchain/0.1.3-ARM/arm/arm-none-eabi/include/c++/10.3.1/bits/alloc_traits.h ****        *  @param  __a  An allocator.
 540:/Library/DaisyToolchain/0.1.3-ARM/arm/arm-none-eabi/include/c++/10.3.1/bits/alloc_traits.h ****        *  @return @c __a.max_size()
 541:/Library/DaisyToolchain/0.1.3-ARM/arm/arm-none-eabi/include/c++/10.3.1/bits/alloc_traits.h ****       */
 542:/Library/DaisyToolchain/0.1.3-ARM/arm/arm-none-eabi/include/c++/10.3.1/bits/alloc_traits.h ****       static _GLIBCXX20_CONSTEXPR size_type
 543:/Library/DaisyToolchain/0.1.3-ARM/arm/arm-none-eabi/include/c++/10.3.1/bits/alloc_traits.h ****       max_size(const allocator_type& __a __attribute__((__unused__))) noexcept
 544:/Library/DaisyToolchain/0.1.3-ARM/arm/arm-none-eabi/include/c++/10.3.1/bits/alloc_traits.h ****       {
 545:/Library/DaisyToolchain/0.1.3-ARM/arm/arm-none-eabi/include/c++/10.3.1/bits/alloc_traits.h **** #if __cplusplus <= 201703L
 546:/Library/DaisyToolchain/0.1.3-ARM/arm/arm-none-eabi/include/c++/10.3.1/bits/alloc_traits.h **** 	return __a.max_size();
 547:/Library/DaisyToolchain/0.1.3-ARM/arm/arm-none-eabi/include/c++/10.3.1/bits/alloc_traits.h **** #else
 548:/Library/DaisyToolchain/0.1.3-ARM/arm/arm-none-eabi/include/c++/10.3.1/bits/alloc_traits.h **** 	return size_t(-1) / sizeof(value_type);
 549:/Library/DaisyToolchain/0.1.3-ARM/arm/arm-none-eabi/include/c++/10.3.1/bits/alloc_traits.h **** #endif
 550:/Library/DaisyToolchain/0.1.3-ARM/arm/arm-none-eabi/include/c++/10.3.1/bits/alloc_traits.h ****       }
 551:/Library/DaisyToolchain/0.1.3-ARM/arm/arm-none-eabi/include/c++/10.3.1/bits/alloc_traits.h **** 
 552:/Library/DaisyToolchain/0.1.3-ARM/arm/arm-none-eabi/include/c++/10.3.1/bits/alloc_traits.h ****       /**
 553:/Library/DaisyToolchain/0.1.3-ARM/arm/arm-none-eabi/include/c++/10.3.1/bits/alloc_traits.h ****        *  @brief  Obtain an allocator to use when copying a container.
 554:/Library/DaisyToolchain/0.1.3-ARM/arm/arm-none-eabi/include/c++/10.3.1/bits/alloc_traits.h ****        *  @param  __rhs  An allocator.
 555:/Library/DaisyToolchain/0.1.3-ARM/arm/arm-none-eabi/include/c++/10.3.1/bits/alloc_traits.h ****        *  @return @c __rhs
 556:/Library/DaisyToolchain/0.1.3-ARM/arm/arm-none-eabi/include/c++/10.3.1/bits/alloc_traits.h ****       */
 557:/Library/DaisyToolchain/0.1.3-ARM/arm/arm-none-eabi/include/c++/10.3.1/bits/alloc_traits.h ****       static _GLIBCXX20_CONSTEXPR allocator_type
 558:/Library/DaisyToolchain/0.1.3-ARM/arm/arm-none-eabi/include/c++/10.3.1/bits/alloc_traits.h ****       select_on_container_copy_construction(const allocator_type& __rhs)
 559:/Library/DaisyToolchain/0.1.3-ARM/arm/arm-none-eabi/include/c++/10.3.1/bits/alloc_traits.h ****       { return __rhs; }
 560:/Library/DaisyToolchain/0.1.3-ARM/arm/arm-none-eabi/include/c++/10.3.1/bits/alloc_traits.h ****     };
 561:/Library/DaisyToolchain/0.1.3-ARM/arm/arm-none-eabi/include/c++/10.3.1/bits/alloc_traits.h **** 
 562:/Library/DaisyToolchain/0.1.3-ARM/arm/arm-none-eabi/include/c++/10.3.1/bits/alloc_traits.h **** #if __cplusplus < 201703L
 563:/Library/DaisyToolchain/0.1.3-ARM/arm/arm-none-eabi/include/c++/10.3.1/bits/alloc_traits.h ****   template<typename _Alloc>
 564:/Library/DaisyToolchain/0.1.3-ARM/arm/arm-none-eabi/include/c++/10.3.1/bits/alloc_traits.h ****     inline void
 565:/Library/DaisyToolchain/0.1.3-ARM/arm/arm-none-eabi/include/c++/10.3.1/bits/alloc_traits.h ****     __do_alloc_on_copy(_Alloc& __one, const _Alloc& __two, true_type)
 566:/Library/DaisyToolchain/0.1.3-ARM/arm/arm-none-eabi/include/c++/10.3.1/bits/alloc_traits.h ****     { __one = __two; }
 567:/Library/DaisyToolchain/0.1.3-ARM/arm/arm-none-eabi/include/c++/10.3.1/bits/alloc_traits.h **** 
 568:/Library/DaisyToolchain/0.1.3-ARM/arm/arm-none-eabi/include/c++/10.3.1/bits/alloc_traits.h ****   template<typename _Alloc>
 569:/Library/DaisyToolchain/0.1.3-ARM/arm/arm-none-eabi/include/c++/10.3.1/bits/alloc_traits.h ****     inline void
 570:/Library/DaisyToolchain/0.1.3-ARM/arm/arm-none-eabi/include/c++/10.3.1/bits/alloc_traits.h ****     __do_alloc_on_copy(_Alloc&, const _Alloc&, false_type)
 571:/Library/DaisyToolchain/0.1.3-ARM/arm/arm-none-eabi/include/c++/10.3.1/bits/alloc_traits.h ****     { }
 572:/Library/DaisyToolchain/0.1.3-ARM/arm/arm-none-eabi/include/c++/10.3.1/bits/alloc_traits.h **** #endif
ARM GAS  /var/folders/xd/16jvbr6j24q9nvtpm0qtw3240000gn/T//cch9jPA2.s 			page 169


 573:/Library/DaisyToolchain/0.1.3-ARM/arm/arm-none-eabi/include/c++/10.3.1/bits/alloc_traits.h **** 
 574:/Library/DaisyToolchain/0.1.3-ARM/arm/arm-none-eabi/include/c++/10.3.1/bits/alloc_traits.h ****   template<typename _Alloc>
 575:/Library/DaisyToolchain/0.1.3-ARM/arm/arm-none-eabi/include/c++/10.3.1/bits/alloc_traits.h ****     _GLIBCXX14_CONSTEXPR inline void
 576:/Library/DaisyToolchain/0.1.3-ARM/arm/arm-none-eabi/include/c++/10.3.1/bits/alloc_traits.h ****     __alloc_on_copy(_Alloc& __one, const _Alloc& __two)
 577:/Library/DaisyToolchain/0.1.3-ARM/arm/arm-none-eabi/include/c++/10.3.1/bits/alloc_traits.h ****     {
 578:/Library/DaisyToolchain/0.1.3-ARM/arm/arm-none-eabi/include/c++/10.3.1/bits/alloc_traits.h ****       typedef allocator_traits<_Alloc> __traits;
 579:/Library/DaisyToolchain/0.1.3-ARM/arm/arm-none-eabi/include/c++/10.3.1/bits/alloc_traits.h ****       typedef typename __traits::propagate_on_container_copy_assignment __pocca;
 580:/Library/DaisyToolchain/0.1.3-ARM/arm/arm-none-eabi/include/c++/10.3.1/bits/alloc_traits.h **** #if __cplusplus >= 201703L
 581:/Library/DaisyToolchain/0.1.3-ARM/arm/arm-none-eabi/include/c++/10.3.1/bits/alloc_traits.h ****       if constexpr (__pocca::value)
 582:/Library/DaisyToolchain/0.1.3-ARM/arm/arm-none-eabi/include/c++/10.3.1/bits/alloc_traits.h **** 	__one = __two;
 583:/Library/DaisyToolchain/0.1.3-ARM/arm/arm-none-eabi/include/c++/10.3.1/bits/alloc_traits.h **** #else
 584:/Library/DaisyToolchain/0.1.3-ARM/arm/arm-none-eabi/include/c++/10.3.1/bits/alloc_traits.h ****       __do_alloc_on_copy(__one, __two, __pocca());
 585:/Library/DaisyToolchain/0.1.3-ARM/arm/arm-none-eabi/include/c++/10.3.1/bits/alloc_traits.h **** #endif
 586:/Library/DaisyToolchain/0.1.3-ARM/arm/arm-none-eabi/include/c++/10.3.1/bits/alloc_traits.h ****     }
 587:/Library/DaisyToolchain/0.1.3-ARM/arm/arm-none-eabi/include/c++/10.3.1/bits/alloc_traits.h **** 
 588:/Library/DaisyToolchain/0.1.3-ARM/arm/arm-none-eabi/include/c++/10.3.1/bits/alloc_traits.h ****   template<typename _Alloc>
 589:/Library/DaisyToolchain/0.1.3-ARM/arm/arm-none-eabi/include/c++/10.3.1/bits/alloc_traits.h ****     constexpr _Alloc
 590:/Library/DaisyToolchain/0.1.3-ARM/arm/arm-none-eabi/include/c++/10.3.1/bits/alloc_traits.h ****     __alloc_on_copy(const _Alloc& __a)
 591:/Library/DaisyToolchain/0.1.3-ARM/arm/arm-none-eabi/include/c++/10.3.1/bits/alloc_traits.h ****     {
 592:/Library/DaisyToolchain/0.1.3-ARM/arm/arm-none-eabi/include/c++/10.3.1/bits/alloc_traits.h ****       typedef allocator_traits<_Alloc> __traits;
 593:/Library/DaisyToolchain/0.1.3-ARM/arm/arm-none-eabi/include/c++/10.3.1/bits/alloc_traits.h ****       return __traits::select_on_container_copy_construction(__a);
 594:/Library/DaisyToolchain/0.1.3-ARM/arm/arm-none-eabi/include/c++/10.3.1/bits/alloc_traits.h ****     }
 595:/Library/DaisyToolchain/0.1.3-ARM/arm/arm-none-eabi/include/c++/10.3.1/bits/alloc_traits.h **** 
 596:/Library/DaisyToolchain/0.1.3-ARM/arm/arm-none-eabi/include/c++/10.3.1/bits/alloc_traits.h **** #if __cplusplus < 201703L
 597:/Library/DaisyToolchain/0.1.3-ARM/arm/arm-none-eabi/include/c++/10.3.1/bits/alloc_traits.h ****   template<typename _Alloc>
 598:/Library/DaisyToolchain/0.1.3-ARM/arm/arm-none-eabi/include/c++/10.3.1/bits/alloc_traits.h ****     inline void __do_alloc_on_move(_Alloc& __one, _Alloc& __two, true_type)
 599:/Library/DaisyToolchain/0.1.3-ARM/arm/arm-none-eabi/include/c++/10.3.1/bits/alloc_traits.h ****     { __one = std::move(__two); }
 600:/Library/DaisyToolchain/0.1.3-ARM/arm/arm-none-eabi/include/c++/10.3.1/bits/alloc_traits.h **** 
 601:/Library/DaisyToolchain/0.1.3-ARM/arm/arm-none-eabi/include/c++/10.3.1/bits/alloc_traits.h ****   template<typename _Alloc>
 602:/Library/DaisyToolchain/0.1.3-ARM/arm/arm-none-eabi/include/c++/10.3.1/bits/alloc_traits.h ****     inline void __do_alloc_on_move(_Alloc&, _Alloc&, false_type)
 603:/Library/DaisyToolchain/0.1.3-ARM/arm/arm-none-eabi/include/c++/10.3.1/bits/alloc_traits.h ****     { }
 604:/Library/DaisyToolchain/0.1.3-ARM/arm/arm-none-eabi/include/c++/10.3.1/bits/alloc_traits.h **** #endif
 605:/Library/DaisyToolchain/0.1.3-ARM/arm/arm-none-eabi/include/c++/10.3.1/bits/alloc_traits.h **** 
 606:/Library/DaisyToolchain/0.1.3-ARM/arm/arm-none-eabi/include/c++/10.3.1/bits/alloc_traits.h ****   template<typename _Alloc>
 607:/Library/DaisyToolchain/0.1.3-ARM/arm/arm-none-eabi/include/c++/10.3.1/bits/alloc_traits.h ****     _GLIBCXX14_CONSTEXPR inline void
 608:/Library/DaisyToolchain/0.1.3-ARM/arm/arm-none-eabi/include/c++/10.3.1/bits/alloc_traits.h ****     __alloc_on_move(_Alloc& __one, _Alloc& __two)
 609:/Library/DaisyToolchain/0.1.3-ARM/arm/arm-none-eabi/include/c++/10.3.1/bits/alloc_traits.h ****     {
 610:/Library/DaisyToolchain/0.1.3-ARM/arm/arm-none-eabi/include/c++/10.3.1/bits/alloc_traits.h ****       typedef allocator_traits<_Alloc> __traits;
 611:/Library/DaisyToolchain/0.1.3-ARM/arm/arm-none-eabi/include/c++/10.3.1/bits/alloc_traits.h ****       typedef typename __traits::propagate_on_container_move_assignment __pocma;
 612:/Library/DaisyToolchain/0.1.3-ARM/arm/arm-none-eabi/include/c++/10.3.1/bits/alloc_traits.h **** #if __cplusplus >= 201703L
 613:/Library/DaisyToolchain/0.1.3-ARM/arm/arm-none-eabi/include/c++/10.3.1/bits/alloc_traits.h ****       if constexpr (__pocma::value)
 614:/Library/DaisyToolchain/0.1.3-ARM/arm/arm-none-eabi/include/c++/10.3.1/bits/alloc_traits.h **** 	__one = std::move(__two);
 615:/Library/DaisyToolchain/0.1.3-ARM/arm/arm-none-eabi/include/c++/10.3.1/bits/alloc_traits.h **** #else
 616:/Library/DaisyToolchain/0.1.3-ARM/arm/arm-none-eabi/include/c++/10.3.1/bits/alloc_traits.h ****       __do_alloc_on_move(__one, __two, __pocma());
 617:/Library/DaisyToolchain/0.1.3-ARM/arm/arm-none-eabi/include/c++/10.3.1/bits/alloc_traits.h **** #endif
 618:/Library/DaisyToolchain/0.1.3-ARM/arm/arm-none-eabi/include/c++/10.3.1/bits/alloc_traits.h ****     }
 619:/Library/DaisyToolchain/0.1.3-ARM/arm/arm-none-eabi/include/c++/10.3.1/bits/alloc_traits.h **** 
 620:/Library/DaisyToolchain/0.1.3-ARM/arm/arm-none-eabi/include/c++/10.3.1/bits/alloc_traits.h **** #if __cplusplus < 201703L
 621:/Library/DaisyToolchain/0.1.3-ARM/arm/arm-none-eabi/include/c++/10.3.1/bits/alloc_traits.h ****   template<typename _Alloc>
 622:/Library/DaisyToolchain/0.1.3-ARM/arm/arm-none-eabi/include/c++/10.3.1/bits/alloc_traits.h ****     inline void __do_alloc_on_swap(_Alloc& __one, _Alloc& __two, true_type)
 623:/Library/DaisyToolchain/0.1.3-ARM/arm/arm-none-eabi/include/c++/10.3.1/bits/alloc_traits.h ****     {
 624:/Library/DaisyToolchain/0.1.3-ARM/arm/arm-none-eabi/include/c++/10.3.1/bits/alloc_traits.h ****       using std::swap;
 625:/Library/DaisyToolchain/0.1.3-ARM/arm/arm-none-eabi/include/c++/10.3.1/bits/alloc_traits.h ****       swap(__one, __two);
 626:/Library/DaisyToolchain/0.1.3-ARM/arm/arm-none-eabi/include/c++/10.3.1/bits/alloc_traits.h ****     }
 627:/Library/DaisyToolchain/0.1.3-ARM/arm/arm-none-eabi/include/c++/10.3.1/bits/alloc_traits.h **** 
 628:/Library/DaisyToolchain/0.1.3-ARM/arm/arm-none-eabi/include/c++/10.3.1/bits/alloc_traits.h ****   template<typename _Alloc>
 629:/Library/DaisyToolchain/0.1.3-ARM/arm/arm-none-eabi/include/c++/10.3.1/bits/alloc_traits.h ****     inline void __do_alloc_on_swap(_Alloc&, _Alloc&, false_type)
ARM GAS  /var/folders/xd/16jvbr6j24q9nvtpm0qtw3240000gn/T//cch9jPA2.s 			page 170


 630:/Library/DaisyToolchain/0.1.3-ARM/arm/arm-none-eabi/include/c++/10.3.1/bits/alloc_traits.h ****     { }
 631:/Library/DaisyToolchain/0.1.3-ARM/arm/arm-none-eabi/include/c++/10.3.1/bits/alloc_traits.h **** #endif
 632:/Library/DaisyToolchain/0.1.3-ARM/arm/arm-none-eabi/include/c++/10.3.1/bits/alloc_traits.h **** 
 633:/Library/DaisyToolchain/0.1.3-ARM/arm/arm-none-eabi/include/c++/10.3.1/bits/alloc_traits.h ****   template<typename _Alloc>
 634:/Library/DaisyToolchain/0.1.3-ARM/arm/arm-none-eabi/include/c++/10.3.1/bits/alloc_traits.h ****     _GLIBCXX14_CONSTEXPR inline void
 635:/Library/DaisyToolchain/0.1.3-ARM/arm/arm-none-eabi/include/c++/10.3.1/bits/alloc_traits.h ****     __alloc_on_swap(_Alloc& __one, _Alloc& __two)
 636:/Library/DaisyToolchain/0.1.3-ARM/arm/arm-none-eabi/include/c++/10.3.1/bits/alloc_traits.h ****     {
 637:/Library/DaisyToolchain/0.1.3-ARM/arm/arm-none-eabi/include/c++/10.3.1/bits/alloc_traits.h ****       typedef allocator_traits<_Alloc> __traits;
 638:/Library/DaisyToolchain/0.1.3-ARM/arm/arm-none-eabi/include/c++/10.3.1/bits/alloc_traits.h ****       typedef typename __traits::propagate_on_container_swap __pocs;
 639:/Library/DaisyToolchain/0.1.3-ARM/arm/arm-none-eabi/include/c++/10.3.1/bits/alloc_traits.h **** #if __cplusplus >= 201703L
 640:/Library/DaisyToolchain/0.1.3-ARM/arm/arm-none-eabi/include/c++/10.3.1/bits/alloc_traits.h ****       if constexpr (__pocs::value)
 641:/Library/DaisyToolchain/0.1.3-ARM/arm/arm-none-eabi/include/c++/10.3.1/bits/alloc_traits.h **** 	{
 642:/Library/DaisyToolchain/0.1.3-ARM/arm/arm-none-eabi/include/c++/10.3.1/bits/alloc_traits.h **** 	  using std::swap;
 643:/Library/DaisyToolchain/0.1.3-ARM/arm/arm-none-eabi/include/c++/10.3.1/bits/alloc_traits.h **** 	  swap(__one, __two);
 644:/Library/DaisyToolchain/0.1.3-ARM/arm/arm-none-eabi/include/c++/10.3.1/bits/alloc_traits.h **** 	}
 645:/Library/DaisyToolchain/0.1.3-ARM/arm/arm-none-eabi/include/c++/10.3.1/bits/alloc_traits.h **** #else
 646:/Library/DaisyToolchain/0.1.3-ARM/arm/arm-none-eabi/include/c++/10.3.1/bits/alloc_traits.h ****       __do_alloc_on_swap(__one, __two, __pocs());
 647:/Library/DaisyToolchain/0.1.3-ARM/arm/arm-none-eabi/include/c++/10.3.1/bits/alloc_traits.h **** #endif
 648:/Library/DaisyToolchain/0.1.3-ARM/arm/arm-none-eabi/include/c++/10.3.1/bits/alloc_traits.h ****     }
 649:/Library/DaisyToolchain/0.1.3-ARM/arm/arm-none-eabi/include/c++/10.3.1/bits/alloc_traits.h **** 
 650:/Library/DaisyToolchain/0.1.3-ARM/arm/arm-none-eabi/include/c++/10.3.1/bits/alloc_traits.h ****   template<typename _Alloc, typename _Tp,
 651:/Library/DaisyToolchain/0.1.3-ARM/arm/arm-none-eabi/include/c++/10.3.1/bits/alloc_traits.h **** 	   typename _ValueT = __remove_cvref_t<typename _Alloc::value_type>,
 652:/Library/DaisyToolchain/0.1.3-ARM/arm/arm-none-eabi/include/c++/10.3.1/bits/alloc_traits.h **** 	   typename = void>
 653:/Library/DaisyToolchain/0.1.3-ARM/arm/arm-none-eabi/include/c++/10.3.1/bits/alloc_traits.h ****     struct __is_alloc_insertable_impl
 654:/Library/DaisyToolchain/0.1.3-ARM/arm/arm-none-eabi/include/c++/10.3.1/bits/alloc_traits.h ****     : false_type
 655:/Library/DaisyToolchain/0.1.3-ARM/arm/arm-none-eabi/include/c++/10.3.1/bits/alloc_traits.h ****     { };
 656:/Library/DaisyToolchain/0.1.3-ARM/arm/arm-none-eabi/include/c++/10.3.1/bits/alloc_traits.h **** 
 657:/Library/DaisyToolchain/0.1.3-ARM/arm/arm-none-eabi/include/c++/10.3.1/bits/alloc_traits.h ****   template<typename _Alloc, typename _Tp, typename _ValueT>
 658:/Library/DaisyToolchain/0.1.3-ARM/arm/arm-none-eabi/include/c++/10.3.1/bits/alloc_traits.h ****     struct __is_alloc_insertable_impl<_Alloc, _Tp, _ValueT,
 659:/Library/DaisyToolchain/0.1.3-ARM/arm/arm-none-eabi/include/c++/10.3.1/bits/alloc_traits.h ****       __void_t<decltype(allocator_traits<_Alloc>::construct(
 660:/Library/DaisyToolchain/0.1.3-ARM/arm/arm-none-eabi/include/c++/10.3.1/bits/alloc_traits.h **** 		   std::declval<_Alloc&>(), std::declval<_ValueT*>(),
 661:/Library/DaisyToolchain/0.1.3-ARM/arm/arm-none-eabi/include/c++/10.3.1/bits/alloc_traits.h **** 		   std::declval<_Tp>()))>>
 662:/Library/DaisyToolchain/0.1.3-ARM/arm/arm-none-eabi/include/c++/10.3.1/bits/alloc_traits.h ****     : true_type
 663:/Library/DaisyToolchain/0.1.3-ARM/arm/arm-none-eabi/include/c++/10.3.1/bits/alloc_traits.h ****     { };
 664:/Library/DaisyToolchain/0.1.3-ARM/arm/arm-none-eabi/include/c++/10.3.1/bits/alloc_traits.h **** 
 665:/Library/DaisyToolchain/0.1.3-ARM/arm/arm-none-eabi/include/c++/10.3.1/bits/alloc_traits.h ****   // true if _Alloc::value_type is CopyInsertable into containers using _Alloc
 666:/Library/DaisyToolchain/0.1.3-ARM/arm/arm-none-eabi/include/c++/10.3.1/bits/alloc_traits.h ****   // (might be wrong if _Alloc::construct exists but is not constrained,
 667:/Library/DaisyToolchain/0.1.3-ARM/arm/arm-none-eabi/include/c++/10.3.1/bits/alloc_traits.h ****   // i.e. actually trying to use it would still be invalid. Use with caution.)
 668:/Library/DaisyToolchain/0.1.3-ARM/arm/arm-none-eabi/include/c++/10.3.1/bits/alloc_traits.h ****   template<typename _Alloc>
 669:/Library/DaisyToolchain/0.1.3-ARM/arm/arm-none-eabi/include/c++/10.3.1/bits/alloc_traits.h ****     struct __is_copy_insertable
 670:/Library/DaisyToolchain/0.1.3-ARM/arm/arm-none-eabi/include/c++/10.3.1/bits/alloc_traits.h ****     : __is_alloc_insertable_impl<_Alloc,
 671:/Library/DaisyToolchain/0.1.3-ARM/arm/arm-none-eabi/include/c++/10.3.1/bits/alloc_traits.h **** 				 typename _Alloc::value_type const&>::type
 672:/Library/DaisyToolchain/0.1.3-ARM/arm/arm-none-eabi/include/c++/10.3.1/bits/alloc_traits.h ****     { };
 673:/Library/DaisyToolchain/0.1.3-ARM/arm/arm-none-eabi/include/c++/10.3.1/bits/alloc_traits.h **** 
 674:/Library/DaisyToolchain/0.1.3-ARM/arm/arm-none-eabi/include/c++/10.3.1/bits/alloc_traits.h ****   // std::allocator<_Tp> just requires CopyConstructible
 675:/Library/DaisyToolchain/0.1.3-ARM/arm/arm-none-eabi/include/c++/10.3.1/bits/alloc_traits.h ****   template<typename _Tp>
 676:/Library/DaisyToolchain/0.1.3-ARM/arm/arm-none-eabi/include/c++/10.3.1/bits/alloc_traits.h ****     struct __is_copy_insertable<allocator<_Tp>>
 677:/Library/DaisyToolchain/0.1.3-ARM/arm/arm-none-eabi/include/c++/10.3.1/bits/alloc_traits.h ****     : is_copy_constructible<_Tp>
 678:/Library/DaisyToolchain/0.1.3-ARM/arm/arm-none-eabi/include/c++/10.3.1/bits/alloc_traits.h ****     { };
 679:/Library/DaisyToolchain/0.1.3-ARM/arm/arm-none-eabi/include/c++/10.3.1/bits/alloc_traits.h **** 
 680:/Library/DaisyToolchain/0.1.3-ARM/arm/arm-none-eabi/include/c++/10.3.1/bits/alloc_traits.h ****   // true if _Alloc::value_type is MoveInsertable into containers using _Alloc
 681:/Library/DaisyToolchain/0.1.3-ARM/arm/arm-none-eabi/include/c++/10.3.1/bits/alloc_traits.h ****   // (might be wrong if _Alloc::construct exists but is not constrained,
 682:/Library/DaisyToolchain/0.1.3-ARM/arm/arm-none-eabi/include/c++/10.3.1/bits/alloc_traits.h ****   // i.e. actually trying to use it would still be invalid. Use with caution.)
 683:/Library/DaisyToolchain/0.1.3-ARM/arm/arm-none-eabi/include/c++/10.3.1/bits/alloc_traits.h ****   template<typename _Alloc>
 684:/Library/DaisyToolchain/0.1.3-ARM/arm/arm-none-eabi/include/c++/10.3.1/bits/alloc_traits.h ****     struct __is_move_insertable
 685:/Library/DaisyToolchain/0.1.3-ARM/arm/arm-none-eabi/include/c++/10.3.1/bits/alloc_traits.h ****     : __is_alloc_insertable_impl<_Alloc, typename _Alloc::value_type>::type
 686:/Library/DaisyToolchain/0.1.3-ARM/arm/arm-none-eabi/include/c++/10.3.1/bits/alloc_traits.h ****     { };
ARM GAS  /var/folders/xd/16jvbr6j24q9nvtpm0qtw3240000gn/T//cch9jPA2.s 			page 171


 687:/Library/DaisyToolchain/0.1.3-ARM/arm/arm-none-eabi/include/c++/10.3.1/bits/alloc_traits.h **** 
 688:/Library/DaisyToolchain/0.1.3-ARM/arm/arm-none-eabi/include/c++/10.3.1/bits/alloc_traits.h ****   // std::allocator<_Tp> just requires MoveConstructible
 689:/Library/DaisyToolchain/0.1.3-ARM/arm/arm-none-eabi/include/c++/10.3.1/bits/alloc_traits.h ****   template<typename _Tp>
 690:/Library/DaisyToolchain/0.1.3-ARM/arm/arm-none-eabi/include/c++/10.3.1/bits/alloc_traits.h ****     struct __is_move_insertable<allocator<_Tp>>
 691:/Library/DaisyToolchain/0.1.3-ARM/arm/arm-none-eabi/include/c++/10.3.1/bits/alloc_traits.h ****     : is_move_constructible<_Tp>
 692:/Library/DaisyToolchain/0.1.3-ARM/arm/arm-none-eabi/include/c++/10.3.1/bits/alloc_traits.h ****     { };
 693:/Library/DaisyToolchain/0.1.3-ARM/arm/arm-none-eabi/include/c++/10.3.1/bits/alloc_traits.h **** 
 694:/Library/DaisyToolchain/0.1.3-ARM/arm/arm-none-eabi/include/c++/10.3.1/bits/alloc_traits.h ****   // Trait to detect Allocator-like types.
 695:/Library/DaisyToolchain/0.1.3-ARM/arm/arm-none-eabi/include/c++/10.3.1/bits/alloc_traits.h ****   template<typename _Alloc, typename = void>
 696:/Library/DaisyToolchain/0.1.3-ARM/arm/arm-none-eabi/include/c++/10.3.1/bits/alloc_traits.h ****     struct __is_allocator : false_type { };
 697:/Library/DaisyToolchain/0.1.3-ARM/arm/arm-none-eabi/include/c++/10.3.1/bits/alloc_traits.h **** 
 698:/Library/DaisyToolchain/0.1.3-ARM/arm/arm-none-eabi/include/c++/10.3.1/bits/alloc_traits.h ****   template<typename _Alloc>
 699:/Library/DaisyToolchain/0.1.3-ARM/arm/arm-none-eabi/include/c++/10.3.1/bits/alloc_traits.h ****     struct __is_allocator<_Alloc,
 700:/Library/DaisyToolchain/0.1.3-ARM/arm/arm-none-eabi/include/c++/10.3.1/bits/alloc_traits.h ****       __void_t<typename _Alloc::value_type,
 701:/Library/DaisyToolchain/0.1.3-ARM/arm/arm-none-eabi/include/c++/10.3.1/bits/alloc_traits.h **** 	       decltype(std::declval<_Alloc&>().allocate(size_t{}))>>
 702:/Library/DaisyToolchain/0.1.3-ARM/arm/arm-none-eabi/include/c++/10.3.1/bits/alloc_traits.h ****     : true_type { };
 703:/Library/DaisyToolchain/0.1.3-ARM/arm/arm-none-eabi/include/c++/10.3.1/bits/alloc_traits.h **** 
 704:/Library/DaisyToolchain/0.1.3-ARM/arm/arm-none-eabi/include/c++/10.3.1/bits/alloc_traits.h ****   template<typename _Alloc>
 705:/Library/DaisyToolchain/0.1.3-ARM/arm/arm-none-eabi/include/c++/10.3.1/bits/alloc_traits.h ****     using _RequireAllocator
 706:/Library/DaisyToolchain/0.1.3-ARM/arm/arm-none-eabi/include/c++/10.3.1/bits/alloc_traits.h ****       = typename enable_if<__is_allocator<_Alloc>::value, _Alloc>::type;
 707:/Library/DaisyToolchain/0.1.3-ARM/arm/arm-none-eabi/include/c++/10.3.1/bits/alloc_traits.h **** 
 708:/Library/DaisyToolchain/0.1.3-ARM/arm/arm-none-eabi/include/c++/10.3.1/bits/alloc_traits.h ****   template<typename _Alloc>
 709:/Library/DaisyToolchain/0.1.3-ARM/arm/arm-none-eabi/include/c++/10.3.1/bits/alloc_traits.h ****     using _RequireNotAllocator
 710:/Library/DaisyToolchain/0.1.3-ARM/arm/arm-none-eabi/include/c++/10.3.1/bits/alloc_traits.h ****       = typename enable_if<!__is_allocator<_Alloc>::value, _Alloc>::type;
 711:/Library/DaisyToolchain/0.1.3-ARM/arm/arm-none-eabi/include/c++/10.3.1/bits/alloc_traits.h **** #endif // C++11
 712:/Library/DaisyToolchain/0.1.3-ARM/arm/arm-none-eabi/include/c++/10.3.1/bits/alloc_traits.h **** 
 713:/Library/DaisyToolchain/0.1.3-ARM/arm/arm-none-eabi/include/c++/10.3.1/bits/alloc_traits.h ****   /**
 714:/Library/DaisyToolchain/0.1.3-ARM/arm/arm-none-eabi/include/c++/10.3.1/bits/alloc_traits.h ****    * Destroy a range of objects using the supplied allocator.  For
 715:/Library/DaisyToolchain/0.1.3-ARM/arm/arm-none-eabi/include/c++/10.3.1/bits/alloc_traits.h ****    * non-default allocators we do not optimize away invocation of
 716:/Library/DaisyToolchain/0.1.3-ARM/arm/arm-none-eabi/include/c++/10.3.1/bits/alloc_traits.h ****    * destroy() even if _Tp has a trivial destructor.
 717:/Library/DaisyToolchain/0.1.3-ARM/arm/arm-none-eabi/include/c++/10.3.1/bits/alloc_traits.h ****    */
 718:/Library/DaisyToolchain/0.1.3-ARM/arm/arm-none-eabi/include/c++/10.3.1/bits/alloc_traits.h **** 
 719:/Library/DaisyToolchain/0.1.3-ARM/arm/arm-none-eabi/include/c++/10.3.1/bits/alloc_traits.h ****   template<typename _ForwardIterator, typename _Allocator>
 720:/Library/DaisyToolchain/0.1.3-ARM/arm/arm-none-eabi/include/c++/10.3.1/bits/alloc_traits.h ****     void
 721:/Library/DaisyToolchain/0.1.3-ARM/arm/arm-none-eabi/include/c++/10.3.1/bits/alloc_traits.h ****     _Destroy(_ForwardIterator __first, _ForwardIterator __last,
 722:/Library/DaisyToolchain/0.1.3-ARM/arm/arm-none-eabi/include/c++/10.3.1/bits/alloc_traits.h **** 	     _Allocator& __alloc)
 723:/Library/DaisyToolchain/0.1.3-ARM/arm/arm-none-eabi/include/c++/10.3.1/bits/alloc_traits.h ****     {
 724:/Library/DaisyToolchain/0.1.3-ARM/arm/arm-none-eabi/include/c++/10.3.1/bits/alloc_traits.h ****       for (; __first != __last; ++__first)
 725:/Library/DaisyToolchain/0.1.3-ARM/arm/arm-none-eabi/include/c++/10.3.1/bits/alloc_traits.h **** #if __cplusplus < 201103L
 726:/Library/DaisyToolchain/0.1.3-ARM/arm/arm-none-eabi/include/c++/10.3.1/bits/alloc_traits.h **** 	__alloc.destroy(std::__addressof(*__first));
 727:/Library/DaisyToolchain/0.1.3-ARM/arm/arm-none-eabi/include/c++/10.3.1/bits/alloc_traits.h **** #else
 728:/Library/DaisyToolchain/0.1.3-ARM/arm/arm-none-eabi/include/c++/10.3.1/bits/alloc_traits.h **** 	allocator_traits<_Allocator>::destroy(__alloc,
 729:/Library/DaisyToolchain/0.1.3-ARM/arm/arm-none-eabi/include/c++/10.3.1/bits/alloc_traits.h **** 					      std::__addressof(*__first));
 730:/Library/DaisyToolchain/0.1.3-ARM/arm/arm-none-eabi/include/c++/10.3.1/bits/alloc_traits.h **** #endif
 731:/Library/DaisyToolchain/0.1.3-ARM/arm/arm-none-eabi/include/c++/10.3.1/bits/alloc_traits.h ****     }
 732:/Library/DaisyToolchain/0.1.3-ARM/arm/arm-none-eabi/include/c++/10.3.1/bits/alloc_traits.h **** 
 733:/Library/DaisyToolchain/0.1.3-ARM/arm/arm-none-eabi/include/c++/10.3.1/bits/alloc_traits.h ****   template<typename _ForwardIterator, typename _Tp>
 734:/Library/DaisyToolchain/0.1.3-ARM/arm/arm-none-eabi/include/c++/10.3.1/bits/alloc_traits.h ****     inline void
 735:/Library/DaisyToolchain/0.1.3-ARM/arm/arm-none-eabi/include/c++/10.3.1/bits/alloc_traits.h ****     _Destroy(_ForwardIterator __first, _ForwardIterator __last,
 3443              		.loc 14 735 5 is_stmt 1 view .LVU910
 3444              		.loc 14 735 5 is_stmt 0 view .LVU911
 3445              	.LBE952:
 3446              	.LBB953:
 3447              	.LBI953:
 333:/Library/DaisyToolchain/0.1.3-ARM/arm/arm-none-eabi/include/c++/10.3.1/bits/stl_vector.h ****       {
 3448              		.loc 10 333 7 is_stmt 1 view .LVU912
 3449              	.LBB954:
ARM GAS  /var/folders/xd/16jvbr6j24q9nvtpm0qtw3240000gn/T//cch9jPA2.s 			page 172


 3450              	.LBI954:
 350:/Library/DaisyToolchain/0.1.3-ARM/arm/arm-none-eabi/include/c++/10.3.1/bits/stl_vector.h ****       {
 3451              		.loc 10 350 7 view .LVU913
 3452              	.LBB955:
 3453              	.LBB956:
 3454              	.LBI956:
 491:/Library/DaisyToolchain/0.1.3-ARM/arm/arm-none-eabi/include/c++/10.3.1/bits/alloc_traits.h ****       { __a.deallocate(__p, __n); }
 3455              		.loc 14 491 7 view .LVU914
 3456              	.LBB957:
 3457              	.LBI957:
 122:/Library/DaisyToolchain/0.1.3-ARM/arm/arm-none-eabi/include/c++/10.3.1/ext/new_allocator.h ****       }
 123:/Library/DaisyToolchain/0.1.3-ARM/arm/arm-none-eabi/include/c++/10.3.1/ext/new_allocator.h **** 
 124:/Library/DaisyToolchain/0.1.3-ARM/arm/arm-none-eabi/include/c++/10.3.1/ext/new_allocator.h ****       // __p is not permitted to be a null pointer.
 125:/Library/DaisyToolchain/0.1.3-ARM/arm/arm-none-eabi/include/c++/10.3.1/ext/new_allocator.h ****       void
 126:/Library/DaisyToolchain/0.1.3-ARM/arm/arm-none-eabi/include/c++/10.3.1/ext/new_allocator.h ****       deallocate(_Tp* __p, size_type __t)
 3458              		.loc 12 126 7 view .LVU915
 3459              	.LBB958:
 127:/Library/DaisyToolchain/0.1.3-ARM/arm/arm-none-eabi/include/c++/10.3.1/ext/new_allocator.h ****       {
 128:/Library/DaisyToolchain/0.1.3-ARM/arm/arm-none-eabi/include/c++/10.3.1/ext/new_allocator.h **** #if __cpp_aligned_new
 129:/Library/DaisyToolchain/0.1.3-ARM/arm/arm-none-eabi/include/c++/10.3.1/ext/new_allocator.h **** 	if (alignof(_Tp) > __STDCPP_DEFAULT_NEW_ALIGNMENT__)
 130:/Library/DaisyToolchain/0.1.3-ARM/arm/arm-none-eabi/include/c++/10.3.1/ext/new_allocator.h **** 	  {
 131:/Library/DaisyToolchain/0.1.3-ARM/arm/arm-none-eabi/include/c++/10.3.1/ext/new_allocator.h **** 	    ::operator delete(__p,
 132:/Library/DaisyToolchain/0.1.3-ARM/arm/arm-none-eabi/include/c++/10.3.1/ext/new_allocator.h **** # if __cpp_sized_deallocation
 133:/Library/DaisyToolchain/0.1.3-ARM/arm/arm-none-eabi/include/c++/10.3.1/ext/new_allocator.h **** 			      __t * sizeof(_Tp),
 134:/Library/DaisyToolchain/0.1.3-ARM/arm/arm-none-eabi/include/c++/10.3.1/ext/new_allocator.h **** # endif
 135:/Library/DaisyToolchain/0.1.3-ARM/arm/arm-none-eabi/include/c++/10.3.1/ext/new_allocator.h **** 			      std::align_val_t(alignof(_Tp)));
 136:/Library/DaisyToolchain/0.1.3-ARM/arm/arm-none-eabi/include/c++/10.3.1/ext/new_allocator.h **** 	    return;
 137:/Library/DaisyToolchain/0.1.3-ARM/arm/arm-none-eabi/include/c++/10.3.1/ext/new_allocator.h **** 	  }
 138:/Library/DaisyToolchain/0.1.3-ARM/arm/arm-none-eabi/include/c++/10.3.1/ext/new_allocator.h **** #endif
 139:/Library/DaisyToolchain/0.1.3-ARM/arm/arm-none-eabi/include/c++/10.3.1/ext/new_allocator.h **** 	::operator delete(__p
 3460              		.loc 12 139 19 is_stmt 0 view .LVU916
 3461 0062 3046     		mov	r0, r6
 3462 0064 2146     		mov	r1, r4
 3463 0066 FFF7FEFF 		bl	_ZdlPvj
 3464              	.LVL261:
 3465              		.loc 12 139 19 view .LVU917
 3466              	.LBE958:
 3467              	.LBE957:
 3468              	.LBE956:
 3469              	.LBE955:
 3470              	.LBE954:
 3471              	.LBB959:
 3472              	.LBI959:
 128:/Library/DaisyToolchain/0.1.3-ARM/arm/arm-none-eabi/include/c++/10.3.1/bits/stl_vector.h **** 	: public _Tp_alloc_type, public _Vector_impl_data
 3473              		.loc 10 128 14 is_stmt 1 view .LVU918
 3474              	.LBB960:
 3475              	.LBI960:
 165:/Library/DaisyToolchain/0.1.3-ARM/arm/arm-none-eabi/include/c++/10.3.1/bits/allocator.h **** 
 166:/Library/DaisyToolchain/0.1.3-ARM/arm/arm-none-eabi/include/c++/10.3.1/bits/allocator.h ****       _GLIBCXX20_CONSTEXPR
 167:/Library/DaisyToolchain/0.1.3-ARM/arm/arm-none-eabi/include/c++/10.3.1/bits/allocator.h ****       allocator(const allocator& __a) _GLIBCXX_NOTHROW
 168:/Library/DaisyToolchain/0.1.3-ARM/arm/arm-none-eabi/include/c++/10.3.1/bits/allocator.h ****       : __allocator_base<_Tp>(__a) { }
 169:/Library/DaisyToolchain/0.1.3-ARM/arm/arm-none-eabi/include/c++/10.3.1/bits/allocator.h **** 
 170:/Library/DaisyToolchain/0.1.3-ARM/arm/arm-none-eabi/include/c++/10.3.1/bits/allocator.h **** #if __cplusplus >= 201103L
 171:/Library/DaisyToolchain/0.1.3-ARM/arm/arm-none-eabi/include/c++/10.3.1/bits/allocator.h ****       // Avoid implicit deprecation.
 172:/Library/DaisyToolchain/0.1.3-ARM/arm/arm-none-eabi/include/c++/10.3.1/bits/allocator.h ****       allocator& operator=(const allocator&) = default;
 173:/Library/DaisyToolchain/0.1.3-ARM/arm/arm-none-eabi/include/c++/10.3.1/bits/allocator.h **** #endif
 174:/Library/DaisyToolchain/0.1.3-ARM/arm/arm-none-eabi/include/c++/10.3.1/bits/allocator.h **** 
ARM GAS  /var/folders/xd/16jvbr6j24q9nvtpm0qtw3240000gn/T//cch9jPA2.s 			page 173


 175:/Library/DaisyToolchain/0.1.3-ARM/arm/arm-none-eabi/include/c++/10.3.1/bits/allocator.h ****       template<typename _Tp1>
 176:/Library/DaisyToolchain/0.1.3-ARM/arm/arm-none-eabi/include/c++/10.3.1/bits/allocator.h **** 	_GLIBCXX20_CONSTEXPR
 177:/Library/DaisyToolchain/0.1.3-ARM/arm/arm-none-eabi/include/c++/10.3.1/bits/allocator.h **** 	allocator(const allocator<_Tp1>&) _GLIBCXX_NOTHROW { }
 178:/Library/DaisyToolchain/0.1.3-ARM/arm/arm-none-eabi/include/c++/10.3.1/bits/allocator.h **** 
 179:/Library/DaisyToolchain/0.1.3-ARM/arm/arm-none-eabi/include/c++/10.3.1/bits/allocator.h **** #if __cpp_constexpr_dynamic_alloc
 180:/Library/DaisyToolchain/0.1.3-ARM/arm/arm-none-eabi/include/c++/10.3.1/bits/allocator.h ****       constexpr
 181:/Library/DaisyToolchain/0.1.3-ARM/arm/arm-none-eabi/include/c++/10.3.1/bits/allocator.h **** #endif
 182:/Library/DaisyToolchain/0.1.3-ARM/arm/arm-none-eabi/include/c++/10.3.1/bits/allocator.h ****       ~allocator() _GLIBCXX_NOTHROW { }
 3476              		.loc 11 182 7 view .LVU919
 3477              	.LBB961:
 3478              	.LBI961:
  89:/Library/DaisyToolchain/0.1.3-ARM/arm/arm-none-eabi/include/c++/10.3.1/ext/new_allocator.h **** 
 3479              		.loc 12 89 7 view .LVU920
  89:/Library/DaisyToolchain/0.1.3-ARM/arm/arm-none-eabi/include/c++/10.3.1/ext/new_allocator.h **** 
 3480              		.loc 12 89 7 is_stmt 0 view .LVU921
 3481              	.LBE961:
 3482              	.LBE960:
 3483              	.LBE959:
 3484              	.LBE953:
 3485              	.LBE950:
 3486              		.loc 1 656 28 view .LVU922
 3487 006a B7FA87F0 		clz	r0, r7
 3488 006e 4009     		lsrs	r0, r0, #5
 657:time_machine_hardware.cpp ****     }
 3489              		.loc 1 657 5 view .LVU923
 3490 0070 BDE8F081 		pop	{r4, r5, r6, r7, r8, pc}
 3491              	.LVL262:
 3492              	.L179:
 3493              		.loc 1 657 5 view .LVU924
 3494 0074 024A     		ldr	r2, .L185
 621:time_machine_hardware.cpp ****         }
 3495              		.loc 1 621 19 view .LVU925
 3496 0076 4FF48044 		mov	r4, #16384
 620:time_machine_hardware.cpp ****             size  = 0x4000;
 3497              		.loc 1 620 19 view .LVU926
 3498 007a 4FF48007 		mov	r7, #4194304
 3499 007e C6E7     		b	.L175
 3500              	.L186:
 3501              		.align	2
 3502              	.L185:
 3503 0080 00404000 		.word	4210688
 3504              		.cfi_endproc
 3505              	.LFE3188:
 3507              		.section	.text.startup._GLOBAL__sub_I__ZN3oam12time_machine19TimeMachineHardware2A1E,"ax",%progbit
 3508              		.align	1
 3509              		.p2align 2,,3
 3510              		.syntax unified
 3511              		.thumb
 3512              		.thumb_func
 3514              	_GLOBAL__sub_I__ZN3oam12time_machine19TimeMachineHardware2A1E:
 3515              	.LFB3305:
 658:time_machine_hardware.cpp **** 
 659:time_machine_hardware.cpp **** } // namespace patch_sm
 660:time_machine_hardware.cpp **** 
 661:time_machine_hardware.cpp **** } // namespace daisy...
 3516              		.loc 1 661 1 is_stmt 1 view -0
 3517              		.cfi_startproc
ARM GAS  /var/folders/xd/16jvbr6j24q9nvtpm0qtw3240000gn/T//cch9jPA2.s 			page 174


 3518              		@ args = 0, pretend = 0, frame = 0
 3519              		@ frame_needed = 0, uses_anonymous_args = 0
 3520              		@ link register save eliminated.
 3521              	.LVL263:
 3522              	.LBB962:
 3523              	.LBI962:
 3524              		.loc 1 661 1 view .LVU928
 3525              	.LBB963:
 3526              	.LBB964:
 3527              	.LBI964:
 120:time_machine_hardware.cpp ****         Impl()
 3528              		.loc 1 120 9 view .LVU929
 3529              	.LBB965:
 3530              	.LBB966:
 3531              	.LBB967:
 3532              	.LBI967:
 3533              		.file 17 "/Users/jonask/Music/Daisy/libDaisy/src/per/dac.h"
   1:/Users/jonask/Music/Daisy/libDaisy/src/per/dac.h **** #pragma once
   2:/Users/jonask/Music/Daisy/libDaisy/src/per/dac.h **** #ifndef DSY_DAC_H
   3:/Users/jonask/Music/Daisy/libDaisy/src/per/dac.h **** #define DSY_DAC_H
   4:/Users/jonask/Music/Daisy/libDaisy/src/per/dac.h **** #include "stm32h7xx_hal.h"
   5:/Users/jonask/Music/Daisy/libDaisy/src/per/dac.h **** #include "daisy_core.h"
   6:/Users/jonask/Music/Daisy/libDaisy/src/per/dac.h **** 
   7:/Users/jonask/Music/Daisy/libDaisy/src/per/dac.h **** namespace daisy
   8:/Users/jonask/Music/Daisy/libDaisy/src/per/dac.h **** {
   9:/Users/jonask/Music/Daisy/libDaisy/src/per/dac.h **** /** @brief DAC handle for Built-in DAC Peripheral 
  10:/Users/jonask/Music/Daisy/libDaisy/src/per/dac.h ****  *  @ingroup per_analog
  11:/Users/jonask/Music/Daisy/libDaisy/src/per/dac.h ****  ** 
  12:/Users/jonask/Music/Daisy/libDaisy/src/per/dac.h ****  ** For now only Normal Mode is supported,
  13:/Users/jonask/Music/Daisy/libDaisy/src/per/dac.h ****  ** Sample and hold mode provides reduced power consumption, but requires a bit more setup.
  14:/Users/jonask/Music/Daisy/libDaisy/src/per/dac.h ****  **
  15:/Users/jonask/Music/Daisy/libDaisy/src/per/dac.h ****  ** For now connecting the DAC through other internal peripherals is also not supported.
  16:/Users/jonask/Music/Daisy/libDaisy/src/per/dac.h ****  **
  17:/Users/jonask/Music/Daisy/libDaisy/src/per/dac.h ****  ** Since the DAC channels have dedicated pins we don't need to pass in a pin config like with
  18:/Users/jonask/Music/Daisy/libDaisy/src/per/dac.h ****  ** other modules. However, it is still important to not try to use the DAC pins for anything else.
  19:/Users/jonask/Music/Daisy/libDaisy/src/per/dac.h ****  ** DAC Channel 1 is on PA4, and DAC Channel 2 is on PA5
  20:/Users/jonask/Music/Daisy/libDaisy/src/per/dac.h ****  ***/
  21:/Users/jonask/Music/Daisy/libDaisy/src/per/dac.h **** class DacHandle
  22:/Users/jonask/Music/Daisy/libDaisy/src/per/dac.h **** {
  23:/Users/jonask/Music/Daisy/libDaisy/src/per/dac.h ****   public:
  24:/Users/jonask/Music/Daisy/libDaisy/src/per/dac.h ****     /** Return Values for the DacHandle class */
  25:/Users/jonask/Music/Daisy/libDaisy/src/per/dac.h ****     enum class Result
  26:/Users/jonask/Music/Daisy/libDaisy/src/per/dac.h ****     {
  27:/Users/jonask/Music/Daisy/libDaisy/src/per/dac.h ****         OK,
  28:/Users/jonask/Music/Daisy/libDaisy/src/per/dac.h ****         ERR,
  29:/Users/jonask/Music/Daisy/libDaisy/src/per/dac.h ****     };
  30:/Users/jonask/Music/Daisy/libDaisy/src/per/dac.h **** 
  31:/Users/jonask/Music/Daisy/libDaisy/src/per/dac.h ****     /** Selects which channel(s) will be configured for use. */
  32:/Users/jonask/Music/Daisy/libDaisy/src/per/dac.h ****     enum class Channel
  33:/Users/jonask/Music/Daisy/libDaisy/src/per/dac.h ****     {
  34:/Users/jonask/Music/Daisy/libDaisy/src/per/dac.h ****         ONE,
  35:/Users/jonask/Music/Daisy/libDaisy/src/per/dac.h ****         TWO,
  36:/Users/jonask/Music/Daisy/libDaisy/src/per/dac.h ****         BOTH,
  37:/Users/jonask/Music/Daisy/libDaisy/src/per/dac.h ****     };
  38:/Users/jonask/Music/Daisy/libDaisy/src/per/dac.h **** 
  39:/Users/jonask/Music/Daisy/libDaisy/src/per/dac.h ****     /** Sets the Mode for the DAC channels.
  40:/Users/jonask/Music/Daisy/libDaisy/src/per/dac.h ****      **
ARM GAS  /var/folders/xd/16jvbr6j24q9nvtpm0qtw3240000gn/T//cch9jPA2.s 			page 175


  41:/Users/jonask/Music/Daisy/libDaisy/src/per/dac.h ****      ** Polling mode uses the blocking mode to transmit a single value at a time.
  42:/Users/jonask/Music/Daisy/libDaisy/src/per/dac.h ****      **
  43:/Users/jonask/Music/Daisy/libDaisy/src/per/dac.h ****      ** DMA mode uses a buffer, and periodically transmits it triggering a 
  44:/Users/jonask/Music/Daisy/libDaisy/src/per/dac.h ****      ** callback to fill the buffer when it is ready for more samples.
  45:/Users/jonask/Music/Daisy/libDaisy/src/per/dac.h ****      ***/
  46:/Users/jonask/Music/Daisy/libDaisy/src/per/dac.h ****     enum class Mode
  47:/Users/jonask/Music/Daisy/libDaisy/src/per/dac.h ****     {
  48:/Users/jonask/Music/Daisy/libDaisy/src/per/dac.h ****         POLLING,
  49:/Users/jonask/Music/Daisy/libDaisy/src/per/dac.h ****         DMA,
  50:/Users/jonask/Music/Daisy/libDaisy/src/per/dac.h ****     };
  51:/Users/jonask/Music/Daisy/libDaisy/src/per/dac.h **** 
  52:/Users/jonask/Music/Daisy/libDaisy/src/per/dac.h ****     /** Sets the number of bits per sample transmitted out of the DAC.
  53:/Users/jonask/Music/Daisy/libDaisy/src/per/dac.h ****      ** The output range will be: 0V - VDDA
  54:/Users/jonask/Music/Daisy/libDaisy/src/per/dac.h ****      ** The resolution will be roughly: bitdepth / (VDDA - 0V) 
  55:/Users/jonask/Music/Daisy/libDaisy/src/per/dac.h ****      ***/
  56:/Users/jonask/Music/Daisy/libDaisy/src/per/dac.h ****     enum class BitDepth
  57:/Users/jonask/Music/Daisy/libDaisy/src/per/dac.h ****     {
  58:/Users/jonask/Music/Daisy/libDaisy/src/per/dac.h ****         BITS_8,
  59:/Users/jonask/Music/Daisy/libDaisy/src/per/dac.h ****         BITS_12
  60:/Users/jonask/Music/Daisy/libDaisy/src/per/dac.h ****     };
  61:/Users/jonask/Music/Daisy/libDaisy/src/per/dac.h **** 
  62:/Users/jonask/Music/Daisy/libDaisy/src/per/dac.h ****     /** Sets whether the DAC output is buffered for higher drive ability. */
  63:/Users/jonask/Music/Daisy/libDaisy/src/per/dac.h ****     enum class BufferState
  64:/Users/jonask/Music/Daisy/libDaisy/src/per/dac.h ****     {
  65:/Users/jonask/Music/Daisy/libDaisy/src/per/dac.h ****         ENABLED,
  66:/Users/jonask/Music/Daisy/libDaisy/src/per/dac.h ****         DISABLED,
  67:/Users/jonask/Music/Daisy/libDaisy/src/per/dac.h ****     };
  68:/Users/jonask/Music/Daisy/libDaisy/src/per/dac.h **** 
  69:/Users/jonask/Music/Daisy/libDaisy/src/per/dac.h ****     /** Configuration structure for initializing the DAC structure. */
  70:/Users/jonask/Music/Daisy/libDaisy/src/per/dac.h ****     struct Config
  71:/Users/jonask/Music/Daisy/libDaisy/src/per/dac.h ****     {
  72:/Users/jonask/Music/Daisy/libDaisy/src/per/dac.h ****         /** Target Samplerate in Hz used to configure the internal 
  73:/Users/jonask/Music/Daisy/libDaisy/src/per/dac.h ****          ** timebase for DMA mode. Does nothing in POLLING mode.
  74:/Users/jonask/Music/Daisy/libDaisy/src/per/dac.h ****          ** If the value is 0 at Init time this will default to 48000Hz 
  75:/Users/jonask/Music/Daisy/libDaisy/src/per/dac.h ****          ** otherwise the driver will attempt meet the target.*/
  76:/Users/jonask/Music/Daisy/libDaisy/src/per/dac.h ****         uint32_t target_samplerate;
  77:/Users/jonask/Music/Daisy/libDaisy/src/per/dac.h **** 
  78:/Users/jonask/Music/Daisy/libDaisy/src/per/dac.h ****         Channel     chn;
  79:/Users/jonask/Music/Daisy/libDaisy/src/per/dac.h ****         Mode        mode;
  80:/Users/jonask/Music/Daisy/libDaisy/src/per/dac.h ****         BitDepth    bitdepth;
  81:/Users/jonask/Music/Daisy/libDaisy/src/per/dac.h ****         BufferState buff_state;
  82:/Users/jonask/Music/Daisy/libDaisy/src/per/dac.h ****     };
  83:/Users/jonask/Music/Daisy/libDaisy/src/per/dac.h **** 
  84:/Users/jonask/Music/Daisy/libDaisy/src/per/dac.h ****     DacHandle() : pimpl_(nullptr) {}
 3534              		.loc 17 84 5 view .LVU930
 3535              		.loc 17 84 5 is_stmt 0 view .LVU931
 3536              	.LBE967:
 122:time_machine_hardware.cpp ****             dac_running_            = false;
 3537              		.loc 1 122 13 is_stmt 1 view .LVU932
 123:time_machine_hardware.cpp ****             dac_buffer_size_        = 48;
 3538              		.loc 1 123 13 view .LVU933
 124:time_machine_hardware.cpp ****             dac_output_[0]          = 0;
 3539              		.loc 1 124 13 view .LVU934
 125:time_machine_hardware.cpp ****             dac_output_[1]          = 0;
 3540              		.loc 1 125 13 view .LVU935
 126:time_machine_hardware.cpp ****             internal_dac_buffer_[0] = dsy_patch_sm_dac_buffer[0];
 3541              		.loc 1 126 37 is_stmt 0 view .LVU936
ARM GAS  /var/folders/xd/16jvbr6j24q9nvtpm0qtw3240000gn/T//cch9jPA2.s 			page 176


 3542 0000 0749     		ldr	r1, .L189
 3543              	.LBE966:
 121:time_machine_hardware.cpp ****         {
 3544              		.loc 1 121 9 view .LVU937
 3545 0002 0022     		movs	r2, #0
 3546              	.LBB971:
 123:time_machine_hardware.cpp ****             dac_buffer_size_        = 48;
 3547              		.loc 1 123 37 view .LVU938
 3548 0004 074B     		ldr	r3, .L189+4
 127:time_machine_hardware.cpp ****             internal_dac_buffer_[1] = dsy_patch_sm_dac_buffer[1];
 3549              		.loc 1 127 37 view .LVU939
 3550 0006 01F16000 		add	r0, r1, #96
 3551              	.LBE971:
 3552              	.LBE965:
 3553              	.LBE964:
 3554              	.LBE963:
 3555              	.LBE962:
 3556              		.loc 1 661 1 view .LVU940
 3557 000a 10B4     		push	{r4}
 3558              		.cfi_def_cfa_offset 4
 3559              		.cfi_offset 4, -4
 3560              	.LBB976:
 3561              	.LBB975:
 3562              	.LBB974:
 3563              	.LBB973:
 3564              	.LBB972:
 123:time_machine_hardware.cpp ****             dac_buffer_size_        = 48;
 3565              		.loc 1 123 37 view .LVU941
 3566 000c 3024     		movs	r4, #48
 122:time_machine_hardware.cpp ****             dac_running_            = false;
 3567              		.loc 1 122 37 view .LVU942
 3568 000e 1A75     		strb	r2, [r3, #20]
 126:time_machine_hardware.cpp ****             internal_dac_buffer_[0] = dsy_patch_sm_dac_buffer[0];
 3569              		.loc 1 126 13 is_stmt 1 view .LVU943
 127:time_machine_hardware.cpp ****             internal_dac_buffer_[1] = dsy_patch_sm_dac_buffer[1];
 3570              		.loc 1 127 13 view .LVU944
 127:time_machine_hardware.cpp ****             internal_dac_buffer_[1] = dsy_patch_sm_dac_buffer[1];
 3571              		.loc 1 127 37 is_stmt 0 view .LVU945
 3572 0010 9860     		str	r0, [r3, #8]
 3573              	.LVL264:
 123:time_machine_hardware.cpp ****             dac_buffer_size_        = 48;
 3574              		.loc 1 123 37 view .LVU946
 3575 0012 C3E90041 		strd	r4, r1, [r3]
 3576              	.LBB970:
 3577              	.LBB968:
 3578              	.LBB969:
 3579              		.loc 17 84 33 view .LVU947
 3580 0016 C3E90322 		strd	r2, r2, [r3, #12]
 3581              	.LBE969:
 3582              	.LBE968:
 3583              	.LBE970:
 3584              	.LBE972:
 3585              	.LBE973:
 3586              	.LBE974:
 3587              	.LBE975:
 3588              	.LBE976:
 3589              		.loc 1 661 1 view .LVU948
ARM GAS  /var/folders/xd/16jvbr6j24q9nvtpm0qtw3240000gn/T//cch9jPA2.s 			page 177


 3590 001a 5DF8044B 		ldr	r4, [sp], #4
 3591              		.cfi_restore 4
 3592              		.cfi_def_cfa_offset 0
 3593 001e 7047     		bx	lr
 3594              	.L190:
 3595              		.align	2
 3596              	.L189:
 3597 0020 00000000 		.word	.LANCHOR6
 3598 0024 00000000 		.word	.LANCHOR0
 3599              		.cfi_endproc
 3600              	.LFE3305:
 3602              		.section	.init_array,"aw",%init_array
 3603              		.align	2
 3604 0000 00000000 		.word	_GLOBAL__sub_I__ZN3oam12time_machine19TimeMachineHardware2A1E(target1)
 3605              		.global	_ZN3oam12time_machine23dsy_patch_sm_dac_bufferE
 3606              		.global	_ZN3oam12time_machine19TimeMachineHardware3D10E
 3607              		.global	_ZN3oam12time_machine19TimeMachineHardware2D9E
 3608              		.global	_ZN3oam12time_machine19TimeMachineHardware2D8E
 3609              		.global	_ZN3oam12time_machine19TimeMachineHardware2D7E
 3610              		.global	_ZN3oam12time_machine19TimeMachineHardware2D6E
 3611              		.global	_ZN3oam12time_machine19TimeMachineHardware2D5E
 3612              		.global	_ZN3oam12time_machine19TimeMachineHardware2D4E
 3613              		.global	_ZN3oam12time_machine19TimeMachineHardware2D3E
 3614              		.global	_ZN3oam12time_machine19TimeMachineHardware2D2E
 3615              		.global	_ZN3oam12time_machine19TimeMachineHardware2D1E
 3616              		.global	_ZN3oam12time_machine19TimeMachineHardware3C10E
 3617              		.global	_ZN3oam12time_machine19TimeMachineHardware2C9E
 3618              		.global	_ZN3oam12time_machine19TimeMachineHardware2C8E
 3619              		.global	_ZN3oam12time_machine19TimeMachineHardware2C7E
 3620              		.global	_ZN3oam12time_machine19TimeMachineHardware2C6E
 3621              		.global	_ZN3oam12time_machine19TimeMachineHardware2C5E
 3622              		.global	_ZN3oam12time_machine19TimeMachineHardware2C4E
 3623              		.global	_ZN3oam12time_machine19TimeMachineHardware2C3E
 3624              		.global	_ZN3oam12time_machine19TimeMachineHardware2C2E
 3625              		.global	_ZN3oam12time_machine19TimeMachineHardware2C1E
 3626              		.global	_ZN3oam12time_machine19TimeMachineHardware3B10E
 3627              		.global	_ZN3oam12time_machine19TimeMachineHardware2B9E
 3628              		.global	_ZN3oam12time_machine19TimeMachineHardware2B8E
 3629              		.global	_ZN3oam12time_machine19TimeMachineHardware2B7E
 3630              		.global	_ZN3oam12time_machine19TimeMachineHardware2B6E
 3631              		.global	_ZN3oam12time_machine19TimeMachineHardware2B5E
 3632              		.global	_ZN3oam12time_machine19TimeMachineHardware2B4E
 3633              		.global	_ZN3oam12time_machine19TimeMachineHardware2B3E
 3634              		.global	_ZN3oam12time_machine19TimeMachineHardware2B2E
 3635              		.global	_ZN3oam12time_machine19TimeMachineHardware2B1E
 3636              		.global	_ZN3oam12time_machine19TimeMachineHardware3A10E
 3637              		.global	_ZN3oam12time_machine19TimeMachineHardware2A9E
 3638              		.global	_ZN3oam12time_machine19TimeMachineHardware2A8E
 3639              		.global	_ZN3oam12time_machine19TimeMachineHardware2A7E
 3640              		.global	_ZN3oam12time_machine19TimeMachineHardware2A6E
 3641              		.global	_ZN3oam12time_machine19TimeMachineHardware2A5E
 3642              		.global	_ZN3oam12time_machine19TimeMachineHardware2A4E
 3643              		.global	_ZN3oam12time_machine19TimeMachineHardware2A3E
 3644              		.global	_ZN3oam12time_machine19TimeMachineHardware2A2E
 3645              		.global	_ZN3oam12time_machine19TimeMachineHardware2A1E
 3646              		.section	.rodata
 3647              		.align	2
ARM GAS  /var/folders/xd/16jvbr6j24q9nvtpm0qtw3240000gn/T//cch9jPA2.s 			page 178


 3648              		.set	.LANCHOR1,. + 0
 3649              	.LC0:
 3650 0000 30000000 		.word	48
 3651 0004 03000000 		.word	3
 3652 0008 0000803F 		.word	1065353216
 3653 000c 0000803F 		.word	1065353216
 3654              	.LC1:
 3655 0010 00       		.byte	0
 3656 0011 03       		.byte	3
 3657 0012 00       		.byte	0
 3658 0013 06       		.byte	6
 3659 0014 00       		.byte	0
 3660 0015 02       		.byte	2
 3661 0016 00       		.byte	0
 3662 0017 07       		.byte	7
 3663 0018 02       		.byte	2
 3664 0019 01       		.byte	1
 3665 001a 02       		.byte	2
 3666 001b 00       		.byte	0
 3667 001c 01       		.byte	1
 3668 001d 01       		.byte	1
 3669 001e 02       		.byte	2
 3670 001f 04       		.byte	4
 3671 0020 00       		.byte	0
 3672 0021 01       		.byte	1
 3673 0022 00       		.byte	0
 3674 0023 00       		.byte	0
 3675 0024 02       		.byte	2
 3676 0025 03       		.byte	3
 3677 0026 02       		.byte	2
 3678 0027 02       		.byte	2
 3679              	.LC2:
 3680 0028 05000000 		.word	5
 3681 002c 07000000 		.word	7
 3682 0030 06000000 		.word	6
 3683 0034 04000000 		.word	4
 3684 0038 03000000 		.word	3
 3685 003c 00000000 		.word	0
 3686 0040 01000000 		.word	1
 3687 0044 02000000 		.word	2
 3688              	.LC3:
 3689 0048 03000000 		.word	3
 3690 004c 02000000 		.word	2
 3691 0050 01000000 		.word	1
 3692 0054 00000000 		.word	0
 3693 0058 04000000 		.word	4
 3694 005c 05000000 		.word	5
 3695 0060 06000000 		.word	6
 3696 0064 07000000 		.word	7
 3697              	.LC4:
 3698 0068 05000000 		.word	5
 3699 006c 07000000 		.word	7
 3700 0070 06000000 		.word	6
 3701 0074 04000000 		.word	4
 3702 0078 01000000 		.word	1
 3703 007c 02000000 		.word	2
 3704 0080 00000000 		.word	0
ARM GAS  /var/folders/xd/16jvbr6j24q9nvtpm0qtw3240000gn/T//cch9jPA2.s 			page 179


 3705 0084 03000000 		.word	3
 3706              		.section	.bss._ZN3oam12time_machineL11patch_sm_hwE,"aw",%nobits
 3707              		.align	2
 3708              		.set	.LANCHOR0,. + 0
 3711              	_ZN3oam12time_machineL11patch_sm_hwE:
 3712 0000 00000000 		.space	24
 3712      00000000 
 3712      00000000 
 3712      00000000 
 3712      00000000 
 3713              		.section	.rodata._ZN3oam12time_machine19TimeMachineHardware2A1E,"a"
 3714              		.align	2
 3717              	_ZN3oam12time_machine19TimeMachineHardware2A1E:
 3718 0000 0B       		.byte	11
 3719 0001 00       		.byte	0
 3720              		.section	.rodata._ZN3oam12time_machine19TimeMachineHardware2A2E,"a"
 3721              		.align	2
 3724              	_ZN3oam12time_machine19TimeMachineHardware2A2E:
 3725 0000 00       		.byte	0
 3726 0001 01       		.byte	1
 3727              		.section	.rodata._ZN3oam12time_machine19TimeMachineHardware2A3E,"a"
 3728              		.align	2
 3731              	_ZN3oam12time_machine19TimeMachineHardware2A3E:
 3732 0000 0000     		.space	2
 3733              		.section	.rodata._ZN3oam12time_machine19TimeMachineHardware2A4E,"a"
 3734              		.align	2
 3737              	_ZN3oam12time_machine19TimeMachineHardware2A4E:
 3738 0000 0B       		.byte	11
 3739 0001 00       		.byte	0
 3740              		.section	.rodata._ZN3oam12time_machine19TimeMachineHardware2A5E,"a"
 3741              		.align	2
 3744              	_ZN3oam12time_machine19TimeMachineHardware2A5E:
 3745 0000 0B       		.byte	11
 3746 0001 00       		.byte	0
 3747              		.section	.rodata._ZN3oam12time_machine19TimeMachineHardware2A6E,"a"
 3748              		.align	2
 3751              	_ZN3oam12time_machine19TimeMachineHardware2A6E:
 3752 0000 0B       		.byte	11
 3753 0001 00       		.byte	0
 3754              		.section	.rodata._ZN3oam12time_machine19TimeMachineHardware2A7E,"a"
 3755              		.align	2
 3758              	_ZN3oam12time_machine19TimeMachineHardware2A7E:
 3759 0000 0B       		.byte	11
 3760 0001 00       		.byte	0
 3761              		.section	.rodata._ZN3oam12time_machine19TimeMachineHardware2A8E,"a"
 3762              		.align	2
 3765              	_ZN3oam12time_machine19TimeMachineHardware2A8E:
 3766 0000 01       		.byte	1
 3767 0001 0E       		.byte	14
 3768              		.section	.rodata._ZN3oam12time_machine19TimeMachineHardware2A9E,"a"
 3769              		.align	2
 3772              	_ZN3oam12time_machine19TimeMachineHardware2A9E:
 3773 0000 01       		.byte	1
 3774 0001 0F       		.byte	15
 3775              		.section	.rodata._ZN3oam12time_machine19TimeMachineHardware2B1E,"a"
 3776              		.align	2
 3779              	_ZN3oam12time_machine19TimeMachineHardware2B1E:
ARM GAS  /var/folders/xd/16jvbr6j24q9nvtpm0qtw3240000gn/T//cch9jPA2.s 			page 180


 3780 0000 0B       		.byte	11
 3781 0001 00       		.byte	0
 3782              		.section	.rodata._ZN3oam12time_machine19TimeMachineHardware2B2E,"a"
 3783              		.align	2
 3786              	_ZN3oam12time_machine19TimeMachineHardware2B2E:
 3787 0000 0B       		.byte	11
 3788 0001 00       		.byte	0
 3789              		.section	.rodata._ZN3oam12time_machine19TimeMachineHardware2B3E,"a"
 3790              		.align	2
 3793              	_ZN3oam12time_machine19TimeMachineHardware2B3E:
 3794 0000 0B       		.byte	11
 3795 0001 00       		.byte	0
 3796              		.section	.rodata._ZN3oam12time_machine19TimeMachineHardware2B4E,"a"
 3797              		.align	2
 3800              	_ZN3oam12time_machine19TimeMachineHardware2B4E:
 3801 0000 0B       		.byte	11
 3802 0001 00       		.byte	0
 3803              		.section	.rodata._ZN3oam12time_machine19TimeMachineHardware2B5E,"a"
 3804              		.align	2
 3807              	_ZN3oam12time_machine19TimeMachineHardware2B5E:
 3808 0000 02       		.byte	2
 3809 0001 0E       		.byte	14
 3810              		.section	.rodata._ZN3oam12time_machine19TimeMachineHardware2B6E,"a"
 3811              		.align	2
 3814              	_ZN3oam12time_machine19TimeMachineHardware2B6E:
 3815 0000 02       		.byte	2
 3816 0001 0D       		.byte	13
 3817              		.section	.rodata._ZN3oam12time_machine19TimeMachineHardware2B7E,"a"
 3818              		.align	2
 3821              	_ZN3oam12time_machine19TimeMachineHardware2B7E:
 3822 0000 01       		.byte	1
 3823 0001 08       		.byte	8
 3824              		.section	.rodata._ZN3oam12time_machine19TimeMachineHardware2B8E,"a"
 3825              		.align	2
 3828              	_ZN3oam12time_machine19TimeMachineHardware2B8E:
 3829 0000 01       		.byte	1
 3830 0001 09       		.byte	9
 3831              		.section	.rodata._ZN3oam12time_machine19TimeMachineHardware2B9E,"a"
 3832              		.align	2
 3833              		.set	.LANCHOR4,. + 0
 3836              	_ZN3oam12time_machine19TimeMachineHardware2B9E:
 3837 0000 06       		.byte	6
 3838 0001 0E       		.byte	14
 3839              		.section	.rodata._ZN3oam12time_machine19TimeMachineHardware2C1E,"a"
 3840              		.align	2
 3843              	_ZN3oam12time_machine19TimeMachineHardware2C1E:
 3844 0000 00       		.byte	0
 3845 0001 05       		.byte	5
 3846              		.section	.rodata._ZN3oam12time_machine19TimeMachineHardware2C2E,"a"
 3847              		.align	2
 3850              	_ZN3oam12time_machine19TimeMachineHardware2C2E:
 3851 0000 00       		.byte	0
 3852 0001 07       		.byte	7
 3853              		.section	.rodata._ZN3oam12time_machine19TimeMachineHardware2C3E,"a"
 3854              		.align	2
 3857              	_ZN3oam12time_machine19TimeMachineHardware2C3E:
 3858 0000 00       		.byte	0
ARM GAS  /var/folders/xd/16jvbr6j24q9nvtpm0qtw3240000gn/T//cch9jPA2.s 			page 181


 3859 0001 02       		.byte	2
 3860              		.section	.rodata._ZN3oam12time_machine19TimeMachineHardware2C4E,"a"
 3861              		.align	2
 3864              	_ZN3oam12time_machine19TimeMachineHardware2C4E:
 3865 0000 00       		.byte	0
 3866 0001 06       		.byte	6
 3867              		.section	.rodata._ZN3oam12time_machine19TimeMachineHardware2C5E,"a"
 3868              		.align	2
 3871              	_ZN3oam12time_machine19TimeMachineHardware2C5E:
 3872 0000 00       		.byte	0
 3873 0001 03       		.byte	3
 3874              		.section	.rodata._ZN3oam12time_machine19TimeMachineHardware2C6E,"a"
 3875              		.align	2
 3878              	_ZN3oam12time_machine19TimeMachineHardware2C6E:
 3879 0000 01       		.byte	1
 3880 0001 01       		.byte	1
 3881              		.section	.rodata._ZN3oam12time_machine19TimeMachineHardware2C7E,"a"
 3882              		.align	2
 3885              	_ZN3oam12time_machine19TimeMachineHardware2C7E:
 3886 0000 02       		.byte	2
 3887 0001 04       		.byte	4
 3888              		.section	.rodata._ZN3oam12time_machine19TimeMachineHardware2C8E,"a"
 3889              		.align	2
 3892              	_ZN3oam12time_machine19TimeMachineHardware2C8E:
 3893 0000 02       		.byte	2
 3894 0001 00       		.byte	0
 3895              		.section	.rodata._ZN3oam12time_machine19TimeMachineHardware2C9E,"a"
 3896              		.align	2
 3899              	_ZN3oam12time_machine19TimeMachineHardware2C9E:
 3900 0000 02       		.byte	2
 3901 0001 01       		.byte	1
 3902              		.section	.rodata._ZN3oam12time_machine19TimeMachineHardware2D1E,"a"
 3903              		.align	2
 3906              	_ZN3oam12time_machine19TimeMachineHardware2D1E:
 3907 0000 01       		.byte	1
 3908 0001 04       		.byte	4
 3909              		.section	.rodata._ZN3oam12time_machine19TimeMachineHardware2D2E,"a"
 3910              		.align	2
 3913              	_ZN3oam12time_machine19TimeMachineHardware2D2E:
 3914 0000 02       		.byte	2
 3915 0001 0B       		.byte	11
 3916              		.section	.rodata._ZN3oam12time_machine19TimeMachineHardware2D3E,"a"
 3917              		.align	2
 3920              	_ZN3oam12time_machine19TimeMachineHardware2D3E:
 3921 0000 02       		.byte	2
 3922 0001 0A       		.byte	10
 3923              		.section	.rodata._ZN3oam12time_machine19TimeMachineHardware2D4E,"a"
 3924              		.align	2
 3927              	_ZN3oam12time_machine19TimeMachineHardware2D4E:
 3928 0000 02       		.byte	2
 3929 0001 09       		.byte	9
 3930              		.section	.rodata._ZN3oam12time_machine19TimeMachineHardware2D5E,"a"
 3931              		.align	2
 3934              	_ZN3oam12time_machine19TimeMachineHardware2D5E:
 3935 0000 02       		.byte	2
 3936 0001 08       		.byte	8
 3937              		.section	.rodata._ZN3oam12time_machine19TimeMachineHardware2D6E,"a"
ARM GAS  /var/folders/xd/16jvbr6j24q9nvtpm0qtw3240000gn/T//cch9jPA2.s 			page 182


 3938              		.align	2
 3941              	_ZN3oam12time_machine19TimeMachineHardware2D6E:
 3942 0000 02       		.byte	2
 3943 0001 0C       		.byte	12
 3944              		.section	.rodata._ZN3oam12time_machine19TimeMachineHardware2D7E,"a"
 3945              		.align	2
 3948              	_ZN3oam12time_machine19TimeMachineHardware2D7E:
 3949 0000 03       		.byte	3
 3950 0001 02       		.byte	2
 3951              		.section	.rodata._ZN3oam12time_machine19TimeMachineHardware2D8E,"a"
 3952              		.align	2
 3955              	_ZN3oam12time_machine19TimeMachineHardware2D8E:
 3956 0000 02       		.byte	2
 3957 0001 02       		.byte	2
 3958              		.section	.rodata._ZN3oam12time_machine19TimeMachineHardware2D9E,"a"
 3959              		.align	2
 3962              	_ZN3oam12time_machine19TimeMachineHardware2D9E:
 3963 0000 02       		.byte	2
 3964 0001 03       		.byte	3
 3965              		.section	.rodata._ZN3oam12time_machine19TimeMachineHardware3A10E,"a"
 3966              		.align	2
 3969              	_ZN3oam12time_machine19TimeMachineHardware3A10E:
 3970 0000 0B       		.byte	11
 3971 0001 00       		.byte	0
 3972              		.section	.rodata._ZN3oam12time_machine19TimeMachineHardware3B10E,"a"
 3973              		.align	2
 3974              		.set	.LANCHOR3,. + 0
 3977              	_ZN3oam12time_machine19TimeMachineHardware3B10E:
 3978 0000 06       		.byte	6
 3979 0001 0D       		.byte	13
 3980              		.section	.rodata._ZN3oam12time_machine19TimeMachineHardware3C10E,"a"
 3981              		.align	2
 3984              	_ZN3oam12time_machine19TimeMachineHardware3C10E:
 3985 0000 00       		.byte	0
 3986 0001 04       		.byte	4
 3987              		.section	.rodata._ZN3oam12time_machine19TimeMachineHardware3D10E,"a"
 3988              		.align	2
 3991              	_ZN3oam12time_machine19TimeMachineHardware3D10E:
 3992 0000 03       		.byte	3
 3993 0001 03       		.byte	3
 3994              		.section	.rodata._ZN3oam12time_machineL12PIN_USER_LEDE,"a"
 3995              		.align	2
 3996              		.set	.LANCHOR2,. + 0
 3999              	_ZN3oam12time_machineL12PIN_USER_LEDE:
 4000 0000 02       		.byte	2
 4001 0001 07       		.byte	7
 4002              		.section	.rodata._ZN3oam12time_machineL7kPinMapE,"a"
 4003              		.align	2
 4004              		.set	.LANCHOR5,. + 0
 4007              	_ZN3oam12time_machineL7kPinMapE:
 4008 0000 0B       		.byte	11
 4009 0001 00       		.byte	0
 4010 0002 00       		.byte	0
 4011 0003 01       		.byte	1
 4012 0004 00       		.byte	0
 4013 0005 00       		.byte	0
 4014 0006 0B       		.byte	11
ARM GAS  /var/folders/xd/16jvbr6j24q9nvtpm0qtw3240000gn/T//cch9jPA2.s 			page 183


 4015 0007 00       		.byte	0
 4016 0008 0B       		.byte	11
 4017 0009 00       		.byte	0
 4018 000a 0B       		.byte	11
 4019 000b 00       		.byte	0
 4020 000c 0B       		.byte	11
 4021 000d 00       		.byte	0
 4022 000e 01       		.byte	1
 4023 000f 0E       		.byte	14
 4024 0010 01       		.byte	1
 4025 0011 0F       		.byte	15
 4026 0012 0B       		.byte	11
 4027 0013 00       		.byte	0
 4028 0014 0B       		.byte	11
 4029 0015 00       		.byte	0
 4030 0016 0B       		.byte	11
 4031 0017 00       		.byte	0
 4032 0018 0B       		.byte	11
 4033 0019 00       		.byte	0
 4034 001a 0B       		.byte	11
 4035 001b 00       		.byte	0
 4036 001c 02       		.byte	2
 4037 001d 0E       		.byte	14
 4038 001e 02       		.byte	2
 4039 001f 0D       		.byte	13
 4040 0020 01       		.byte	1
 4041 0021 08       		.byte	8
 4042 0022 01       		.byte	1
 4043 0023 09       		.byte	9
 4044 0024 06       		.byte	6
 4045 0025 0E       		.byte	14
 4046 0026 06       		.byte	6
 4047 0027 0D       		.byte	13
 4048 0028 00       		.byte	0
 4049 0029 05       		.byte	5
 4050 002a 00       		.byte	0
 4051 002b 07       		.byte	7
 4052 002c 00       		.byte	0
 4053 002d 02       		.byte	2
 4054 002e 00       		.byte	0
 4055 002f 06       		.byte	6
 4056 0030 00       		.byte	0
 4057 0031 03       		.byte	3
 4058 0032 01       		.byte	1
 4059 0033 01       		.byte	1
 4060 0034 02       		.byte	2
 4061 0035 04       		.byte	4
 4062 0036 02       		.byte	2
 4063 0037 00       		.byte	0
 4064 0038 02       		.byte	2
 4065 0039 01       		.byte	1
 4066 003a 00       		.byte	0
 4067 003b 04       		.byte	4
 4068 003c 01       		.byte	1
 4069 003d 04       		.byte	4
 4070 003e 02       		.byte	2
 4071 003f 0B       		.byte	11
ARM GAS  /var/folders/xd/16jvbr6j24q9nvtpm0qtw3240000gn/T//cch9jPA2.s 			page 184


 4072 0040 02       		.byte	2
 4073 0041 0A       		.byte	10
 4074 0042 02       		.byte	2
 4075 0043 09       		.byte	9
 4076 0044 02       		.byte	2
 4077 0045 08       		.byte	8
 4078 0046 02       		.byte	2
 4079 0047 0C       		.byte	12
 4080 0048 03       		.byte	3
 4081 0049 02       		.byte	2
 4082 004a 02       		.byte	2
 4083 004b 02       		.byte	2
 4084 004c 02       		.byte	2
 4085 004d 03       		.byte	3
 4086 004e 03       		.byte	3
 4087 004f 03       		.byte	3
 4088              		.section	.sram1_bss,"aw"
 4089              		.align	2
 4090              		.set	.LANCHOR6,. + 0
 4093              	_ZN3oam12time_machine23dsy_patch_sm_dac_bufferE:
 4094 0000 00000000 		.space	192
 4094      00000000 
 4094      00000000 
 4094      00000000 
 4094      00000000 
 4095              		.text
 4096              	.Letext0:
 4097              		.file 18 "/Library/DaisyToolchain/0.1.3-ARM/arm/arm-none-eabi/include/machine/_default_types.h"
 4098              		.file 19 "/Library/DaisyToolchain/0.1.3-ARM/arm/arm-none-eabi/include/sys/_stdint.h"
 4099              		.file 20 "/Library/DaisyToolchain/0.1.3-ARM/arm/arm-none-eabi/include/stdint.h"
 4100              		.file 21 "/Library/DaisyToolchain/0.1.3-ARM/arm/lib/gcc/arm-none-eabi/10.3.1/include/stddef.h"
 4101              		.file 22 "/Library/DaisyToolchain/0.1.3-ARM/arm/arm-none-eabi/include/c++/10.3.1/cmath"
 4102              		.file 23 "/Library/DaisyToolchain/0.1.3-ARM/arm/arm-none-eabi/include/c++/10.3.1/bits/std_abs.h"
 4103              		.file 24 "/Library/DaisyToolchain/0.1.3-ARM/arm/arm-none-eabi/include/c++/10.3.1/cstdlib"
 4104              		.file 25 "/Library/DaisyToolchain/0.1.3-ARM/arm/arm-none-eabi/include/c++/10.3.1/cstdint"
 4105              		.file 26 "/Library/DaisyToolchain/0.1.3-ARM/arm/arm-none-eabi/include/c++/10.3.1/type_traits"
 4106              		.file 27 "/Library/DaisyToolchain/0.1.3-ARM/arm/arm-none-eabi/include/c++/10.3.1/arm-none-eabi/thu
 4107              		.file 28 "/Library/DaisyToolchain/0.1.3-ARM/arm/arm-none-eabi/include/c++/10.3.1/bits/stl_pair.h"
 4108              		.file 29 "/Library/DaisyToolchain/0.1.3-ARM/arm/arm-none-eabi/include/c++/10.3.1/bits/stl_iterator
 4109              		.file 30 "/Library/DaisyToolchain/0.1.3-ARM/arm/arm-none-eabi/include/c++/10.3.1/debug/debug.h"
 4110              		.file 31 "/Library/DaisyToolchain/0.1.3-ARM/arm/arm-none-eabi/include/c++/10.3.1/bits/algorithmfwd
 4111              		.file 32 "/Library/DaisyToolchain/0.1.3-ARM/arm/arm-none-eabi/include/c++/10.3.1/bits/exception_pt
 4112              		.file 33 "/Library/DaisyToolchain/0.1.3-ARM/arm/arm-none-eabi/include/c++/10.3.1/bits/stl_construc
 4113              		.file 34 "/Library/DaisyToolchain/0.1.3-ARM/arm/arm-none-eabi/include/c++/10.3.1/cstdarg"
 4114              		.file 35 "/Library/DaisyToolchain/0.1.3-ARM/arm/arm-none-eabi/include/c++/10.3.1/cstdio"
 4115              		.file 36 "/Library/DaisyToolchain/0.1.3-ARM/arm/arm-none-eabi/include/c++/10.3.1/cstring"
 4116              		.file 37 "/Library/DaisyToolchain/0.1.3-ARM/arm/arm-none-eabi/include/c++/10.3.1/bits/predefined_o
 4117              		.file 38 "/Library/DaisyToolchain/0.1.3-ARM/arm/arm-none-eabi/include/c++/10.3.1/ext/alloc_traits.
 4118              		.file 39 "/Library/DaisyToolchain/0.1.3-ARM/arm/arm-none-eabi/include/sys/_types.h"
 4119              		.file 40 "/Library/DaisyToolchain/0.1.3-ARM/arm/arm-none-eabi/include/sys/reent.h"
 4120              		.file 41 "/Library/DaisyToolchain/0.1.3-ARM/arm/arm-none-eabi/include/sys/lock.h"
 4121              		.file 42 "/Library/DaisyToolchain/0.1.3-ARM/arm/arm-none-eabi/include/math.h"
 4122              		.file 43 "/Library/DaisyToolchain/0.1.3-ARM/arm/arm-none-eabi/include/stdlib.h"
 4123              		.file 44 "/Library/DaisyToolchain/0.1.3-ARM/arm/arm-none-eabi/include/c++/10.3.1/math.h"
 4124              		.file 45 "/Library/DaisyToolchain/0.1.3-ARM/arm/arm-none-eabi/include/c++/10.3.1/stdlib.h"
 4125              		.file 46 "/Users/jonask/Music/Daisy/libDaisy/src/per/tim.h"
 4126              		.file 47 "/Users/jonask/Music/Daisy/libDaisy/src/hid/audio.h"
ARM GAS  /var/folders/xd/16jvbr6j24q9nvtpm0qtw3240000gn/T//cch9jPA2.s 			page 185


 4127              		.file 48 "/Users/jonask/Music/Daisy/libDaisy/src/hid/usb.h"
 4128              		.file 49 "/Users/jonask/Music/Daisy/libDaisy/src/hid/gatein.h"
 4129              		.file 50 "/Users/jonask/Music/Daisy/libDaisy/src/util/wav_format.h"
 4130              		.file 51 "/Users/jonask/Music/Daisy/libDaisy/src/dev/sr_595.h"
 4131              		.file 52 "/Users/jonask/Music/Daisy/libDaisy/src/dev/codec_pcm3060.h"
 4132              		.file 53 "/Users/jonask/Music/Daisy/libDaisy/src/dev/max11300.h"
 4133              		.file 54 "/Users/jonask/Music/Daisy/libDaisy/src/dev/sdram.h"
 4134              		.file 55 "/Library/DaisyToolchain/0.1.3-ARM/arm/lib/gcc/arm-none-eabi/10.3.1/include/stdarg.h"
 4135              		.file 56 "/Library/DaisyToolchain/0.1.3-ARM/arm/arm-none-eabi/include/stdio.h"
 4136              		.file 57 "/Library/DaisyToolchain/0.1.3-ARM/arm/arm-none-eabi/include/string.h"
 4137              		.file 58 "time_machine_hardware.h"
 4138              		.file 59 "/Users/jonask/Music/Daisy/libDaisy/src/daisy_patch_sm.h"
 4139              		.file 60 "/Library/DaisyToolchain/0.1.3-ARM/arm/arm-none-eabi/include/c++/10.3.1/new"
 4140              		.file 61 "<built-in>"
ARM GAS  /var/folders/xd/16jvbr6j24q9nvtpm0qtw3240000gn/T//cch9jPA2.s 			page 186


DEFINED SYMBOLS
                            *ABS*:0000000000000000 time_machine_hardware.cpp
/var/folders/xd/16jvbr6j24q9nvtpm0qtw3240000gn/T//cch9jPA2.s:19     .text._ZN3oam12time_machine19TimeMachineHardware4Impl19InternalDacCallbackEPPtj:0000000000000000 $t
/var/folders/xd/16jvbr6j24q9nvtpm0qtw3240000gn/T//cch9jPA2.s:26     .text._ZN3oam12time_machine19TimeMachineHardware4Impl19InternalDacCallbackEPPtj:0000000000000000 _ZN3oam12time_machine19TimeMachineHardware4Impl19InternalDacCallbackEPPtj
/var/folders/xd/16jvbr6j24q9nvtpm0qtw3240000gn/T//cch9jPA2.s:71     .text._ZN3oam12time_machine19TimeMachineHardware4Impl19InternalDacCallbackEPPtj:0000000000000028 $d
/var/folders/xd/16jvbr6j24q9nvtpm0qtw3240000gn/T//cch9jPA2.s:76     .text._ZN3oam12time_machine19TimeMachineHardware4Impl7InitDacEv:0000000000000000 $t
/var/folders/xd/16jvbr6j24q9nvtpm0qtw3240000gn/T//cch9jPA2.s:83     .text._ZN3oam12time_machine19TimeMachineHardware4Impl7InitDacEv:0000000000000000 _ZN3oam12time_machine19TimeMachineHardware4Impl7InitDacEv
/var/folders/xd/16jvbr6j24q9nvtpm0qtw3240000gn/T//cch9jPA2.s:136    .text._ZN3oam12time_machine19TimeMachineHardware4Impl8StartDacEPFvPPtjE:0000000000000000 $t
/var/folders/xd/16jvbr6j24q9nvtpm0qtw3240000gn/T//cch9jPA2.s:143    .text._ZN3oam12time_machine19TimeMachineHardware4Impl8StartDacEPFvPPtjE:0000000000000000 _ZN3oam12time_machine19TimeMachineHardware4Impl8StartDacEPFvPPtjE
/var/folders/xd/16jvbr6j24q9nvtpm0qtw3240000gn/T//cch9jPA2.s:217    .text._ZN3oam12time_machine19TimeMachineHardware4Impl8StartDacEPFvPPtjE:000000000000003c $d
/var/folders/xd/16jvbr6j24q9nvtpm0qtw3240000gn/T//cch9jPA2.s:222    .text._ZN3oam12time_machine19TimeMachineHardware4Impl7StopDacEv:0000000000000000 $t
/var/folders/xd/16jvbr6j24q9nvtpm0qtw3240000gn/T//cch9jPA2.s:229    .text._ZN3oam12time_machine19TimeMachineHardware4Impl7StopDacEv:0000000000000000 _ZN3oam12time_machine19TimeMachineHardware4Impl7StopDacEv
/var/folders/xd/16jvbr6j24q9nvtpm0qtw3240000gn/T//cch9jPA2.s:261    .text._ZN3oam12time_machine19TimeMachineHardware4InitEv:0000000000000000 $t
/var/folders/xd/16jvbr6j24q9nvtpm0qtw3240000gn/T//cch9jPA2.s:268    .text._ZN3oam12time_machine19TimeMachineHardware4InitEv:0000000000000000 _ZN3oam12time_machine19TimeMachineHardware4InitEv
/var/folders/xd/16jvbr6j24q9nvtpm0qtw3240000gn/T//cch9jPA2.s:1375   .text._ZN3oam12time_machine19TimeMachineHardware4InitEv:000000000000032c $d
/var/folders/xd/16jvbr6j24q9nvtpm0qtw3240000gn/T//cch9jPA2.s:1396   .text._ZN3oam12time_machine19TimeMachineHardware10StartAudioEPFvPKPKfPPfjE:0000000000000000 $t
/var/folders/xd/16jvbr6j24q9nvtpm0qtw3240000gn/T//cch9jPA2.s:1403   .text._ZN3oam12time_machine19TimeMachineHardware10StartAudioEPFvPKPKfPPfjE:0000000000000000 _ZN3oam12time_machine19TimeMachineHardware10StartAudioEPFvPKPKfPPfjE
/var/folders/xd/16jvbr6j24q9nvtpm0qtw3240000gn/T//cch9jPA2.s:1423   .text._ZN3oam12time_machine19TimeMachineHardware10StartAudioEPFvPKfPfjE:0000000000000000 $t
/var/folders/xd/16jvbr6j24q9nvtpm0qtw3240000gn/T//cch9jPA2.s:1430   .text._ZN3oam12time_machine19TimeMachineHardware10StartAudioEPFvPKfPfjE:0000000000000000 _ZN3oam12time_machine19TimeMachineHardware10StartAudioEPFvPKfPfjE
/var/folders/xd/16jvbr6j24q9nvtpm0qtw3240000gn/T//cch9jPA2.s:1450   .text._ZN3oam12time_machine19TimeMachineHardware19ChangeAudioCallbackEPFvPKPKfPPfjE:0000000000000000 $t
/var/folders/xd/16jvbr6j24q9nvtpm0qtw3240000gn/T//cch9jPA2.s:1457   .text._ZN3oam12time_machine19TimeMachineHardware19ChangeAudioCallbackEPFvPKPKfPPfjE:0000000000000000 _ZN3oam12time_machine19TimeMachineHardware19ChangeAudioCallbackEPFvPKPKfPPfjE
/var/folders/xd/16jvbr6j24q9nvtpm0qtw3240000gn/T//cch9jPA2.s:1477   .text._ZN3oam12time_machine19TimeMachineHardware19ChangeAudioCallbackEPFvPKfPfjE:0000000000000000 $t
/var/folders/xd/16jvbr6j24q9nvtpm0qtw3240000gn/T//cch9jPA2.s:1484   .text._ZN3oam12time_machine19TimeMachineHardware19ChangeAudioCallbackEPFvPKfPfjE:0000000000000000 _ZN3oam12time_machine19TimeMachineHardware19ChangeAudioCallbackEPFvPKfPfjE
/var/folders/xd/16jvbr6j24q9nvtpm0qtw3240000gn/T//cch9jPA2.s:1504   .text._ZN3oam12time_machine19TimeMachineHardware9StopAudioEv:0000000000000000 $t
/var/folders/xd/16jvbr6j24q9nvtpm0qtw3240000gn/T//cch9jPA2.s:1511   .text._ZN3oam12time_machine19TimeMachineHardware9StopAudioEv:0000000000000000 _ZN3oam12time_machine19TimeMachineHardware9StopAudioEv
/var/folders/xd/16jvbr6j24q9nvtpm0qtw3240000gn/T//cch9jPA2.s:1531   .text._ZN3oam12time_machine19TimeMachineHardware17SetAudioBlockSizeEj:0000000000000000 $t
/var/folders/xd/16jvbr6j24q9nvtpm0qtw3240000gn/T//cch9jPA2.s:1538   .text._ZN3oam12time_machine19TimeMachineHardware17SetAudioBlockSizeEj:0000000000000000 _ZN3oam12time_machine19TimeMachineHardware17SetAudioBlockSizeEj
/var/folders/xd/16jvbr6j24q9nvtpm0qtw3240000gn/T//cch9jPA2.s:1649   .text._ZN3oam12time_machine19TimeMachineHardware18SetAudioSampleRateEf:0000000000000000 $t
/var/folders/xd/16jvbr6j24q9nvtpm0qtw3240000gn/T//cch9jPA2.s:1656   .text._ZN3oam12time_machine19TimeMachineHardware18SetAudioSampleRateEf:0000000000000000 _ZN3oam12time_machine19TimeMachineHardware18SetAudioSampleRateEf
/var/folders/xd/16jvbr6j24q9nvtpm0qtw3240000gn/T//cch9jPA2.s:1803   .text._ZN3oam12time_machine19TimeMachineHardware18SetAudioSampleRateEf:0000000000000088 $d
/var/folders/xd/16jvbr6j24q9nvtpm0qtw3240000gn/T//cch9jPA2.s:1808   .text._ZN3oam12time_machine19TimeMachineHardware18SetAudioSampleRateEN5daisy9SaiHandle6Config10SampleRateE:0000000000000000 $t
/var/folders/xd/16jvbr6j24q9nvtpm0qtw3240000gn/T//cch9jPA2.s:1815   .text._ZN3oam12time_machine19TimeMachineHardware18SetAudioSampleRateEN5daisy9SaiHandle6Config10SampleRateE:0000000000000000 _ZN3oam12time_machine19TimeMachineHardware18SetAudioSampleRateEN5daisy9SaiHandle6Config10SampleRateE
/var/folders/xd/16jvbr6j24q9nvtpm0qtw3240000gn/T//cch9jPA2.s:1926   .text._ZN3oam12time_machine19TimeMachineHardware14AudioBlockSizeEv:0000000000000000 $t
/var/folders/xd/16jvbr6j24q9nvtpm0qtw3240000gn/T//cch9jPA2.s:1933   .text._ZN3oam12time_machine19TimeMachineHardware14AudioBlockSizeEv:0000000000000000 _ZN3oam12time_machine19TimeMachineHardware14AudioBlockSizeEv
/var/folders/xd/16jvbr6j24q9nvtpm0qtw3240000gn/T//cch9jPA2.s:1959   .text._ZN3oam12time_machine19TimeMachineHardware15AudioSampleRateEv:0000000000000000 $t
/var/folders/xd/16jvbr6j24q9nvtpm0qtw3240000gn/T//cch9jPA2.s:1966   .text._ZN3oam12time_machine19TimeMachineHardware15AudioSampleRateEv:0000000000000000 _ZN3oam12time_machine19TimeMachineHardware15AudioSampleRateEv
/var/folders/xd/16jvbr6j24q9nvtpm0qtw3240000gn/T//cch9jPA2.s:1986   .text._ZN3oam12time_machine19TimeMachineHardware17AudioCallbackRateEv:0000000000000000 $t
/var/folders/xd/16jvbr6j24q9nvtpm0qtw3240000gn/T//cch9jPA2.s:1993   .text._ZN3oam12time_machine19TimeMachineHardware17AudioCallbackRateEv:0000000000000000 _ZN3oam12time_machine19TimeMachineHardware17AudioCallbackRateEv
/var/folders/xd/16jvbr6j24q9nvtpm0qtw3240000gn/T//cch9jPA2.s:2009   .text._ZN3oam12time_machine19TimeMachineHardware8StartAdcEv:0000000000000000 $t
/var/folders/xd/16jvbr6j24q9nvtpm0qtw3240000gn/T//cch9jPA2.s:2016   .text._ZN3oam12time_machine19TimeMachineHardware8StartAdcEv:0000000000000000 _ZN3oam12time_machine19TimeMachineHardware8StartAdcEv
/var/folders/xd/16jvbr6j24q9nvtpm0qtw3240000gn/T//cch9jPA2.s:2036   .text._ZN3oam12time_machine19TimeMachineHardware7StopAdcEv:0000000000000000 $t
/var/folders/xd/16jvbr6j24q9nvtpm0qtw3240000gn/T//cch9jPA2.s:2043   .text._ZN3oam12time_machine19TimeMachineHardware7StopAdcEv:0000000000000000 _ZN3oam12time_machine19TimeMachineHardware7StopAdcEv
/var/folders/xd/16jvbr6j24q9nvtpm0qtw3240000gn/T//cch9jPA2.s:2063   .text._ZN3oam12time_machine19TimeMachineHardware21ProcessAnalogControlsEv:0000000000000000 $t
/var/folders/xd/16jvbr6j24q9nvtpm0qtw3240000gn/T//cch9jPA2.s:2070   .text._ZN3oam12time_machine19TimeMachineHardware21ProcessAnalogControlsEv:0000000000000000 _ZN3oam12time_machine19TimeMachineHardware21ProcessAnalogControlsEv
/var/folders/xd/16jvbr6j24q9nvtpm0qtw3240000gn/T//cch9jPA2.s:2113   .text._ZN3oam12time_machine19TimeMachineHardware22ProcessDigitalControlsEv:0000000000000000 $t
/var/folders/xd/16jvbr6j24q9nvtpm0qtw3240000gn/T//cch9jPA2.s:2120   .text._ZN3oam12time_machine19TimeMachineHardware22ProcessDigitalControlsEv:0000000000000000 _ZN3oam12time_machine19TimeMachineHardware22ProcessDigitalControlsEv
/var/folders/xd/16jvbr6j24q9nvtpm0qtw3240000gn/T//cch9jPA2.s:2134   .text._ZN3oam12time_machine19TimeMachineHardware11GetAdcValueEi:0000000000000000 $t
/var/folders/xd/16jvbr6j24q9nvtpm0qtw3240000gn/T//cch9jPA2.s:2141   .text._ZN3oam12time_machine19TimeMachineHardware11GetAdcValueEi:0000000000000000 _ZN3oam12time_machine19TimeMachineHardware11GetAdcValueEi
/var/folders/xd/16jvbr6j24q9nvtpm0qtw3240000gn/T//cch9jPA2.s:2169   .text._ZN3oam12time_machine19TimeMachineHardware14GetLevelSliderEi:0000000000000000 $t
/var/folders/xd/16jvbr6j24q9nvtpm0qtw3240000gn/T//cch9jPA2.s:2176   .text._ZN3oam12time_machine19TimeMachineHardware14GetLevelSliderEi:0000000000000000 _ZN3oam12time_machine19TimeMachineHardware14GetLevelSliderEi
/var/folders/xd/16jvbr6j24q9nvtpm0qtw3240000gn/T//cch9jPA2.s:2254   .text._ZN3oam12time_machine19TimeMachineHardware14GetLevelSliderEi:0000000000000058 $d
/var/folders/xd/16jvbr6j24q9nvtpm0qtw3240000gn/T//cch9jPA2.s:2259   .text._ZN3oam12time_machine19TimeMachineHardware10GetLevelCVEi:0000000000000000 $t
/var/folders/xd/16jvbr6j24q9nvtpm0qtw3240000gn/T//cch9jPA2.s:2266   .text._ZN3oam12time_machine19TimeMachineHardware10GetLevelCVEi:0000000000000000 _ZN3oam12time_machine19TimeMachineHardware10GetLevelCVEi
/var/folders/xd/16jvbr6j24q9nvtpm0qtw3240000gn/T//cch9jPA2.s:2365   .text._ZN3oam12time_machine19TimeMachineHardware10GetLevelCVEi:000000000000005c $d
/var/folders/xd/16jvbr6j24q9nvtpm0qtw3240000gn/T//cch9jPA2.s:2370   .text._ZN3oam12time_machine19TimeMachineHardware10GetPanKnobEi:0000000000000000 $t
/var/folders/xd/16jvbr6j24q9nvtpm0qtw3240000gn/T//cch9jPA2.s:2377   .text._ZN3oam12time_machine19TimeMachineHardware10GetPanKnobEi:0000000000000000 _ZN3oam12time_machine19TimeMachineHardware10GetPanKnobEi
/var/folders/xd/16jvbr6j24q9nvtpm0qtw3240000gn/T//cch9jPA2.s:2455   .text._ZN3oam12time_machine19TimeMachineHardware10GetPanKnobEi:0000000000000058 $d
ARM GAS  /var/folders/xd/16jvbr6j24q9nvtpm0qtw3240000gn/T//cch9jPA2.s 			page 187


/var/folders/xd/16jvbr6j24q9nvtpm0qtw3240000gn/T//cch9jPA2.s:2460   .text._ZN3oam12time_machine19TimeMachineHardware13GetSpreadKnobEv:0000000000000000 $t
/var/folders/xd/16jvbr6j24q9nvtpm0qtw3240000gn/T//cch9jPA2.s:2467   .text._ZN3oam12time_machine19TimeMachineHardware13GetSpreadKnobEv:0000000000000000 _ZN3oam12time_machine19TimeMachineHardware13GetSpreadKnobEv
/var/folders/xd/16jvbr6j24q9nvtpm0qtw3240000gn/T//cch9jPA2.s:2489   .text._ZN3oam12time_machine19TimeMachineHardware11GetTimeKnobEv:0000000000000000 $t
/var/folders/xd/16jvbr6j24q9nvtpm0qtw3240000gn/T//cch9jPA2.s:2496   .text._ZN3oam12time_machine19TimeMachineHardware11GetTimeKnobEv:0000000000000000 _ZN3oam12time_machine19TimeMachineHardware11GetTimeKnobEv
/var/folders/xd/16jvbr6j24q9nvtpm0qtw3240000gn/T//cch9jPA2.s:2518   .text._ZN3oam12time_machine19TimeMachineHardware15GetFeedbackKnobEv:0000000000000000 $t
/var/folders/xd/16jvbr6j24q9nvtpm0qtw3240000gn/T//cch9jPA2.s:2525   .text._ZN3oam12time_machine19TimeMachineHardware15GetFeedbackKnobEv:0000000000000000 _ZN3oam12time_machine19TimeMachineHardware15GetFeedbackKnobEv
/var/folders/xd/16jvbr6j24q9nvtpm0qtw3240000gn/T//cch9jPA2.s:2547   .text._ZN3oam12time_machine19TimeMachineHardware15GetHighpassKnobEv:0000000000000000 $t
/var/folders/xd/16jvbr6j24q9nvtpm0qtw3240000gn/T//cch9jPA2.s:2554   .text._ZN3oam12time_machine19TimeMachineHardware15GetHighpassKnobEv:0000000000000000 _ZN3oam12time_machine19TimeMachineHardware15GetHighpassKnobEv
/var/folders/xd/16jvbr6j24q9nvtpm0qtw3240000gn/T//cch9jPA2.s:2576   .text._ZN3oam12time_machine19TimeMachineHardware14GetLowpassKnobEv:0000000000000000 $t
/var/folders/xd/16jvbr6j24q9nvtpm0qtw3240000gn/T//cch9jPA2.s:2583   .text._ZN3oam12time_machine19TimeMachineHardware14GetLowpassKnobEv:0000000000000000 _ZN3oam12time_machine19TimeMachineHardware14GetLowpassKnobEv
/var/folders/xd/16jvbr6j24q9nvtpm0qtw3240000gn/T//cch9jPA2.s:2605   .text._ZN3oam12time_machine19TimeMachineHardware6GetPinENS1_7PinBankEi:0000000000000000 $t
/var/folders/xd/16jvbr6j24q9nvtpm0qtw3240000gn/T//cch9jPA2.s:2612   .text._ZN3oam12time_machine19TimeMachineHardware6GetPinENS1_7PinBankEi:0000000000000000 _ZN3oam12time_machine19TimeMachineHardware6GetPinENS1_7PinBankEi
/var/folders/xd/16jvbr6j24q9nvtpm0qtw3240000gn/T//cch9jPA2.s:2669   .text._ZN3oam12time_machine19TimeMachineHardware6GetPinENS1_7PinBankEi:0000000000000040 $d
/var/folders/xd/16jvbr6j24q9nvtpm0qtw3240000gn/T//cch9jPA2.s:2674   .text._ZN3oam12time_machine19TimeMachineHardware8StartDacEPFvPPtjE:0000000000000000 $t
/var/folders/xd/16jvbr6j24q9nvtpm0qtw3240000gn/T//cch9jPA2.s:2681   .text._ZN3oam12time_machine19TimeMachineHardware8StartDacEPFvPPtjE:0000000000000000 _ZN3oam12time_machine19TimeMachineHardware8StartDacEPFvPPtjE
/var/folders/xd/16jvbr6j24q9nvtpm0qtw3240000gn/T//cch9jPA2.s:2770   .text._ZN3oam12time_machine19TimeMachineHardware8StartDacEPFvPPtjE:0000000000000040 $d
/var/folders/xd/16jvbr6j24q9nvtpm0qtw3240000gn/T//cch9jPA2.s:2777   .text._ZN3oam12time_machine19TimeMachineHardware7StopDacEv:0000000000000000 $t
/var/folders/xd/16jvbr6j24q9nvtpm0qtw3240000gn/T//cch9jPA2.s:2784   .text._ZN3oam12time_machine19TimeMachineHardware7StopDacEv:0000000000000000 _ZN3oam12time_machine19TimeMachineHardware7StopDacEv
/var/folders/xd/16jvbr6j24q9nvtpm0qtw3240000gn/T//cch9jPA2.s:2825   .text._ZN3oam12time_machine19TimeMachineHardware10WriteCvOutEif:0000000000000000 $t
/var/folders/xd/16jvbr6j24q9nvtpm0qtw3240000gn/T//cch9jPA2.s:2832   .text._ZN3oam12time_machine19TimeMachineHardware10WriteCvOutEif:0000000000000000 _ZN3oam12time_machine19TimeMachineHardware10WriteCvOutEif
/var/folders/xd/16jvbr6j24q9nvtpm0qtw3240000gn/T//cch9jPA2.s:2979   .text._ZN3oam12time_machine19TimeMachineHardware10WriteCvOutEif:000000000000007c $d
/var/folders/xd/16jvbr6j24q9nvtpm0qtw3240000gn/T//cch9jPA2.s:2989   .text._ZN3oam12time_machine19TimeMachineHardware6SetLedEb:0000000000000000 $t
/var/folders/xd/16jvbr6j24q9nvtpm0qtw3240000gn/T//cch9jPA2.s:2996   .text._ZN3oam12time_machine19TimeMachineHardware6SetLedEb:0000000000000000 _ZN3oam12time_machine19TimeMachineHardware6SetLedEb
/var/folders/xd/16jvbr6j24q9nvtpm0qtw3240000gn/T//cch9jPA2.s:3016   .text._ZN3oam12time_machine19TimeMachineHardware13ValidateSDRAMEv:0000000000000000 $t
/var/folders/xd/16jvbr6j24q9nvtpm0qtw3240000gn/T//cch9jPA2.s:3023   .text._ZN3oam12time_machine19TimeMachineHardware13ValidateSDRAMEv:0000000000000000 _ZN3oam12time_machine19TimeMachineHardware13ValidateSDRAMEv
/var/folders/xd/16jvbr6j24q9nvtpm0qtw3240000gn/T//cch9jPA2.s:3147   .text._ZN3oam12time_machine19TimeMachineHardware13ValidateSDRAMEv:0000000000000054 $d
/var/folders/xd/16jvbr6j24q9nvtpm0qtw3240000gn/T//cch9jPA2.s:3152   .text._ZN3oam12time_machine19TimeMachineHardware12ValidateQSPIEb:0000000000000000 $t
/var/folders/xd/16jvbr6j24q9nvtpm0qtw3240000gn/T//cch9jPA2.s:3159   .text._ZN3oam12time_machine19TimeMachineHardware12ValidateQSPIEb:0000000000000000 _ZN3oam12time_machine19TimeMachineHardware12ValidateQSPIEb
/var/folders/xd/16jvbr6j24q9nvtpm0qtw3240000gn/T//cch9jPA2.s:3503   .text._ZN3oam12time_machine19TimeMachineHardware12ValidateQSPIEb:0000000000000080 $d
/var/folders/xd/16jvbr6j24q9nvtpm0qtw3240000gn/T//cch9jPA2.s:3508   .text.startup._GLOBAL__sub_I__ZN3oam12time_machine19TimeMachineHardware2A1E:0000000000000000 $t
/var/folders/xd/16jvbr6j24q9nvtpm0qtw3240000gn/T//cch9jPA2.s:3514   .text.startup._GLOBAL__sub_I__ZN3oam12time_machine19TimeMachineHardware2A1E:0000000000000000 _GLOBAL__sub_I__ZN3oam12time_machine19TimeMachineHardware2A1E
/var/folders/xd/16jvbr6j24q9nvtpm0qtw3240000gn/T//cch9jPA2.s:3597   .text.startup._GLOBAL__sub_I__ZN3oam12time_machine19TimeMachineHardware2A1E:0000000000000020 $d
/var/folders/xd/16jvbr6j24q9nvtpm0qtw3240000gn/T//cch9jPA2.s:3603   .init_array:0000000000000000 $d
/var/folders/xd/16jvbr6j24q9nvtpm0qtw3240000gn/T//cch9jPA2.s:4093   .sram1_bss:0000000000000000 _ZN3oam12time_machine23dsy_patch_sm_dac_bufferE
/var/folders/xd/16jvbr6j24q9nvtpm0qtw3240000gn/T//cch9jPA2.s:3991   .rodata._ZN3oam12time_machine19TimeMachineHardware3D10E:0000000000000000 _ZN3oam12time_machine19TimeMachineHardware3D10E
/var/folders/xd/16jvbr6j24q9nvtpm0qtw3240000gn/T//cch9jPA2.s:3962   .rodata._ZN3oam12time_machine19TimeMachineHardware2D9E:0000000000000000 _ZN3oam12time_machine19TimeMachineHardware2D9E
/var/folders/xd/16jvbr6j24q9nvtpm0qtw3240000gn/T//cch9jPA2.s:3955   .rodata._ZN3oam12time_machine19TimeMachineHardware2D8E:0000000000000000 _ZN3oam12time_machine19TimeMachineHardware2D8E
/var/folders/xd/16jvbr6j24q9nvtpm0qtw3240000gn/T//cch9jPA2.s:3948   .rodata._ZN3oam12time_machine19TimeMachineHardware2D7E:0000000000000000 _ZN3oam12time_machine19TimeMachineHardware2D7E
/var/folders/xd/16jvbr6j24q9nvtpm0qtw3240000gn/T//cch9jPA2.s:3941   .rodata._ZN3oam12time_machine19TimeMachineHardware2D6E:0000000000000000 _ZN3oam12time_machine19TimeMachineHardware2D6E
/var/folders/xd/16jvbr6j24q9nvtpm0qtw3240000gn/T//cch9jPA2.s:3934   .rodata._ZN3oam12time_machine19TimeMachineHardware2D5E:0000000000000000 _ZN3oam12time_machine19TimeMachineHardware2D5E
/var/folders/xd/16jvbr6j24q9nvtpm0qtw3240000gn/T//cch9jPA2.s:3927   .rodata._ZN3oam12time_machine19TimeMachineHardware2D4E:0000000000000000 _ZN3oam12time_machine19TimeMachineHardware2D4E
/var/folders/xd/16jvbr6j24q9nvtpm0qtw3240000gn/T//cch9jPA2.s:3920   .rodata._ZN3oam12time_machine19TimeMachineHardware2D3E:0000000000000000 _ZN3oam12time_machine19TimeMachineHardware2D3E
/var/folders/xd/16jvbr6j24q9nvtpm0qtw3240000gn/T//cch9jPA2.s:3913   .rodata._ZN3oam12time_machine19TimeMachineHardware2D2E:0000000000000000 _ZN3oam12time_machine19TimeMachineHardware2D2E
/var/folders/xd/16jvbr6j24q9nvtpm0qtw3240000gn/T//cch9jPA2.s:3906   .rodata._ZN3oam12time_machine19TimeMachineHardware2D1E:0000000000000000 _ZN3oam12time_machine19TimeMachineHardware2D1E
/var/folders/xd/16jvbr6j24q9nvtpm0qtw3240000gn/T//cch9jPA2.s:3984   .rodata._ZN3oam12time_machine19TimeMachineHardware3C10E:0000000000000000 _ZN3oam12time_machine19TimeMachineHardware3C10E
/var/folders/xd/16jvbr6j24q9nvtpm0qtw3240000gn/T//cch9jPA2.s:3899   .rodata._ZN3oam12time_machine19TimeMachineHardware2C9E:0000000000000000 _ZN3oam12time_machine19TimeMachineHardware2C9E
/var/folders/xd/16jvbr6j24q9nvtpm0qtw3240000gn/T//cch9jPA2.s:3892   .rodata._ZN3oam12time_machine19TimeMachineHardware2C8E:0000000000000000 _ZN3oam12time_machine19TimeMachineHardware2C8E
/var/folders/xd/16jvbr6j24q9nvtpm0qtw3240000gn/T//cch9jPA2.s:3885   .rodata._ZN3oam12time_machine19TimeMachineHardware2C7E:0000000000000000 _ZN3oam12time_machine19TimeMachineHardware2C7E
/var/folders/xd/16jvbr6j24q9nvtpm0qtw3240000gn/T//cch9jPA2.s:3878   .rodata._ZN3oam12time_machine19TimeMachineHardware2C6E:0000000000000000 _ZN3oam12time_machine19TimeMachineHardware2C6E
/var/folders/xd/16jvbr6j24q9nvtpm0qtw3240000gn/T//cch9jPA2.s:3871   .rodata._ZN3oam12time_machine19TimeMachineHardware2C5E:0000000000000000 _ZN3oam12time_machine19TimeMachineHardware2C5E
/var/folders/xd/16jvbr6j24q9nvtpm0qtw3240000gn/T//cch9jPA2.s:3864   .rodata._ZN3oam12time_machine19TimeMachineHardware2C4E:0000000000000000 _ZN3oam12time_machine19TimeMachineHardware2C4E
/var/folders/xd/16jvbr6j24q9nvtpm0qtw3240000gn/T//cch9jPA2.s:3857   .rodata._ZN3oam12time_machine19TimeMachineHardware2C3E:0000000000000000 _ZN3oam12time_machine19TimeMachineHardware2C3E
/var/folders/xd/16jvbr6j24q9nvtpm0qtw3240000gn/T//cch9jPA2.s:3850   .rodata._ZN3oam12time_machine19TimeMachineHardware2C2E:0000000000000000 _ZN3oam12time_machine19TimeMachineHardware2C2E
/var/folders/xd/16jvbr6j24q9nvtpm0qtw3240000gn/T//cch9jPA2.s:3843   .rodata._ZN3oam12time_machine19TimeMachineHardware2C1E:0000000000000000 _ZN3oam12time_machine19TimeMachineHardware2C1E
/var/folders/xd/16jvbr6j24q9nvtpm0qtw3240000gn/T//cch9jPA2.s:3977   .rodata._ZN3oam12time_machine19TimeMachineHardware3B10E:0000000000000000 _ZN3oam12time_machine19TimeMachineHardware3B10E
/var/folders/xd/16jvbr6j24q9nvtpm0qtw3240000gn/T//cch9jPA2.s:3836   .rodata._ZN3oam12time_machine19TimeMachineHardware2B9E:0000000000000000 _ZN3oam12time_machine19TimeMachineHardware2B9E
/var/folders/xd/16jvbr6j24q9nvtpm0qtw3240000gn/T//cch9jPA2.s:3828   .rodata._ZN3oam12time_machine19TimeMachineHardware2B8E:0000000000000000 _ZN3oam12time_machine19TimeMachineHardware2B8E
ARM GAS  /var/folders/xd/16jvbr6j24q9nvtpm0qtw3240000gn/T//cch9jPA2.s 			page 188


/var/folders/xd/16jvbr6j24q9nvtpm0qtw3240000gn/T//cch9jPA2.s:3821   .rodata._ZN3oam12time_machine19TimeMachineHardware2B7E:0000000000000000 _ZN3oam12time_machine19TimeMachineHardware2B7E
/var/folders/xd/16jvbr6j24q9nvtpm0qtw3240000gn/T//cch9jPA2.s:3814   .rodata._ZN3oam12time_machine19TimeMachineHardware2B6E:0000000000000000 _ZN3oam12time_machine19TimeMachineHardware2B6E
/var/folders/xd/16jvbr6j24q9nvtpm0qtw3240000gn/T//cch9jPA2.s:3807   .rodata._ZN3oam12time_machine19TimeMachineHardware2B5E:0000000000000000 _ZN3oam12time_machine19TimeMachineHardware2B5E
/var/folders/xd/16jvbr6j24q9nvtpm0qtw3240000gn/T//cch9jPA2.s:3800   .rodata._ZN3oam12time_machine19TimeMachineHardware2B4E:0000000000000000 _ZN3oam12time_machine19TimeMachineHardware2B4E
/var/folders/xd/16jvbr6j24q9nvtpm0qtw3240000gn/T//cch9jPA2.s:3793   .rodata._ZN3oam12time_machine19TimeMachineHardware2B3E:0000000000000000 _ZN3oam12time_machine19TimeMachineHardware2B3E
/var/folders/xd/16jvbr6j24q9nvtpm0qtw3240000gn/T//cch9jPA2.s:3786   .rodata._ZN3oam12time_machine19TimeMachineHardware2B2E:0000000000000000 _ZN3oam12time_machine19TimeMachineHardware2B2E
/var/folders/xd/16jvbr6j24q9nvtpm0qtw3240000gn/T//cch9jPA2.s:3779   .rodata._ZN3oam12time_machine19TimeMachineHardware2B1E:0000000000000000 _ZN3oam12time_machine19TimeMachineHardware2B1E
/var/folders/xd/16jvbr6j24q9nvtpm0qtw3240000gn/T//cch9jPA2.s:3969   .rodata._ZN3oam12time_machine19TimeMachineHardware3A10E:0000000000000000 _ZN3oam12time_machine19TimeMachineHardware3A10E
/var/folders/xd/16jvbr6j24q9nvtpm0qtw3240000gn/T//cch9jPA2.s:3772   .rodata._ZN3oam12time_machine19TimeMachineHardware2A9E:0000000000000000 _ZN3oam12time_machine19TimeMachineHardware2A9E
/var/folders/xd/16jvbr6j24q9nvtpm0qtw3240000gn/T//cch9jPA2.s:3765   .rodata._ZN3oam12time_machine19TimeMachineHardware2A8E:0000000000000000 _ZN3oam12time_machine19TimeMachineHardware2A8E
/var/folders/xd/16jvbr6j24q9nvtpm0qtw3240000gn/T//cch9jPA2.s:3758   .rodata._ZN3oam12time_machine19TimeMachineHardware2A7E:0000000000000000 _ZN3oam12time_machine19TimeMachineHardware2A7E
/var/folders/xd/16jvbr6j24q9nvtpm0qtw3240000gn/T//cch9jPA2.s:3751   .rodata._ZN3oam12time_machine19TimeMachineHardware2A6E:0000000000000000 _ZN3oam12time_machine19TimeMachineHardware2A6E
/var/folders/xd/16jvbr6j24q9nvtpm0qtw3240000gn/T//cch9jPA2.s:3744   .rodata._ZN3oam12time_machine19TimeMachineHardware2A5E:0000000000000000 _ZN3oam12time_machine19TimeMachineHardware2A5E
/var/folders/xd/16jvbr6j24q9nvtpm0qtw3240000gn/T//cch9jPA2.s:3737   .rodata._ZN3oam12time_machine19TimeMachineHardware2A4E:0000000000000000 _ZN3oam12time_machine19TimeMachineHardware2A4E
/var/folders/xd/16jvbr6j24q9nvtpm0qtw3240000gn/T//cch9jPA2.s:3731   .rodata._ZN3oam12time_machine19TimeMachineHardware2A3E:0000000000000000 _ZN3oam12time_machine19TimeMachineHardware2A3E
/var/folders/xd/16jvbr6j24q9nvtpm0qtw3240000gn/T//cch9jPA2.s:3724   .rodata._ZN3oam12time_machine19TimeMachineHardware2A2E:0000000000000000 _ZN3oam12time_machine19TimeMachineHardware2A2E
/var/folders/xd/16jvbr6j24q9nvtpm0qtw3240000gn/T//cch9jPA2.s:3717   .rodata._ZN3oam12time_machine19TimeMachineHardware2A1E:0000000000000000 _ZN3oam12time_machine19TimeMachineHardware2A1E
/var/folders/xd/16jvbr6j24q9nvtpm0qtw3240000gn/T//cch9jPA2.s:3647   .rodata:0000000000000000 $d
/var/folders/xd/16jvbr6j24q9nvtpm0qtw3240000gn/T//cch9jPA2.s:3707   .bss._ZN3oam12time_machineL11patch_sm_hwE:0000000000000000 $d
/var/folders/xd/16jvbr6j24q9nvtpm0qtw3240000gn/T//cch9jPA2.s:3711   .bss._ZN3oam12time_machineL11patch_sm_hwE:0000000000000000 _ZN3oam12time_machineL11patch_sm_hwE
/var/folders/xd/16jvbr6j24q9nvtpm0qtw3240000gn/T//cch9jPA2.s:3714   .rodata._ZN3oam12time_machine19TimeMachineHardware2A1E:0000000000000000 $d
/var/folders/xd/16jvbr6j24q9nvtpm0qtw3240000gn/T//cch9jPA2.s:3721   .rodata._ZN3oam12time_machine19TimeMachineHardware2A2E:0000000000000000 $d
/var/folders/xd/16jvbr6j24q9nvtpm0qtw3240000gn/T//cch9jPA2.s:3728   .rodata._ZN3oam12time_machine19TimeMachineHardware2A3E:0000000000000000 $d
/var/folders/xd/16jvbr6j24q9nvtpm0qtw3240000gn/T//cch9jPA2.s:3734   .rodata._ZN3oam12time_machine19TimeMachineHardware2A4E:0000000000000000 $d
/var/folders/xd/16jvbr6j24q9nvtpm0qtw3240000gn/T//cch9jPA2.s:3741   .rodata._ZN3oam12time_machine19TimeMachineHardware2A5E:0000000000000000 $d
/var/folders/xd/16jvbr6j24q9nvtpm0qtw3240000gn/T//cch9jPA2.s:3748   .rodata._ZN3oam12time_machine19TimeMachineHardware2A6E:0000000000000000 $d
/var/folders/xd/16jvbr6j24q9nvtpm0qtw3240000gn/T//cch9jPA2.s:3755   .rodata._ZN3oam12time_machine19TimeMachineHardware2A7E:0000000000000000 $d
/var/folders/xd/16jvbr6j24q9nvtpm0qtw3240000gn/T//cch9jPA2.s:3762   .rodata._ZN3oam12time_machine19TimeMachineHardware2A8E:0000000000000000 $d
/var/folders/xd/16jvbr6j24q9nvtpm0qtw3240000gn/T//cch9jPA2.s:3769   .rodata._ZN3oam12time_machine19TimeMachineHardware2A9E:0000000000000000 $d
/var/folders/xd/16jvbr6j24q9nvtpm0qtw3240000gn/T//cch9jPA2.s:3776   .rodata._ZN3oam12time_machine19TimeMachineHardware2B1E:0000000000000000 $d
/var/folders/xd/16jvbr6j24q9nvtpm0qtw3240000gn/T//cch9jPA2.s:3783   .rodata._ZN3oam12time_machine19TimeMachineHardware2B2E:0000000000000000 $d
/var/folders/xd/16jvbr6j24q9nvtpm0qtw3240000gn/T//cch9jPA2.s:3790   .rodata._ZN3oam12time_machine19TimeMachineHardware2B3E:0000000000000000 $d
/var/folders/xd/16jvbr6j24q9nvtpm0qtw3240000gn/T//cch9jPA2.s:3797   .rodata._ZN3oam12time_machine19TimeMachineHardware2B4E:0000000000000000 $d
/var/folders/xd/16jvbr6j24q9nvtpm0qtw3240000gn/T//cch9jPA2.s:3804   .rodata._ZN3oam12time_machine19TimeMachineHardware2B5E:0000000000000000 $d
/var/folders/xd/16jvbr6j24q9nvtpm0qtw3240000gn/T//cch9jPA2.s:3811   .rodata._ZN3oam12time_machine19TimeMachineHardware2B6E:0000000000000000 $d
/var/folders/xd/16jvbr6j24q9nvtpm0qtw3240000gn/T//cch9jPA2.s:3818   .rodata._ZN3oam12time_machine19TimeMachineHardware2B7E:0000000000000000 $d
/var/folders/xd/16jvbr6j24q9nvtpm0qtw3240000gn/T//cch9jPA2.s:3825   .rodata._ZN3oam12time_machine19TimeMachineHardware2B8E:0000000000000000 $d
/var/folders/xd/16jvbr6j24q9nvtpm0qtw3240000gn/T//cch9jPA2.s:3832   .rodata._ZN3oam12time_machine19TimeMachineHardware2B9E:0000000000000000 $d
/var/folders/xd/16jvbr6j24q9nvtpm0qtw3240000gn/T//cch9jPA2.s:3840   .rodata._ZN3oam12time_machine19TimeMachineHardware2C1E:0000000000000000 $d
/var/folders/xd/16jvbr6j24q9nvtpm0qtw3240000gn/T//cch9jPA2.s:3847   .rodata._ZN3oam12time_machine19TimeMachineHardware2C2E:0000000000000000 $d
/var/folders/xd/16jvbr6j24q9nvtpm0qtw3240000gn/T//cch9jPA2.s:3854   .rodata._ZN3oam12time_machine19TimeMachineHardware2C3E:0000000000000000 $d
/var/folders/xd/16jvbr6j24q9nvtpm0qtw3240000gn/T//cch9jPA2.s:3861   .rodata._ZN3oam12time_machine19TimeMachineHardware2C4E:0000000000000000 $d
/var/folders/xd/16jvbr6j24q9nvtpm0qtw3240000gn/T//cch9jPA2.s:3868   .rodata._ZN3oam12time_machine19TimeMachineHardware2C5E:0000000000000000 $d
/var/folders/xd/16jvbr6j24q9nvtpm0qtw3240000gn/T//cch9jPA2.s:3875   .rodata._ZN3oam12time_machine19TimeMachineHardware2C6E:0000000000000000 $d
/var/folders/xd/16jvbr6j24q9nvtpm0qtw3240000gn/T//cch9jPA2.s:3882   .rodata._ZN3oam12time_machine19TimeMachineHardware2C7E:0000000000000000 $d
/var/folders/xd/16jvbr6j24q9nvtpm0qtw3240000gn/T//cch9jPA2.s:3889   .rodata._ZN3oam12time_machine19TimeMachineHardware2C8E:0000000000000000 $d
/var/folders/xd/16jvbr6j24q9nvtpm0qtw3240000gn/T//cch9jPA2.s:3896   .rodata._ZN3oam12time_machine19TimeMachineHardware2C9E:0000000000000000 $d
/var/folders/xd/16jvbr6j24q9nvtpm0qtw3240000gn/T//cch9jPA2.s:3903   .rodata._ZN3oam12time_machine19TimeMachineHardware2D1E:0000000000000000 $d
/var/folders/xd/16jvbr6j24q9nvtpm0qtw3240000gn/T//cch9jPA2.s:3910   .rodata._ZN3oam12time_machine19TimeMachineHardware2D2E:0000000000000000 $d
/var/folders/xd/16jvbr6j24q9nvtpm0qtw3240000gn/T//cch9jPA2.s:3917   .rodata._ZN3oam12time_machine19TimeMachineHardware2D3E:0000000000000000 $d
/var/folders/xd/16jvbr6j24q9nvtpm0qtw3240000gn/T//cch9jPA2.s:3924   .rodata._ZN3oam12time_machine19TimeMachineHardware2D4E:0000000000000000 $d
/var/folders/xd/16jvbr6j24q9nvtpm0qtw3240000gn/T//cch9jPA2.s:3931   .rodata._ZN3oam12time_machine19TimeMachineHardware2D5E:0000000000000000 $d
/var/folders/xd/16jvbr6j24q9nvtpm0qtw3240000gn/T//cch9jPA2.s:3938   .rodata._ZN3oam12time_machine19TimeMachineHardware2D6E:0000000000000000 $d
/var/folders/xd/16jvbr6j24q9nvtpm0qtw3240000gn/T//cch9jPA2.s:3945   .rodata._ZN3oam12time_machine19TimeMachineHardware2D7E:0000000000000000 $d
/var/folders/xd/16jvbr6j24q9nvtpm0qtw3240000gn/T//cch9jPA2.s:3952   .rodata._ZN3oam12time_machine19TimeMachineHardware2D8E:0000000000000000 $d
/var/folders/xd/16jvbr6j24q9nvtpm0qtw3240000gn/T//cch9jPA2.s:3959   .rodata._ZN3oam12time_machine19TimeMachineHardware2D9E:0000000000000000 $d
/var/folders/xd/16jvbr6j24q9nvtpm0qtw3240000gn/T//cch9jPA2.s:3966   .rodata._ZN3oam12time_machine19TimeMachineHardware3A10E:0000000000000000 $d
ARM GAS  /var/folders/xd/16jvbr6j24q9nvtpm0qtw3240000gn/T//cch9jPA2.s 			page 189


/var/folders/xd/16jvbr6j24q9nvtpm0qtw3240000gn/T//cch9jPA2.s:3973   .rodata._ZN3oam12time_machine19TimeMachineHardware3B10E:0000000000000000 $d
/var/folders/xd/16jvbr6j24q9nvtpm0qtw3240000gn/T//cch9jPA2.s:3981   .rodata._ZN3oam12time_machine19TimeMachineHardware3C10E:0000000000000000 $d
/var/folders/xd/16jvbr6j24q9nvtpm0qtw3240000gn/T//cch9jPA2.s:3988   .rodata._ZN3oam12time_machine19TimeMachineHardware3D10E:0000000000000000 $d
/var/folders/xd/16jvbr6j24q9nvtpm0qtw3240000gn/T//cch9jPA2.s:3995   .rodata._ZN3oam12time_machineL12PIN_USER_LEDE:0000000000000000 $d
/var/folders/xd/16jvbr6j24q9nvtpm0qtw3240000gn/T//cch9jPA2.s:3999   .rodata._ZN3oam12time_machineL12PIN_USER_LEDE:0000000000000000 _ZN3oam12time_machineL12PIN_USER_LEDE
/var/folders/xd/16jvbr6j24q9nvtpm0qtw3240000gn/T//cch9jPA2.s:4003   .rodata._ZN3oam12time_machineL7kPinMapE:0000000000000000 $d
/var/folders/xd/16jvbr6j24q9nvtpm0qtw3240000gn/T//cch9jPA2.s:4007   .rodata._ZN3oam12time_machineL7kPinMapE:0000000000000000 _ZN3oam12time_machineL7kPinMapE
/var/folders/xd/16jvbr6j24q9nvtpm0qtw3240000gn/T//cch9jPA2.s:4089   .sram1_bss:0000000000000000 $d

UNDEFINED SYMBOLS
_ZN5daisy9DacHandle4InitERKNS0_6ConfigE
_ZN5daisy9DacHandle5StartEPtS1_jPFvPS1_jE
_ZN5daisy9DacHandle4StopEv
_ZN5daisy6System22GetProgramMemoryRegionEv
_ZN5daisy6System4InitERKNS0_6ConfigE
_ZN11SdramHandle4InitEv
_ZN5daisy10QSPIHandle4InitERKNS0_6ConfigE
_ZN5daisy9SaiHandle4InitERKNS0_6ConfigE
_ZN5daisy9I2CHandle4InitERKNS0_6ConfigE
_ZN5daisy7Pcm30604InitENS_9I2CHandleE
_ZN5daisy11AudioHandle4InitERKNS0_6ConfigENS_9SaiHandleE
_ZN5daisy11AudioHandle13GetSampleRateEv
_ZNK5daisy11AudioHandle9GetConfigEv
_ZN5daisy16AdcChannelConfig7InitMuxENS_3PinEjS1_S1_S1_NS0_15ConversionSpeedE
_ZN5daisy16AdcChannelConfig10InitSingleENS_3PinENS0_15ConversionSpeedE
_ZN5daisy9AdcHandle4InitEPNS_16AdcChannelConfigEjNS0_12OverSamplingE
_ZNK5daisy9AdcHandle6GetPtrEh
_ZN5daisy13AnalogControl13InitBipolarCvEPtf
_ZNK5daisy9AdcHandle9GetMuxPtrEhh
_ZN5daisy4GPIO4InitENS_3PinENS0_4ModeENS0_4PullENS0_5SpeedE
_ZN5daisy6GateIn4InitENS_3PinEb
_ZN5daisy9AdcHandle5StartEv
_ZN5daisy13AnalogControl4InitEPtfbbf
_ZN5daisy8patch_sm12DaisyPatchSM2D2E
_ZN5daisy8patch_sm12DaisyPatchSM2D4E
_ZN5daisy8patch_sm12DaisyPatchSM2D3E
_ZN5daisy11AudioHandle5StartEPFvPKPKfPPfjE
_ZN5daisy11AudioHandle5StartEPFvPKfPfjE
_ZN5daisy11AudioHandle14ChangeCallbackEPFvPKPKfPPfjE
_ZN5daisy11AudioHandle14ChangeCallbackEPFvPKfPfjE
_ZN5daisy11AudioHandle4StopEv
_ZN5daisy11AudioHandle12SetBlockSizeEj
_ZN5daisy13AnalogControl13SetSampleRateEf
_ZN5daisy11AudioHandle13SetSampleRateENS_9SaiHandle6Config10SampleRateE
_ZN5daisy9AdcHandle4StopEv
_ZN5daisy13AnalogControl7ProcessEv
_ZNK5daisy9AdcHandle11GetMuxFloatEhh
_ZN5daisy4GPIO5WriteEb
memset
_ZN5daisy10QSPIHandle5EraseEmm
_Znwj
_ZN5daisy10QSPIHandle5WriteEmmPh
_ZdlPvj
