ARM GAS  /var/folders/xd/16jvbr6j24q9nvtpm0qtw3240000gn/T//cch9jPA2.s 			page 1


   1              		.cpu cortex-m7
   2              		.arch armv7e-m
   3              		.fpu fpv5-d16
   4              		.eabi_attribute 28, 1
   5              		.eabi_attribute 20, 1
   6              		.eabi_attribute 21, 1
   7              		.eabi_attribute 23, 3
   8              		.eabi_attribute 24, 1
   9              		.eabi_attribute 25, 1
  10              		.eabi_attribute 26, 1
  11              		.eabi_attribute 30, 2
  12              		.eabi_attribute 34, 1
  13              		.eabi_attribute 18, 4
  14              		.file	"time_machine_hardware.cpp"
  15              		.text
  16              	.Ltext0:
  17              		.cfi_sections	.debug_frame
  18              		.section	.text._ZN3oam12time_machine19TimeMachineHardware4Impl19InternalDacCallbackEPPtj,"ax",%pro
  19              		.align	1
  20              		.p2align 2,,3
  21              		.global	_ZN3oam12time_machine19TimeMachineHardware4Impl19InternalDacCallbackEPPtj
  22              		.syntax unified
  23              		.thumb
  24              		.thumb_func
  26              	_ZN3oam12time_machine19TimeMachineHardware4Impl19InternalDacCallbackEPPtj:
  27              	.LVL0:
  28              	.LFB3138:
  29              		.file 1 "time_machine_hardware.cpp"
   1:time_machine_hardware.cpp **** #include "time_machine_hardware.h"
   2:time_machine_hardware.cpp **** #include <vector>
   3:time_machine_hardware.cpp **** 
   4:time_machine_hardware.cpp **** namespace oam
   5:time_machine_hardware.cpp **** {
   6:time_machine_hardware.cpp **** namespace time_machine
   7:time_machine_hardware.cpp **** {
   8:time_machine_hardware.cpp ****     /** Const definitions */
   9:time_machine_hardware.cpp ****     constexpr Pin DUMMYPIN        = Pin(PORTX, 0);
  10:time_machine_hardware.cpp ****     constexpr Pin PIN_ADC_CTRL_1  = DaisyPatchSM::C5;
  11:time_machine_hardware.cpp ****     constexpr Pin PIN_ADC_CTRL_2  = DaisyPatchSM::C4;
  12:time_machine_hardware.cpp ****     constexpr Pin PIN_ADC_CTRL_3  = DaisyPatchSM::C3;
  13:time_machine_hardware.cpp ****     constexpr Pin PIN_ADC_CTRL_4  = DaisyPatchSM::C2;
  14:time_machine_hardware.cpp ****     constexpr Pin PIN_ADC_CTRL_5  = DaisyPatchSM::C6;
  15:time_machine_hardware.cpp ****     constexpr Pin PIN_ADC_CTRL_6  = DaisyPatchSM::C7;
  16:time_machine_hardware.cpp ****     constexpr Pin PIN_ADC_CTRL_7  = DaisyPatchSM::C8;
  17:time_machine_hardware.cpp ****     constexpr Pin PIN_ADC_CTRL_8  = DaisyPatchSM::C9;
  18:time_machine_hardware.cpp ****     constexpr Pin PIN_ADC_CTRL_9  = DaisyPatchSM::A2;
  19:time_machine_hardware.cpp ****     constexpr Pin PIN_ADC_CTRL_10 = DaisyPatchSM::A3;
  20:time_machine_hardware.cpp ****     constexpr Pin PIN_ADC_CTRL_11 = DaisyPatchSM::D9;
  21:time_machine_hardware.cpp ****     constexpr Pin PIN_ADC_CTRL_12 = DaisyPatchSM::D8;
  22:time_machine_hardware.cpp ****     constexpr Pin PIN_USER_LED    = Pin(PORTC, 7);
  23:time_machine_hardware.cpp **** 
  24:time_machine_hardware.cpp ****     constexpr Pin kPinMap[4][10] =
  25:time_machine_hardware.cpp ****         // Bank A
  26:time_machine_hardware.cpp ****         {{DaisyPatchSM::A1,
  27:time_machine_hardware.cpp ****           DaisyPatchSM::A2,
  28:time_machine_hardware.cpp ****           DaisyPatchSM::A3,
  29:time_machine_hardware.cpp ****           DaisyPatchSM::A4,
ARM GAS  /var/folders/xd/16jvbr6j24q9nvtpm0qtw3240000gn/T//cch9jPA2.s 			page 2


  30:time_machine_hardware.cpp ****           DaisyPatchSM::A5,
  31:time_machine_hardware.cpp ****           DaisyPatchSM::A6,
  32:time_machine_hardware.cpp ****           DaisyPatchSM::A7,
  33:time_machine_hardware.cpp ****           DaisyPatchSM::A8,
  34:time_machine_hardware.cpp ****           DaisyPatchSM::A9,
  35:time_machine_hardware.cpp ****           DaisyPatchSM::A10},
  36:time_machine_hardware.cpp **** 
  37:time_machine_hardware.cpp ****          // Bank B
  38:time_machine_hardware.cpp ****          {DaisyPatchSM::B1,
  39:time_machine_hardware.cpp ****           DaisyPatchSM::B2,
  40:time_machine_hardware.cpp ****           DaisyPatchSM::B3,
  41:time_machine_hardware.cpp ****           DaisyPatchSM::B4,
  42:time_machine_hardware.cpp ****           DaisyPatchSM::B5,
  43:time_machine_hardware.cpp ****           DaisyPatchSM::B6,
  44:time_machine_hardware.cpp ****           DaisyPatchSM::B7,
  45:time_machine_hardware.cpp ****           DaisyPatchSM::B8,
  46:time_machine_hardware.cpp ****           DaisyPatchSM::B9,
  47:time_machine_hardware.cpp ****           DaisyPatchSM::B10},
  48:time_machine_hardware.cpp **** 
  49:time_machine_hardware.cpp ****          // Bank C
  50:time_machine_hardware.cpp ****          {DaisyPatchSM::C1,
  51:time_machine_hardware.cpp ****           DaisyPatchSM::C2,
  52:time_machine_hardware.cpp ****           DaisyPatchSM::C3,
  53:time_machine_hardware.cpp ****           DaisyPatchSM::C4,
  54:time_machine_hardware.cpp ****           DaisyPatchSM::C5,
  55:time_machine_hardware.cpp ****           DaisyPatchSM::C6,
  56:time_machine_hardware.cpp ****           DaisyPatchSM::C7,
  57:time_machine_hardware.cpp ****           DaisyPatchSM::C8,
  58:time_machine_hardware.cpp ****           DaisyPatchSM::C9,
  59:time_machine_hardware.cpp ****           DaisyPatchSM::C10},
  60:time_machine_hardware.cpp **** 
  61:time_machine_hardware.cpp ****          // Bank D
  62:time_machine_hardware.cpp ****          {DaisyPatchSM::D1,
  63:time_machine_hardware.cpp ****           DaisyPatchSM::D2,
  64:time_machine_hardware.cpp ****           DaisyPatchSM::D3,
  65:time_machine_hardware.cpp ****           DaisyPatchSM::D4,
  66:time_machine_hardware.cpp ****           DaisyPatchSM::D5,
  67:time_machine_hardware.cpp ****           DaisyPatchSM::D6,
  68:time_machine_hardware.cpp ****           DaisyPatchSM::D7,
  69:time_machine_hardware.cpp ****           DaisyPatchSM::D8,
  70:time_machine_hardware.cpp ****           DaisyPatchSM::D9,
  71:time_machine_hardware.cpp ****           DaisyPatchSM::D10}};
  72:time_machine_hardware.cpp **** 
  73:time_machine_hardware.cpp ****     const Pin TimeMachineHardware::A1  = kPinMap[0][0];
  74:time_machine_hardware.cpp ****     const Pin TimeMachineHardware::A2  = kPinMap[0][1];
  75:time_machine_hardware.cpp ****     const Pin TimeMachineHardware::A3  = kPinMap[0][2];
  76:time_machine_hardware.cpp ****     const Pin TimeMachineHardware::A4  = kPinMap[0][3];
  77:time_machine_hardware.cpp ****     const Pin TimeMachineHardware::A5  = kPinMap[0][4];
  78:time_machine_hardware.cpp ****     const Pin TimeMachineHardware::A6  = kPinMap[0][5];
  79:time_machine_hardware.cpp ****     const Pin TimeMachineHardware::A7  = kPinMap[0][6];
  80:time_machine_hardware.cpp ****     const Pin TimeMachineHardware::A8  = kPinMap[0][7];
  81:time_machine_hardware.cpp ****     const Pin TimeMachineHardware::A9  = kPinMap[0][8];
  82:time_machine_hardware.cpp ****     const Pin TimeMachineHardware::A10 = kPinMap[0][9];
  83:time_machine_hardware.cpp ****     const Pin TimeMachineHardware::B1  = kPinMap[1][0];
  84:time_machine_hardware.cpp ****     const Pin TimeMachineHardware::B2  = kPinMap[1][1];
  85:time_machine_hardware.cpp ****     const Pin TimeMachineHardware::B3  = kPinMap[1][2];
  86:time_machine_hardware.cpp ****     const Pin TimeMachineHardware::B4  = kPinMap[1][3];
ARM GAS  /var/folders/xd/16jvbr6j24q9nvtpm0qtw3240000gn/T//cch9jPA2.s 			page 3


  87:time_machine_hardware.cpp ****     const Pin TimeMachineHardware::B5  = kPinMap[1][4];
  88:time_machine_hardware.cpp ****     const Pin TimeMachineHardware::B6  = kPinMap[1][5];
  89:time_machine_hardware.cpp ****     const Pin TimeMachineHardware::B7  = kPinMap[1][6];
  90:time_machine_hardware.cpp ****     const Pin TimeMachineHardware::B8  = kPinMap[1][7];
  91:time_machine_hardware.cpp ****     const Pin TimeMachineHardware::B9  = kPinMap[1][8];
  92:time_machine_hardware.cpp ****     const Pin TimeMachineHardware::B10 = kPinMap[1][9];
  93:time_machine_hardware.cpp ****     const Pin TimeMachineHardware::C1  = kPinMap[2][0];
  94:time_machine_hardware.cpp ****     const Pin TimeMachineHardware::C2  = kPinMap[2][1];
  95:time_machine_hardware.cpp ****     const Pin TimeMachineHardware::C3  = kPinMap[2][2];
  96:time_machine_hardware.cpp ****     const Pin TimeMachineHardware::C4  = kPinMap[2][3];
  97:time_machine_hardware.cpp ****     const Pin TimeMachineHardware::C5  = kPinMap[2][4];
  98:time_machine_hardware.cpp ****     const Pin TimeMachineHardware::C6  = kPinMap[2][5];
  99:time_machine_hardware.cpp ****     const Pin TimeMachineHardware::C7  = kPinMap[2][6];
 100:time_machine_hardware.cpp ****     const Pin TimeMachineHardware::C8  = kPinMap[2][7];
 101:time_machine_hardware.cpp ****     const Pin TimeMachineHardware::C9  = kPinMap[2][8];
 102:time_machine_hardware.cpp ****     const Pin TimeMachineHardware::C10 = kPinMap[2][9];
 103:time_machine_hardware.cpp ****     const Pin TimeMachineHardware::D1  = kPinMap[3][0];
 104:time_machine_hardware.cpp ****     const Pin TimeMachineHardware::D2  = kPinMap[3][1];
 105:time_machine_hardware.cpp ****     const Pin TimeMachineHardware::D3  = kPinMap[3][2];
 106:time_machine_hardware.cpp ****     const Pin TimeMachineHardware::D4  = kPinMap[3][3];
 107:time_machine_hardware.cpp ****     const Pin TimeMachineHardware::D5  = kPinMap[3][4];
 108:time_machine_hardware.cpp ****     const Pin TimeMachineHardware::D6  = kPinMap[3][5];
 109:time_machine_hardware.cpp ****     const Pin TimeMachineHardware::D7  = kPinMap[3][6];
 110:time_machine_hardware.cpp ****     const Pin TimeMachineHardware::D8  = kPinMap[3][7];
 111:time_machine_hardware.cpp ****     const Pin TimeMachineHardware::D9  = kPinMap[3][8];
 112:time_machine_hardware.cpp ****     const Pin TimeMachineHardware::D10 = kPinMap[3][9];
 113:time_machine_hardware.cpp **** 
 114:time_machine_hardware.cpp ****     /** outside of class static buffer(s) for DMA access */
 115:time_machine_hardware.cpp ****     uint16_t DMA_BUFFER_MEM_SECTION dsy_patch_sm_dac_buffer[2][48];
 116:time_machine_hardware.cpp **** 
 117:time_machine_hardware.cpp ****     class TimeMachineHardware::Impl
 118:time_machine_hardware.cpp ****     {
 119:time_machine_hardware.cpp ****       public:
 120:time_machine_hardware.cpp ****         Impl()
 121:time_machine_hardware.cpp ****         {
 122:time_machine_hardware.cpp ****             dac_running_            = false;
 123:time_machine_hardware.cpp ****             dac_buffer_size_        = 48;
 124:time_machine_hardware.cpp ****             dac_output_[0]          = 0;
 125:time_machine_hardware.cpp ****             dac_output_[1]          = 0;
 126:time_machine_hardware.cpp ****             internal_dac_buffer_[0] = dsy_patch_sm_dac_buffer[0];
 127:time_machine_hardware.cpp ****             internal_dac_buffer_[1] = dsy_patch_sm_dac_buffer[1];
 128:time_machine_hardware.cpp ****         }
 129:time_machine_hardware.cpp **** 
 130:time_machine_hardware.cpp ****         void InitDac();
 131:time_machine_hardware.cpp **** 
 132:time_machine_hardware.cpp ****         void StartDac(DacHandle::DacCallback callback);
 133:time_machine_hardware.cpp **** 
 134:time_machine_hardware.cpp ****         void StopDac();
 135:time_machine_hardware.cpp **** 
 136:time_machine_hardware.cpp ****         static void InternalDacCallback(uint16_t **output, size_t size);
 137:time_machine_hardware.cpp **** 
 138:time_machine_hardware.cpp ****         /** Based on a 0-5V output with a 0-4095 12-bit DAC */
 139:time_machine_hardware.cpp ****         static inline uint16_t VoltageToCode(float input)
 140:time_machine_hardware.cpp ****         {
 141:time_machine_hardware.cpp ****             float pre = input * 819.f;
 142:time_machine_hardware.cpp ****             if(pre > 4095.f)
 143:time_machine_hardware.cpp ****                 pre = 4095.f;
ARM GAS  /var/folders/xd/16jvbr6j24q9nvtpm0qtw3240000gn/T//cch9jPA2.s 			page 4


 144:time_machine_hardware.cpp ****             else if(pre < 0.f)
 145:time_machine_hardware.cpp ****                 pre = 0.f;
 146:time_machine_hardware.cpp ****             return (uint16_t)pre;
 147:time_machine_hardware.cpp ****         }
 148:time_machine_hardware.cpp **** 
 149:time_machine_hardware.cpp ****         inline void WriteCvOut(int channel, float voltage)
 150:time_machine_hardware.cpp ****         {
 151:time_machine_hardware.cpp ****             if(channel == 0 || channel == 1)
 152:time_machine_hardware.cpp ****                 dac_output_[0] = VoltageToCode(voltage);
 153:time_machine_hardware.cpp ****             if(channel == 0 || channel == 2)
 154:time_machine_hardware.cpp ****                 dac_output_[1] = VoltageToCode(voltage);
 155:time_machine_hardware.cpp ****         }
 156:time_machine_hardware.cpp **** 
 157:time_machine_hardware.cpp ****         size_t    dac_buffer_size_;
 158:time_machine_hardware.cpp ****         uint16_t *internal_dac_buffer_[2];
 159:time_machine_hardware.cpp ****         uint16_t  dac_output_[2];
 160:time_machine_hardware.cpp ****         DacHandle dac_;
 161:time_machine_hardware.cpp **** 
 162:time_machine_hardware.cpp ****       private:
 163:time_machine_hardware.cpp ****         bool dac_running_;
 164:time_machine_hardware.cpp ****     };
 165:time_machine_hardware.cpp **** 
 166:time_machine_hardware.cpp ****     /** Static Local Object */
 167:time_machine_hardware.cpp ****     static TimeMachineHardware::Impl patch_sm_hw;
 168:time_machine_hardware.cpp **** 
 169:time_machine_hardware.cpp ****     /** Impl function definintions */
 170:time_machine_hardware.cpp **** 
 171:time_machine_hardware.cpp ****     void TimeMachineHardware::Impl::InitDac()
 172:time_machine_hardware.cpp ****     {
 173:time_machine_hardware.cpp ****         DacHandle::Config dac_config;
 174:time_machine_hardware.cpp ****         dac_config.mode     = DacHandle::Mode::DMA;
 175:time_machine_hardware.cpp ****         dac_config.bitdepth = DacHandle::BitDepth::
 176:time_machine_hardware.cpp ****             BITS_12; /**< Sets the output value to 0-4095 */
 177:time_machine_hardware.cpp ****         dac_config.chn               = DacHandle::Channel::BOTH;
 178:time_machine_hardware.cpp ****         dac_config.buff_state        = DacHandle::BufferState::ENABLED;
 179:time_machine_hardware.cpp ****         dac_config.target_samplerate = 48000;
 180:time_machine_hardware.cpp ****         dac_.Init(dac_config);
 181:time_machine_hardware.cpp ****     }
 182:time_machine_hardware.cpp **** 
 183:time_machine_hardware.cpp ****     void TimeMachineHardware::Impl::StartDac(DacHandle::DacCallback callback)
 184:time_machine_hardware.cpp ****     {
 185:time_machine_hardware.cpp ****         if(dac_running_)
 186:time_machine_hardware.cpp ****             dac_.Stop();
 187:time_machine_hardware.cpp ****         dac_.Start(internal_dac_buffer_[0],
 188:time_machine_hardware.cpp ****                    internal_dac_buffer_[1],
 189:time_machine_hardware.cpp ****                    dac_buffer_size_,
 190:time_machine_hardware.cpp ****                    callback == nullptr ? InternalDacCallback : callback);
 191:time_machine_hardware.cpp ****         dac_running_ = true;
 192:time_machine_hardware.cpp ****     }
 193:time_machine_hardware.cpp **** 
 194:time_machine_hardware.cpp ****     void TimeMachineHardware::Impl::StopDac()
 195:time_machine_hardware.cpp ****     {
 196:time_machine_hardware.cpp ****         dac_.Stop();
 197:time_machine_hardware.cpp ****         dac_running_ = false;
 198:time_machine_hardware.cpp ****     }
 199:time_machine_hardware.cpp **** 
 200:time_machine_hardware.cpp **** 
ARM GAS  /var/folders/xd/16jvbr6j24q9nvtpm0qtw3240000gn/T//cch9jPA2.s 			page 5


 201:time_machine_hardware.cpp ****     void TimeMachineHardware::Impl::InternalDacCallback(uint16_t **output, size_t size)
 202:time_machine_hardware.cpp ****     {
  30              		.loc 1 202 5 view -0
  31              		.cfi_startproc
  32              		@ args = 0, pretend = 0, frame = 0
  33              		@ frame_needed = 0, uses_anonymous_args = 0
  34              		@ link register save eliminated.
 203:time_machine_hardware.cpp ****         /** We could add some smoothing, interp, or something to make this a bit less waste-y */
 204:time_machine_hardware.cpp ****         // std::fill(&output[0][0], &output[0][size], patch_sm_hw.dac_output_[0]);
 205:time_machine_hardware.cpp ****         // std::fill(&output[1][1], &output[1][size], patch_sm_hw.dac_output_[1]);
 206:time_machine_hardware.cpp ****         for(size_t i = 0; i < size; i++)
  35              		.loc 1 206 9 view .LVU1
  36              	.LBB490:
  37              		.loc 1 206 29 view .LVU2
  38 0000 81B1     		cbz	r1, .L1
  39 0002 D0E90032 		ldrd	r3, r2, [r0]
  40 0006 03EB4101 		add	r1, r3, r1, lsl #1
  41              	.LVL1:
  42              		.loc 1 206 29 is_stmt 0 view .LVU3
  43 000a 023A     		subs	r2, r2, #2
  44 000c 023B     		subs	r3, r3, #2
  45 000e A1F1020C 		sub	ip, r1, #2
  46 0012 0549     		ldr	r1, .L9
  47              	.LVL2:
  48              	.L3:
 207:time_machine_hardware.cpp ****         {
 208:time_machine_hardware.cpp ****             output[0][i] = patch_sm_hw.dac_output_[0];
  49              		.loc 1 208 13 is_stmt 1 discriminator 2 view .LVU4
  50              		.loc 1 208 53 is_stmt 0 discriminator 2 view .LVU5
  51 0014 8889     		ldrh	r0, [r1, #12]
  52              		.loc 1 208 26 discriminator 2 view .LVU6
  53 0016 23F8020F 		strh	r0, [r3, #2]!	@ movhi
 209:time_machine_hardware.cpp ****             output[1][i] = patch_sm_hw.dac_output_[1];
  54              		.loc 1 209 13 is_stmt 1 discriminator 2 view .LVU7
 206:time_machine_hardware.cpp ****         {
  55              		.loc 1 206 29 is_stmt 0 discriminator 2 view .LVU8
  56 001a 6345     		cmp	r3, ip
  57              		.loc 1 209 53 discriminator 2 view .LVU9
  58 001c C889     		ldrh	r0, [r1, #14]
  59              		.loc 1 209 26 discriminator 2 view .LVU10
  60 001e 22F8020F 		strh	r0, [r2, #2]!	@ movhi
 206:time_machine_hardware.cpp ****         {
  61              		.loc 1 206 9 is_stmt 1 discriminator 2 view .LVU11
 206:time_machine_hardware.cpp ****         {
  62              		.loc 1 206 29 discriminator 2 view .LVU12
  63 0022 F7D1     		bne	.L3
  64              	.L1:
  65              	.LBE490:
 210:time_machine_hardware.cpp ****         }
 211:time_machine_hardware.cpp ****     }
  66              		.loc 1 211 5 is_stmt 0 view .LVU13
  67 0024 7047     		bx	lr
  68              	.L10:
  69 0026 00BF     		.align	2
  70              	.L9:
  71 0028 00000000 		.word	.LANCHOR0
  72              		.cfi_endproc
ARM GAS  /var/folders/xd/16jvbr6j24q9nvtpm0qtw3240000gn/T//cch9jPA2.s 			page 6


  73              	.LFE3138:
  75              		.section	.text._ZN3oam12time_machine19TimeMachineHardware4Impl7InitDacEv,"ax",%progbits
  76              		.align	1
  77              		.p2align 2,,3
  78              		.global	_ZN3oam12time_machine19TimeMachineHardware4Impl7InitDacEv
  79              		.syntax unified
  80              		.thumb
  81              		.thumb_func
  83              	_ZN3oam12time_machine19TimeMachineHardware4Impl7InitDacEv:
  84              	.LVL3:
  85              	.LFB3135:
 172:time_machine_hardware.cpp ****         DacHandle::Config dac_config;
  86              		.loc 1 172 5 is_stmt 1 view -0
  87              		.cfi_startproc
  88              		@ args = 0, pretend = 0, frame = 24
  89              		@ frame_needed = 0, uses_anonymous_args = 0
 173:time_machine_hardware.cpp ****         dac_config.mode     = DacHandle::Mode::DMA;
  90              		.loc 1 173 9 view .LVU15
 174:time_machine_hardware.cpp ****         dac_config.bitdepth = DacHandle::BitDepth::
  91              		.loc 1 174 9 view .LVU16
 172:time_machine_hardware.cpp ****         DacHandle::Config dac_config;
  92              		.loc 1 172 5 is_stmt 0 view .LVU17
  93 0000 10B5     		push	{r4, lr}
  94              		.cfi_def_cfa_offset 8
  95              		.cfi_offset 4, -8
  96              		.cfi_offset 14, -4
 177:time_machine_hardware.cpp ****         dac_config.buff_state        = DacHandle::BufferState::ENABLED;
  97              		.loc 1 177 38 view .LVU18
  98 0002 0221     		movs	r1, #2
 172:time_machine_hardware.cpp ****         DacHandle::Config dac_config;
  99              		.loc 1 172 5 view .LVU19
 100 0004 86B0     		sub	sp, sp, #24
 101              		.cfi_def_cfa_offset 32
 174:time_machine_hardware.cpp ****         dac_config.bitdepth = DacHandle::BitDepth::
 102              		.loc 1 174 29 view .LVU20
 103 0006 0123     		movs	r3, #1
 179:time_machine_hardware.cpp ****         dac_.Init(dac_config);
 104              		.loc 1 179 38 view .LVU21
 105 0008 4BF68032 		movw	r2, #48000
 177:time_machine_hardware.cpp ****         dac_config.buff_state        = DacHandle::BufferState::ENABLED;
 106              		.loc 1 177 38 view .LVU22
 107 000c 0291     		str	r1, [sp, #8]
 178:time_machine_hardware.cpp ****         dac_config.target_samplerate = 48000;
 108              		.loc 1 178 38 view .LVU23
 109 000e 0024     		movs	r4, #0
 180:time_machine_hardware.cpp ****     }
 110              		.loc 1 180 18 view .LVU24
 111 0010 01A9     		add	r1, sp, #4
 112 0012 1030     		adds	r0, r0, #16
 113              	.LVL4:
 178:time_machine_hardware.cpp ****         dac_config.target_samplerate = 48000;
 114              		.loc 1 178 38 view .LVU25
 115 0014 0594     		str	r4, [sp, #20]
 179:time_machine_hardware.cpp ****         dac_.Init(dac_config);
 116              		.loc 1 179 38 view .LVU26
 117 0016 0192     		str	r2, [sp, #4]
 175:time_machine_hardware.cpp ****             BITS_12; /**< Sets the output value to 0-4095 */
ARM GAS  /var/folders/xd/16jvbr6j24q9nvtpm0qtw3240000gn/T//cch9jPA2.s 			page 7


 118              		.loc 1 175 29 view .LVU27
 119 0018 CDE90333 		strd	r3, r3, [sp, #12]
 177:time_machine_hardware.cpp ****         dac_config.buff_state        = DacHandle::BufferState::ENABLED;
 120              		.loc 1 177 9 is_stmt 1 view .LVU28
 178:time_machine_hardware.cpp ****         dac_config.target_samplerate = 48000;
 121              		.loc 1 178 9 view .LVU29
 179:time_machine_hardware.cpp ****         dac_.Init(dac_config);
 122              		.loc 1 179 9 view .LVU30
 180:time_machine_hardware.cpp ****     }
 123              		.loc 1 180 9 view .LVU31
 180:time_machine_hardware.cpp ****     }
 124              		.loc 1 180 18 is_stmt 0 view .LVU32
 125 001c FFF7FEFF 		bl	_ZN5daisy9DacHandle4InitERKNS0_6ConfigE
 126              	.LVL5:
 181:time_machine_hardware.cpp **** 
 127              		.loc 1 181 5 view .LVU33
 128 0020 06B0     		add	sp, sp, #24
 129              		.cfi_def_cfa_offset 8
 130              		@ sp needed
 131 0022 10BD     		pop	{r4, pc}
 132              		.cfi_endproc
 133              	.LFE3135:
 135              		.section	.text._ZN3oam12time_machine19TimeMachineHardware4Impl8StartDacEPFvPPtjE,"ax",%progbits
 136              		.align	1
 137              		.p2align 2,,3
 138              		.global	_ZN3oam12time_machine19TimeMachineHardware4Impl8StartDacEPFvPPtjE
 139              		.syntax unified
 140              		.thumb
 141              		.thumb_func
 143              	_ZN3oam12time_machine19TimeMachineHardware4Impl8StartDacEPFvPPtjE:
 144              	.LVL6:
 145              	.LFB3136:
 184:time_machine_hardware.cpp ****         if(dac_running_)
 146              		.loc 1 184 5 is_stmt 1 view -0
 147              		.cfi_startproc
 148              		@ args = 0, pretend = 0, frame = 0
 149              		@ frame_needed = 0, uses_anonymous_args = 0
 185:time_machine_hardware.cpp ****             dac_.Stop();
 150              		.loc 1 185 9 view .LVU35
 151 0000 037D     		ldrb	r3, [r0, #20]	@ zero_extendqisi2
 184:time_machine_hardware.cpp ****         if(dac_running_)
 152              		.loc 1 184 5 is_stmt 0 view .LVU36
 153 0002 70B5     		push	{r4, r5, r6, lr}
 154              		.cfi_def_cfa_offset 16
 155              		.cfi_offset 4, -16
 156              		.cfi_offset 5, -12
 157              		.cfi_offset 6, -8
 158              		.cfi_offset 14, -4
 159 0004 0446     		mov	r4, r0
 160 0006 82B0     		sub	sp, sp, #8
 161              		.cfi_def_cfa_offset 24
 184:time_machine_hardware.cpp ****         if(dac_running_)
 162              		.loc 1 184 5 view .LVU37
 163 0008 0D46     		mov	r5, r1
 186:time_machine_hardware.cpp ****         dac_.Start(internal_dac_buffer_[0],
 164              		.loc 1 186 22 view .LVU38
 165 000a 00F11006 		add	r6, r0, #16
ARM GAS  /var/folders/xd/16jvbr6j24q9nvtpm0qtw3240000gn/T//cch9jPA2.s 			page 8


 185:time_machine_hardware.cpp ****             dac_.Stop();
 166              		.loc 1 185 9 view .LVU39
 167 000e 5BB9     		cbnz	r3, .L14
 187:time_machine_hardware.cpp ****                    internal_dac_buffer_[1],
 168              		.loc 1 187 9 is_stmt 1 view .LVU40
 187:time_machine_hardware.cpp ****                    internal_dac_buffer_[1],
 169              		.loc 1 187 19 is_stmt 0 view .LVU41
 170 0010 2368     		ldr	r3, [r4]
 171 0012 D4E90112 		ldrd	r1, r2, [r4, #4]
 172              	.LVL7:
 187:time_machine_hardware.cpp ****                    internal_dac_buffer_[1],
 173              		.loc 1 187 19 view .LVU42
 174 0016 7DB1     		cbz	r5, .L18
 175              	.LVL8:
 176              	.L16:
 187:time_machine_hardware.cpp ****                    internal_dac_buffer_[1],
 177              		.loc 1 187 19 discriminator 4 view .LVU43
 178 0018 3046     		mov	r0, r6
 179 001a 0095     		str	r5, [sp]
 180 001c FFF7FEFF 		bl	_ZN5daisy9DacHandle5StartEPtS1_jPFvPS1_jE
 181              	.LVL9:
 191:time_machine_hardware.cpp ****     }
 182              		.loc 1 191 9 is_stmt 1 discriminator 4 view .LVU44
 191:time_machine_hardware.cpp ****     }
 183              		.loc 1 191 22 is_stmt 0 discriminator 4 view .LVU45
 184 0020 0123     		movs	r3, #1
 185 0022 2375     		strb	r3, [r4, #20]
 192:time_machine_hardware.cpp **** 
 186              		.loc 1 192 5 discriminator 4 view .LVU46
 187 0024 02B0     		add	sp, sp, #8
 188              		.cfi_remember_state
 189              		.cfi_def_cfa_offset 16
 190              		@ sp needed
 191 0026 70BD     		pop	{r4, r5, r6, pc}
 192              	.LVL10:
 193              	.L14:
 194              		.cfi_restore_state
 186:time_machine_hardware.cpp ****         dac_.Start(internal_dac_buffer_[0],
 195              		.loc 1 186 13 is_stmt 1 view .LVU47
 186:time_machine_hardware.cpp ****         dac_.Start(internal_dac_buffer_[0],
 196              		.loc 1 186 22 is_stmt 0 view .LVU48
 197 0028 3046     		mov	r0, r6
 198              	.LVL11:
 186:time_machine_hardware.cpp ****         dac_.Start(internal_dac_buffer_[0],
 199              		.loc 1 186 22 view .LVU49
 200 002a FFF7FEFF 		bl	_ZN5daisy9DacHandle4StopEv
 201              	.LVL12:
 187:time_machine_hardware.cpp ****                    internal_dac_buffer_[1],
 202              		.loc 1 187 9 is_stmt 1 view .LVU50
 187:time_machine_hardware.cpp ****                    internal_dac_buffer_[1],
 203              		.loc 1 187 19 is_stmt 0 view .LVU51
 204 002e 2368     		ldr	r3, [r4]
 205 0030 D4E90112 		ldrd	r1, r2, [r4, #4]
 206 0034 002D     		cmp	r5, #0
 207 0036 EFD1     		bne	.L16
 208              	.L18:
 187:time_machine_hardware.cpp ****                    internal_dac_buffer_[1],
ARM GAS  /var/folders/xd/16jvbr6j24q9nvtpm0qtw3240000gn/T//cch9jPA2.s 			page 9


 209              		.loc 1 187 19 view .LVU52
 210 0038 004D     		ldr	r5, .L19
 211              	.LVL13:
 187:time_machine_hardware.cpp ****                    internal_dac_buffer_[1],
 212              		.loc 1 187 19 view .LVU53
 213 003a EDE7     		b	.L16
 214              	.L20:
 215              		.align	2
 216              	.L19:
 217 003c 00000000 		.word	_ZN3oam12time_machine19TimeMachineHardware4Impl19InternalDacCallbackEPPtj
 218              		.cfi_endproc
 219              	.LFE3136:
 221              		.section	.text._ZN3oam12time_machine19TimeMachineHardware4Impl7StopDacEv,"ax",%progbits
 222              		.align	1
 223              		.p2align 2,,3
 224              		.global	_ZN3oam12time_machine19TimeMachineHardware4Impl7StopDacEv
 225              		.syntax unified
 226              		.thumb
 227              		.thumb_func
 229              	_ZN3oam12time_machine19TimeMachineHardware4Impl7StopDacEv:
 230              	.LVL14:
 231              	.LFB3137:
 195:time_machine_hardware.cpp ****         dac_.Stop();
 232              		.loc 1 195 5 is_stmt 1 view -0
 233              		.cfi_startproc
 234              		@ args = 0, pretend = 0, frame = 0
 235              		@ frame_needed = 0, uses_anonymous_args = 0
 196:time_machine_hardware.cpp ****         dac_running_ = false;
 236              		.loc 1 196 9 view .LVU55
 195:time_machine_hardware.cpp ****         dac_.Stop();
 237              		.loc 1 195 5 is_stmt 0 view .LVU56
 238 0000 10B5     		push	{r4, lr}
 239              		.cfi_def_cfa_offset 8
 240              		.cfi_offset 4, -8
 241              		.cfi_offset 14, -4
 195:time_machine_hardware.cpp ****         dac_.Stop();
 242              		.loc 1 195 5 view .LVU57
 243 0002 0446     		mov	r4, r0
 196:time_machine_hardware.cpp ****         dac_running_ = false;
 244              		.loc 1 196 18 view .LVU58
 245 0004 1030     		adds	r0, r0, #16
 246              	.LVL15:
 196:time_machine_hardware.cpp ****         dac_running_ = false;
 247              		.loc 1 196 18 view .LVU59
 248 0006 FFF7FEFF 		bl	_ZN5daisy9DacHandle4StopEv
 249              	.LVL16:
 197:time_machine_hardware.cpp ****     }
 250              		.loc 1 197 9 is_stmt 1 view .LVU60
 197:time_machine_hardware.cpp ****     }
 251              		.loc 1 197 22 is_stmt 0 view .LVU61
 252 000a 0023     		movs	r3, #0
 253 000c 2375     		strb	r3, [r4, #20]
 198:time_machine_hardware.cpp **** 
 254              		.loc 1 198 5 view .LVU62
 255 000e 10BD     		pop	{r4, pc}
 198:time_machine_hardware.cpp **** 
 256              		.loc 1 198 5 view .LVU63
ARM GAS  /var/folders/xd/16jvbr6j24q9nvtpm0qtw3240000gn/T//cch9jPA2.s 			page 10


 257              		.cfi_endproc
 258              	.LFE3137:
 260              		.section	.text._ZN3oam12time_machine19TimeMachineHardware4InitEv,"ax",%progbits
 261              		.align	1
 262              		.p2align 2,,3
 263              		.global	_ZN3oam12time_machine19TimeMachineHardware4InitEv
 264              		.syntax unified
 265              		.thumb
 266              		.thumb_func
 268              	_ZN3oam12time_machine19TimeMachineHardware4InitEv:
 269              	.LVL17:
 270              	.LFB3139:
 212:time_machine_hardware.cpp **** 
 213:time_machine_hardware.cpp **** /** Actual TimeMachineHardware implementation
 214:time_machine_hardware.cpp ****  *  With the pimpl model in place, we can/should probably
 215:time_machine_hardware.cpp ****  *  move the rest of the implementation to the Impl class
 216:time_machine_hardware.cpp ****  */
 217:time_machine_hardware.cpp **** 
 218:time_machine_hardware.cpp ****     void TimeMachineHardware::Init()
 219:time_machine_hardware.cpp ****     {
 271              		.loc 1 219 5 is_stmt 1 view -0
 272              		.cfi_startproc
 273              		@ args = 0, pretend = 0, frame = 1736
 274              		@ frame_needed = 0, uses_anonymous_args = 0
 220:time_machine_hardware.cpp ****         /** Assign pimpl pointer */
 221:time_machine_hardware.cpp ****         pimpl_ = &patch_sm_hw;
 275              		.loc 1 221 9 view .LVU65
 219:time_machine_hardware.cpp ****         /** Assign pimpl pointer */
 276              		.loc 1 219 5 is_stmt 0 view .LVU66
 277 0000 2DE9F047 		push	{r4, r5, r6, r7, r8, r9, r10, lr}
 278              		.cfi_def_cfa_offset 32
 279              		.cfi_offset 4, -32
 280              		.cfi_offset 5, -28
 281              		.cfi_offset 6, -24
 282              		.cfi_offset 7, -20
 283              		.cfi_offset 8, -16
 284              		.cfi_offset 9, -12
 285              		.cfi_offset 10, -8
 286              		.cfi_offset 14, -4
 287              	.LBB584:
 288              	.LBB585:
 289              		.file 2 "/Users/jonask/Music/Daisy/libDaisy/src/sys/system.h"
   1:/Users/jonask/Music/Daisy/libDaisy/src/sys/system.h **** #ifndef DSY_SYSTEM_H
   2:/Users/jonask/Music/Daisy/libDaisy/src/sys/system.h **** #define DSY_SYSTEM_H
   3:/Users/jonask/Music/Daisy/libDaisy/src/sys/system.h **** 
   4:/Users/jonask/Music/Daisy/libDaisy/src/sys/system.h **** #ifndef UNIT_TEST // for unit tests, a dummy implementation is provided below
   5:/Users/jonask/Music/Daisy/libDaisy/src/sys/system.h **** 
   6:/Users/jonask/Music/Daisy/libDaisy/src/sys/system.h **** #include <cstdint>
   7:/Users/jonask/Music/Daisy/libDaisy/src/sys/system.h **** #include "per/tim.h"
   8:/Users/jonask/Music/Daisy/libDaisy/src/sys/system.h **** 
   9:/Users/jonask/Music/Daisy/libDaisy/src/sys/system.h **** namespace daisy
  10:/Users/jonask/Music/Daisy/libDaisy/src/sys/system.h **** {
  11:/Users/jonask/Music/Daisy/libDaisy/src/sys/system.h **** /** A handle for interacting with the Core System.
  12:/Users/jonask/Music/Daisy/libDaisy/src/sys/system.h ****  ** This includes the Clock tree, MPU, global DMA initialization,
  13:/Users/jonask/Music/Daisy/libDaisy/src/sys/system.h ****  ** cache handling, and any other necessary global initiailzation
  14:/Users/jonask/Music/Daisy/libDaisy/src/sys/system.h ****  **
  15:/Users/jonask/Music/Daisy/libDaisy/src/sys/system.h ****  ** @author shensley
ARM GAS  /var/folders/xd/16jvbr6j24q9nvtpm0qtw3240000gn/T//cch9jPA2.s 			page 11


  16:/Users/jonask/Music/Daisy/libDaisy/src/sys/system.h ****  ** @ingroup system
  17:/Users/jonask/Music/Daisy/libDaisy/src/sys/system.h ****  */
  18:/Users/jonask/Music/Daisy/libDaisy/src/sys/system.h **** class System
  19:/Users/jonask/Music/Daisy/libDaisy/src/sys/system.h **** {
  20:/Users/jonask/Music/Daisy/libDaisy/src/sys/system.h ****   public:
  21:/Users/jonask/Music/Daisy/libDaisy/src/sys/system.h ****     /** Contains settings for initializing the System */
  22:/Users/jonask/Music/Daisy/libDaisy/src/sys/system.h ****     struct Config
  23:/Users/jonask/Music/Daisy/libDaisy/src/sys/system.h ****     {
  24:/Users/jonask/Music/Daisy/libDaisy/src/sys/system.h ****         /** Specifies the system clock frequency that feeds APB/AHB clocks, etc. */
  25:/Users/jonask/Music/Daisy/libDaisy/src/sys/system.h ****         enum class SysClkFreq
  26:/Users/jonask/Music/Daisy/libDaisy/src/sys/system.h ****         {
  27:/Users/jonask/Music/Daisy/libDaisy/src/sys/system.h ****             FREQ_400MHZ,
  28:/Users/jonask/Music/Daisy/libDaisy/src/sys/system.h ****             FREQ_480MHZ,
  29:/Users/jonask/Music/Daisy/libDaisy/src/sys/system.h ****         };
  30:/Users/jonask/Music/Daisy/libDaisy/src/sys/system.h **** 
  31:/Users/jonask/Music/Daisy/libDaisy/src/sys/system.h ****         /** Method to call on the struct to set to defaults
  32:/Users/jonask/Music/Daisy/libDaisy/src/sys/system.h ****          ** CPU Freq set to 400MHz
  33:/Users/jonask/Music/Daisy/libDaisy/src/sys/system.h ****          ** Cache Enabled
  34:/Users/jonask/Music/Daisy/libDaisy/src/sys/system.h ****          ** */
  35:/Users/jonask/Music/Daisy/libDaisy/src/sys/system.h ****         void Defaults()
  36:/Users/jonask/Music/Daisy/libDaisy/src/sys/system.h ****         {
  37:/Users/jonask/Music/Daisy/libDaisy/src/sys/system.h ****             cpu_freq    = SysClkFreq::FREQ_400MHZ;
  38:/Users/jonask/Music/Daisy/libDaisy/src/sys/system.h ****             use_dcache  = true;
  39:/Users/jonask/Music/Daisy/libDaisy/src/sys/system.h ****             use_icache  = true;
  40:/Users/jonask/Music/Daisy/libDaisy/src/sys/system.h ****             skip_clocks = false;
  41:/Users/jonask/Music/Daisy/libDaisy/src/sys/system.h ****         }
  42:/Users/jonask/Music/Daisy/libDaisy/src/sys/system.h **** 
  43:/Users/jonask/Music/Daisy/libDaisy/src/sys/system.h ****         /** Method to call on the struct to set to boost mode:
  44:/Users/jonask/Music/Daisy/libDaisy/src/sys/system.h ****          ** CPU Freq set to 480MHz
  45:/Users/jonask/Music/Daisy/libDaisy/src/sys/system.h ****          ** Cache Enabled
  46:/Users/jonask/Music/Daisy/libDaisy/src/sys/system.h ****          ** */
  47:/Users/jonask/Music/Daisy/libDaisy/src/sys/system.h ****         void Boost()
  48:/Users/jonask/Music/Daisy/libDaisy/src/sys/system.h ****         {
  49:/Users/jonask/Music/Daisy/libDaisy/src/sys/system.h ****             cpu_freq    = SysClkFreq::FREQ_480MHZ;
  50:/Users/jonask/Music/Daisy/libDaisy/src/sys/system.h ****             use_dcache  = true;
 290              		.loc 2 50 25 view .LVU67
 291 0004 40F20113 		movw	r3, #257
 292              	.LBE585:
 293              	.LBE584:
 294              		.loc 1 221 16 view .LVU68
 295 0008 C84A     		ldr	r2, .L64
 296              	.LBB588:
 297              	.LBB586:
  49:/Users/jonask/Music/Daisy/libDaisy/src/sys/system.h ****             use_dcache  = true;
 298              		.loc 2 49 25 view .LVU69
 299 000a 0126     		movs	r6, #1
 300              	.LBE586:
 301              	.LBE588:
 219:time_machine_hardware.cpp ****         /** Assign pimpl pointer */
 302              		.loc 1 219 5 view .LVU70
 303 000c 0546     		mov	r5, r0
 304 000e 2DED028B 		vpush.64	{d8}
 305              		.cfi_def_cfa_offset 40
 306              		.cfi_offset 80, -40
 307              		.cfi_offset 81, -36
 308 0012 ADF5DB6D 		sub	sp, sp, #1752
 309              		.cfi_def_cfa_offset 1792
ARM GAS  /var/folders/xd/16jvbr6j24q9nvtpm0qtw3240000gn/T//cch9jPA2.s 			page 12


 310              		.loc 1 221 16 view .LVU71
 311 0016 C0F81C22 		str	r2, [r0, #540]
 222:time_machine_hardware.cpp ****         /** Initialize the MCU and clock tree */
 223:time_machine_hardware.cpp ****         System::Config syscfg;
 312              		.loc 1 223 9 is_stmt 1 view .LVU72
 224:time_machine_hardware.cpp ****         syscfg.Boost();
 313              		.loc 1 224 9 view .LVU73
 314              	.LVL18:
 315              	.LBB589:
 316              	.LBI584:
  47:/Users/jonask/Music/Daisy/libDaisy/src/sys/system.h ****         {
 317              		.loc 2 47 14 view .LVU74
 318              	.LBB587:
  49:/Users/jonask/Music/Daisy/libDaisy/src/sys/system.h ****             use_dcache  = true;
 319              		.loc 2 49 13 view .LVU75
 320              		.loc 2 50 13 view .LVU76
  51:/Users/jonask/Music/Daisy/libDaisy/src/sys/system.h ****             use_icache  = true;
 321              		.loc 2 51 13 view .LVU77
  52:/Users/jonask/Music/Daisy/libDaisy/src/sys/system.h ****             skip_clocks = false;
 322              		.loc 2 52 13 view .LVU78
  50:/Users/jonask/Music/Daisy/libDaisy/src/sys/system.h ****             use_icache  = true;
 323              		.loc 2 50 25 is_stmt 0 view .LVU79
 324 001a ADF82030 		strh	r3, [sp, #32]	@ movhi
 325              		.loc 2 52 25 view .LVU80
 326 001e 0023     		movs	r3, #0
  49:/Users/jonask/Music/Daisy/libDaisy/src/sys/system.h ****             use_dcache  = true;
 327              		.loc 2 49 25 view .LVU81
 328 0020 0796     		str	r6, [sp, #28]
 329              		.loc 2 52 25 view .LVU82
 330 0022 8DF82230 		strb	r3, [sp, #34]
 331              	.LVL19:
 332              		.loc 2 52 25 view .LVU83
 333              	.LBE587:
 334              	.LBE589:
 225:time_machine_hardware.cpp **** 
 226:time_machine_hardware.cpp ****         auto memory = System::GetProgramMemoryRegion();
 335              		.loc 1 226 9 is_stmt 1 view .LVU84
 336              		.loc 1 226 53 is_stmt 0 view .LVU85
 337 0026 FFF7FEFF 		bl	_ZN5daisy6System22GetProgramMemoryRegionEv
 338              	.LVL20:
 227:time_machine_hardware.cpp ****         if (memory != System::MemoryRegion::INTERNAL_FLASH)
 339              		.loc 1 227 9 is_stmt 1 view .LVU86
 340 002a 0028     		cmp	r0, #0
 341 002c 40F06D81 		bne	.L61
 228:time_machine_hardware.cpp ****         {
 229:time_machine_hardware.cpp ****             syscfg.skip_clocks = true;
 230:time_machine_hardware.cpp ****         }
 231:time_machine_hardware.cpp **** 
 232:time_machine_hardware.cpp ****         system.Init(syscfg);
 342              		.loc 1 232 9 view .LVU87
 343              		.loc 1 232 20 is_stmt 0 view .LVU88
 344 0030 2846     		mov	r0, r5
 345              	.LVL21:
 346              		.loc 1 232 20 view .LVU89
 347 0032 07A9     		add	r1, sp, #28
 348 0034 FFF7FEFF 		bl	_ZN5daisy6System4InitERKNS0_6ConfigE
 349              	.LVL22:
ARM GAS  /var/folders/xd/16jvbr6j24q9nvtpm0qtw3240000gn/T//cch9jPA2.s 			page 13


 233:time_machine_hardware.cpp **** 
 234:time_machine_hardware.cpp ****         /** Memories */
 235:time_machine_hardware.cpp ****         if (memory == System::MemoryRegion::INTERNAL_FLASH)
 350              		.loc 1 235 9 is_stmt 1 view .LVU90
 236:time_machine_hardware.cpp ****         {
 237:time_machine_hardware.cpp ****             /** FMC SDRAM */
 238:time_machine_hardware.cpp ****             sdram.Init();
 351              		.loc 1 238 13 view .LVU91
 352              		.loc 1 238 23 is_stmt 0 view .LVU92
 353 0038 05F10800 		add	r0, r5, #8
 354 003c FFF7FEFF 		bl	_ZN11SdramHandle4InitEv
 355              	.LVL23:
 239:time_machine_hardware.cpp ****         }
 240:time_machine_hardware.cpp **** 
 241:time_machine_hardware.cpp ****         if (memory != System::MemoryRegion::QSPI)
 356              		.loc 1 241 9 is_stmt 1 view .LVU93
 357              	.L45:
 358              	.LBB590:
 359              	.LBB591:
 242:time_machine_hardware.cpp ****         {
 243:time_machine_hardware.cpp ****             /** QUADSPI FLASH */
 244:time_machine_hardware.cpp ****             QSPIHandle::Config qspi_config;
 360              		.loc 1 244 13 view .LVU94
 361              	.LBB592:
 362              	.LBI592:
 363              		.file 3 "/Users/jonask/Music/Daisy/libDaisy/src/per/qspi.h"
   1:/Users/jonask/Music/Daisy/libDaisy/src/per/qspi.h **** #ifndef DSY_QSPI
   2:/Users/jonask/Music/Daisy/libDaisy/src/per/qspi.h **** #define DSY_QSPI /**< Macro */
   3:/Users/jonask/Music/Daisy/libDaisy/src/per/qspi.h **** 
   4:/Users/jonask/Music/Daisy/libDaisy/src/per/qspi.h **** #ifndef UNIT_TEST // for unit tests, a dummy implementation
   5:/Users/jonask/Music/Daisy/libDaisy/src/per/qspi.h **** 
   6:/Users/jonask/Music/Daisy/libDaisy/src/per/qspi.h **** #include <cstdint>
   7:/Users/jonask/Music/Daisy/libDaisy/src/per/qspi.h **** #include "daisy_core.h"
   8:/Users/jonask/Music/Daisy/libDaisy/src/per/qspi.h **** #include "util/hal_map.h"
   9:/Users/jonask/Music/Daisy/libDaisy/src/per/qspi.h **** 
  10:/Users/jonask/Music/Daisy/libDaisy/src/per/qspi.h **** #define DSY_QSPI_TEXT       \
  11:/Users/jonask/Music/Daisy/libDaisy/src/per/qspi.h ****     __attribute__((section( \
  12:/Users/jonask/Music/Daisy/libDaisy/src/per/qspi.h ****         ".qspiflash_text"))) /**< used for reading memory in memory_mapped mode. */
  13:/Users/jonask/Music/Daisy/libDaisy/src/per/qspi.h **** #define DSY_QSPI_DATA       \
  14:/Users/jonask/Music/Daisy/libDaisy/src/per/qspi.h ****     __attribute__((section( \
  15:/Users/jonask/Music/Daisy/libDaisy/src/per/qspi.h ****         ".qspiflash_data"))) /**< used for reading memory in memory_mapped mode. */
  16:/Users/jonask/Music/Daisy/libDaisy/src/per/qspi.h **** #define DSY_QSPI_BSS        \
  17:/Users/jonask/Music/Daisy/libDaisy/src/per/qspi.h ****     __attribute__((section( \
  18:/Users/jonask/Music/Daisy/libDaisy/src/per/qspi.h ****         ".qspiflash_bss"))) /**< used for reading memory in memory_mapped mode. */
  19:/Users/jonask/Music/Daisy/libDaisy/src/per/qspi.h **** 
  20:/Users/jonask/Music/Daisy/libDaisy/src/per/qspi.h **** namespace daisy
  21:/Users/jonask/Music/Daisy/libDaisy/src/per/qspi.h **** {
  22:/Users/jonask/Music/Daisy/libDaisy/src/per/qspi.h **** /** @addtogroup serial
  23:/Users/jonask/Music/Daisy/libDaisy/src/per/qspi.h **** @{
  24:/Users/jonask/Music/Daisy/libDaisy/src/per/qspi.h **** */
  25:/Users/jonask/Music/Daisy/libDaisy/src/per/qspi.h **** 
  26:/Users/jonask/Music/Daisy/libDaisy/src/per/qspi.h **** /** 
  27:/Users/jonask/Music/Daisy/libDaisy/src/per/qspi.h ****  Driver for QSPI peripheral to interface with external flash memory. \n 
  28:/Users/jonask/Music/Daisy/libDaisy/src/per/qspi.h ****     Currently supported QSPI Devices: \n 
  29:/Users/jonask/Music/Daisy/libDaisy/src/per/qspi.h ****     * IS25LP080D
  30:/Users/jonask/Music/Daisy/libDaisy/src/per/qspi.h **** */
  31:/Users/jonask/Music/Daisy/libDaisy/src/per/qspi.h **** class QSPIHandle
ARM GAS  /var/folders/xd/16jvbr6j24q9nvtpm0qtw3240000gn/T//cch9jPA2.s 			page 14


  32:/Users/jonask/Music/Daisy/libDaisy/src/per/qspi.h **** {
  33:/Users/jonask/Music/Daisy/libDaisy/src/per/qspi.h ****   public:
  34:/Users/jonask/Music/Daisy/libDaisy/src/per/qspi.h ****     enum Result
  35:/Users/jonask/Music/Daisy/libDaisy/src/per/qspi.h ****     {
  36:/Users/jonask/Music/Daisy/libDaisy/src/per/qspi.h ****         OK = 0,
  37:/Users/jonask/Music/Daisy/libDaisy/src/per/qspi.h ****         ERR
  38:/Users/jonask/Music/Daisy/libDaisy/src/per/qspi.h ****     };
  39:/Users/jonask/Music/Daisy/libDaisy/src/per/qspi.h **** 
  40:/Users/jonask/Music/Daisy/libDaisy/src/per/qspi.h ****     /** Indicates the current status of the module. 
  41:/Users/jonask/Music/Daisy/libDaisy/src/per/qspi.h ****          *  Warnings are indicated by a leading W.
  42:/Users/jonask/Music/Daisy/libDaisy/src/per/qspi.h ****          *  Errors are indicated by a leading E and cause an immediate exit.
  43:/Users/jonask/Music/Daisy/libDaisy/src/per/qspi.h ****          * 
  44:/Users/jonask/Music/Daisy/libDaisy/src/per/qspi.h ****          *  \param GOOD - No errors have been reported.
  45:/Users/jonask/Music/Daisy/libDaisy/src/per/qspi.h ****          *  \param E_HAL_ERROR - HAL code did not return HAL_OK.
  46:/Users/jonask/Music/Daisy/libDaisy/src/per/qspi.h ****          *  \param E_SWITCHING_MODES - An error was encountered while switching QSPI peripheral mod
  47:/Users/jonask/Music/Daisy/libDaisy/src/per/qspi.h ****          *  \param E_INVALID_MODE - QSPI should not be written to while the program is executing fr
  48:/Users/jonask/Music/Daisy/libDaisy/src/per/qspi.h ****          */
  49:/Users/jonask/Music/Daisy/libDaisy/src/per/qspi.h ****     enum Status
  50:/Users/jonask/Music/Daisy/libDaisy/src/per/qspi.h ****     {
  51:/Users/jonask/Music/Daisy/libDaisy/src/per/qspi.h ****         GOOD = 0,
  52:/Users/jonask/Music/Daisy/libDaisy/src/per/qspi.h ****         E_HAL_ERROR,
  53:/Users/jonask/Music/Daisy/libDaisy/src/per/qspi.h ****         E_SWITCHING_MODES,
  54:/Users/jonask/Music/Daisy/libDaisy/src/per/qspi.h ****         E_INVALID_MODE,
  55:/Users/jonask/Music/Daisy/libDaisy/src/per/qspi.h ****     };
  56:/Users/jonask/Music/Daisy/libDaisy/src/per/qspi.h **** 
  57:/Users/jonask/Music/Daisy/libDaisy/src/per/qspi.h ****     /** Configuration structure for interfacing with QSPI Driver */
  58:/Users/jonask/Music/Daisy/libDaisy/src/per/qspi.h ****     struct Config
 364              		.loc 3 58 12 view .LVU95
 365              	.LBB593:
 366              	.LBI593:
  59:/Users/jonask/Music/Daisy/libDaisy/src/per/qspi.h ****     {
  60:/Users/jonask/Music/Daisy/libDaisy/src/per/qspi.h ****         /** Flash Devices supported. (Both of these are more-or-less the same, just different sizes
  61:/Users/jonask/Music/Daisy/libDaisy/src/per/qspi.h ****         enum Device
  62:/Users/jonask/Music/Daisy/libDaisy/src/per/qspi.h ****         {
  63:/Users/jonask/Music/Daisy/libDaisy/src/per/qspi.h ****             IS25LP080D,  /**< & */
  64:/Users/jonask/Music/Daisy/libDaisy/src/per/qspi.h ****             IS25LP064A,  /**< & */
  65:/Users/jonask/Music/Daisy/libDaisy/src/per/qspi.h ****             DEVICE_LAST, /**< & */
  66:/Users/jonask/Music/Daisy/libDaisy/src/per/qspi.h ****         };
  67:/Users/jonask/Music/Daisy/libDaisy/src/per/qspi.h **** 
  68:/Users/jonask/Music/Daisy/libDaisy/src/per/qspi.h ****         /** 
  69:/Users/jonask/Music/Daisy/libDaisy/src/per/qspi.h ****         Modes of operation.
  70:/Users/jonask/Music/Daisy/libDaisy/src/per/qspi.h ****         Memory Mapped mode: QSPI configured so that the QSPI can be
  71:/Users/jonask/Music/Daisy/libDaisy/src/per/qspi.h ****         read from starting address 0x90000000. Writing is not
  72:/Users/jonask/Music/Daisy/libDaisy/src/per/qspi.h ****         possible in this mode. \n 
  73:/Users/jonask/Music/Daisy/libDaisy/src/per/qspi.h ****         Indirect Polling mode: Device driver enabled. 
  74:/Users/jonask/Music/Daisy/libDaisy/src/per/qspi.h ****         */
  75:/Users/jonask/Music/Daisy/libDaisy/src/per/qspi.h ****         enum Mode
  76:/Users/jonask/Music/Daisy/libDaisy/src/per/qspi.h ****         {
  77:/Users/jonask/Music/Daisy/libDaisy/src/per/qspi.h ****             MEMORY_MAPPED,    /**< & */
  78:/Users/jonask/Music/Daisy/libDaisy/src/per/qspi.h ****             INDIRECT_POLLING, /**< & */
  79:/Users/jonask/Music/Daisy/libDaisy/src/per/qspi.h ****             MODE_LAST,
  80:/Users/jonask/Music/Daisy/libDaisy/src/per/qspi.h ****         };
  81:/Users/jonask/Music/Daisy/libDaisy/src/per/qspi.h **** 
  82:/Users/jonask/Music/Daisy/libDaisy/src/per/qspi.h ****         //SCK,  CE# (active low)
  83:/Users/jonask/Music/Daisy/libDaisy/src/per/qspi.h ****         struct
  84:/Users/jonask/Music/Daisy/libDaisy/src/per/qspi.h ****         {
 367              		.loc 3 84 9 view .LVU96
ARM GAS  /var/folders/xd/16jvbr6j24q9nvtpm0qtw3240000gn/T//cch9jPA2.s 			page 15


 368              	.LBB594:
 369              	.LBI594:
 370              		.file 4 "/Users/jonask/Music/Daisy/libDaisy/src/daisy_core.h"
   1:/Users/jonask/Music/Daisy/libDaisy/src/daisy_core.h **** #pragma once
   2:/Users/jonask/Music/Daisy/libDaisy/src/daisy_core.h **** #ifndef DSY_CORE_HW_H
   3:/Users/jonask/Music/Daisy/libDaisy/src/daisy_core.h **** #define DSY_CORE_HW_H /**< & */
   4:/Users/jonask/Music/Daisy/libDaisy/src/daisy_core.h **** #include <stdint.h>
   5:/Users/jonask/Music/Daisy/libDaisy/src/daisy_core.h **** #include <stdlib.h>
   6:/Users/jonask/Music/Daisy/libDaisy/src/daisy_core.h **** 
   7:/Users/jonask/Music/Daisy/libDaisy/src/daisy_core.h **** #if defined(_MSC_VER)
   8:/Users/jonask/Music/Daisy/libDaisy/src/daisy_core.h **** #define FORCE_INLINE __forceinline /**< & */
   9:/Users/jonask/Music/Daisy/libDaisy/src/daisy_core.h **** #elif defined(__clang__)
  10:/Users/jonask/Music/Daisy/libDaisy/src/daisy_core.h **** #define FORCE_INLINE inline __attribute__((always_inline)) /**< & */
  11:/Users/jonask/Music/Daisy/libDaisy/src/daisy_core.h **** #pragma clang diagnostic ignored "-Wduplicate-decl-specifier"
  12:/Users/jonask/Music/Daisy/libDaisy/src/daisy_core.h **** #elif defined(__GNUC__)
  13:/Users/jonask/Music/Daisy/libDaisy/src/daisy_core.h **** #define FORCE_INLINE inline __attribute__((always_inline)) /**< & */
  14:/Users/jonask/Music/Daisy/libDaisy/src/daisy_core.h **** #else
  15:/Users/jonask/Music/Daisy/libDaisy/src/daisy_core.h **** #error unknown compiler
  16:/Users/jonask/Music/Daisy/libDaisy/src/daisy_core.h **** #endif
  17:/Users/jonask/Music/Daisy/libDaisy/src/daisy_core.h **** 
  18:/Users/jonask/Music/Daisy/libDaisy/src/daisy_core.h **** /** @addtogroup utility
  19:/Users/jonask/Music/Daisy/libDaisy/src/daisy_core.h ****     @{
  20:/Users/jonask/Music/Daisy/libDaisy/src/daisy_core.h **** */
  21:/Users/jonask/Music/Daisy/libDaisy/src/daisy_core.h **** 
  22:/Users/jonask/Music/Daisy/libDaisy/src/daisy_core.h **** /** Macro for area of memory that is configured as cacheless
  23:/Users/jonask/Music/Daisy/libDaisy/src/daisy_core.h **** This should be used primarily for DMA buffers, and the like.
  24:/Users/jonask/Music/Daisy/libDaisy/src/daisy_core.h **** */
  25:/Users/jonask/Music/Daisy/libDaisy/src/daisy_core.h **** #define DMA_BUFFER_MEM_SECTION __attribute__((section(".sram1_bss")))
  26:/Users/jonask/Music/Daisy/libDaisy/src/daisy_core.h **** /** 
  27:/Users/jonask/Music/Daisy/libDaisy/src/daisy_core.h **** THE DTCM RAM section is also non-cached. However, is not suitable 
  28:/Users/jonask/Music/Daisy/libDaisy/src/daisy_core.h **** for DMA transfers. Performance is on par with internal SRAM w/ 
  29:/Users/jonask/Music/Daisy/libDaisy/src/daisy_core.h **** cache enabled.
  30:/Users/jonask/Music/Daisy/libDaisy/src/daisy_core.h **** */
  31:/Users/jonask/Music/Daisy/libDaisy/src/daisy_core.h **** #define DTCM_MEM_SECTION __attribute__((section(".dtcmram_bss")))
  32:/Users/jonask/Music/Daisy/libDaisy/src/daisy_core.h **** 
  33:/Users/jonask/Music/Daisy/libDaisy/src/daisy_core.h **** #define FBIPMAX 0.999985f             /**< close to 1.0f-LSB at 16 bit */
  34:/Users/jonask/Music/Daisy/libDaisy/src/daisy_core.h **** #define FBIPMIN (-FBIPMAX)            /**< - (1 - LSB) */
  35:/Users/jonask/Music/Daisy/libDaisy/src/daisy_core.h **** #define U82F_SCALE 0.0078740f         /**< 1 / 127 */
  36:/Users/jonask/Music/Daisy/libDaisy/src/daisy_core.h **** #define F2U8_SCALE 127.0f             /**< 128 - 1 */
  37:/Users/jonask/Music/Daisy/libDaisy/src/daisy_core.h **** #define S82F_SCALE 0.0078125f         /**< 1 / (2**7) */
  38:/Users/jonask/Music/Daisy/libDaisy/src/daisy_core.h **** #define F2S8_SCALE 127.0f             /**< (2 ** 7) - 1 */
  39:/Users/jonask/Music/Daisy/libDaisy/src/daisy_core.h **** #define S162F_SCALE 3.0517578125e-05f /**< 1 / (2** 15) */
  40:/Users/jonask/Music/Daisy/libDaisy/src/daisy_core.h **** #define F2S16_SCALE 32767.0f          /**< (2 ** 15) - 1 */
  41:/Users/jonask/Music/Daisy/libDaisy/src/daisy_core.h **** #define F2S24_SCALE 8388608.0f        /**< 2 ** 23 */
  42:/Users/jonask/Music/Daisy/libDaisy/src/daisy_core.h **** #define S242F_SCALE 1.192092896e-07f  /**< 1 / (2 ** 23) */
  43:/Users/jonask/Music/Daisy/libDaisy/src/daisy_core.h **** #define S24SIGN 0x800000              /**< 2 ** 23 */
  44:/Users/jonask/Music/Daisy/libDaisy/src/daisy_core.h **** #define S322F_SCALE 4.6566129e-10f    /**< 1 / (2** 31) */
  45:/Users/jonask/Music/Daisy/libDaisy/src/daisy_core.h **** #define F2S32_SCALE 2147483647.f      /**< (2 ** 31) - 1 */
  46:/Users/jonask/Music/Daisy/libDaisy/src/daisy_core.h **** 
  47:/Users/jonask/Music/Daisy/libDaisy/src/daisy_core.h **** 
  48:/Users/jonask/Music/Daisy/libDaisy/src/daisy_core.h **** /** shorthand macro for simplifying the reading of the left 
  49:/Users/jonask/Music/Daisy/libDaisy/src/daisy_core.h ****  *  channel of a non-interleaved output buffer named out */
  50:/Users/jonask/Music/Daisy/libDaisy/src/daisy_core.h **** #define OUT_L out[0]
  51:/Users/jonask/Music/Daisy/libDaisy/src/daisy_core.h **** 
  52:/Users/jonask/Music/Daisy/libDaisy/src/daisy_core.h **** /** shorthand macro for simplifying the reading of the right 
  53:/Users/jonask/Music/Daisy/libDaisy/src/daisy_core.h ****  *  channel of a non-interleaved output buffer named out */
  54:/Users/jonask/Music/Daisy/libDaisy/src/daisy_core.h **** #define OUT_R out[1]
ARM GAS  /var/folders/xd/16jvbr6j24q9nvtpm0qtw3240000gn/T//cch9jPA2.s 			page 16


  55:/Users/jonask/Music/Daisy/libDaisy/src/daisy_core.h **** 
  56:/Users/jonask/Music/Daisy/libDaisy/src/daisy_core.h **** /** shorthand macro for simplifying the reading of the left 
  57:/Users/jonask/Music/Daisy/libDaisy/src/daisy_core.h ****  *  channel of a non-interleaved input buffer named in */
  58:/Users/jonask/Music/Daisy/libDaisy/src/daisy_core.h **** #define IN_L in[0]
  59:/Users/jonask/Music/Daisy/libDaisy/src/daisy_core.h **** 
  60:/Users/jonask/Music/Daisy/libDaisy/src/daisy_core.h **** /** shorthand macro for simplifying the reading of the right 
  61:/Users/jonask/Music/Daisy/libDaisy/src/daisy_core.h ****  *  channel of a non-interleaved input buffer named in */
  62:/Users/jonask/Music/Daisy/libDaisy/src/daisy_core.h **** #define IN_R in[1]
  63:/Users/jonask/Music/Daisy/libDaisy/src/daisy_core.h **** 
  64:/Users/jonask/Music/Daisy/libDaisy/src/daisy_core.h **** /** 
  65:/Users/jonask/Music/Daisy/libDaisy/src/daisy_core.h ****     Computes cube.
  66:/Users/jonask/Music/Daisy/libDaisy/src/daisy_core.h ****     \param x Number to be cubed
  67:/Users/jonask/Music/Daisy/libDaisy/src/daisy_core.h ****     \return x ^ 3
  68:/Users/jonask/Music/Daisy/libDaisy/src/daisy_core.h **** */
  69:/Users/jonask/Music/Daisy/libDaisy/src/daisy_core.h **** FORCE_INLINE float cube(float x)
  70:/Users/jonask/Music/Daisy/libDaisy/src/daisy_core.h **** {
  71:/Users/jonask/Music/Daisy/libDaisy/src/daisy_core.h ****     return (x * x) * x;
  72:/Users/jonask/Music/Daisy/libDaisy/src/daisy_core.h **** }
  73:/Users/jonask/Music/Daisy/libDaisy/src/daisy_core.h **** 
  74:/Users/jonask/Music/Daisy/libDaisy/src/daisy_core.h **** /** 
  75:/Users/jonask/Music/Daisy/libDaisy/src/daisy_core.h ****     Converts unsigned 8-bit to float
  76:/Users/jonask/Music/Daisy/libDaisy/src/daisy_core.h ****     \param x Number to be scaled.
  77:/Users/jonask/Music/Daisy/libDaisy/src/daisy_core.h ****     \return Scaled number.
  78:/Users/jonask/Music/Daisy/libDaisy/src/daisy_core.h **** */
  79:/Users/jonask/Music/Daisy/libDaisy/src/daisy_core.h **** FORCE_INLINE float u82f(uint8_t x)
  80:/Users/jonask/Music/Daisy/libDaisy/src/daisy_core.h **** {
  81:/Users/jonask/Music/Daisy/libDaisy/src/daisy_core.h ****     return ((float)x - 127.f) * U82F_SCALE;
  82:/Users/jonask/Music/Daisy/libDaisy/src/daisy_core.h **** }
  83:/Users/jonask/Music/Daisy/libDaisy/src/daisy_core.h **** 
  84:/Users/jonask/Music/Daisy/libDaisy/src/daisy_core.h **** /**
  85:/Users/jonask/Music/Daisy/libDaisy/src/daisy_core.h ****     Converts float to unsigned 8-bit
  86:/Users/jonask/Music/Daisy/libDaisy/src/daisy_core.h **** */
  87:/Users/jonask/Music/Daisy/libDaisy/src/daisy_core.h **** FORCE_INLINE uint8_t f2u8(float x)
  88:/Users/jonask/Music/Daisy/libDaisy/src/daisy_core.h **** {
  89:/Users/jonask/Music/Daisy/libDaisy/src/daisy_core.h ****     x = x <= FBIPMIN ? FBIPMIN : x;
  90:/Users/jonask/Music/Daisy/libDaisy/src/daisy_core.h ****     x = x >= FBIPMAX ? FBIPMAX : x;
  91:/Users/jonask/Music/Daisy/libDaisy/src/daisy_core.h ****     return (uint8_t)((x * F2U8_SCALE) + F2U8_SCALE);
  92:/Users/jonask/Music/Daisy/libDaisy/src/daisy_core.h **** }
  93:/Users/jonask/Music/Daisy/libDaisy/src/daisy_core.h **** 
  94:/Users/jonask/Music/Daisy/libDaisy/src/daisy_core.h **** 
  95:/Users/jonask/Music/Daisy/libDaisy/src/daisy_core.h **** /** 
  96:/Users/jonask/Music/Daisy/libDaisy/src/daisy_core.h ****     Converts Signed 8-bit to float
  97:/Users/jonask/Music/Daisy/libDaisy/src/daisy_core.h ****     \param x Number to be scaled.
  98:/Users/jonask/Music/Daisy/libDaisy/src/daisy_core.h ****     \return Scaled number.
  99:/Users/jonask/Music/Daisy/libDaisy/src/daisy_core.h **** */
 100:/Users/jonask/Music/Daisy/libDaisy/src/daisy_core.h **** FORCE_INLINE float s82f(int8_t x)
 101:/Users/jonask/Music/Daisy/libDaisy/src/daisy_core.h **** {
 102:/Users/jonask/Music/Daisy/libDaisy/src/daisy_core.h ****     return (float)x * S82F_SCALE;
 103:/Users/jonask/Music/Daisy/libDaisy/src/daisy_core.h **** }
 104:/Users/jonask/Music/Daisy/libDaisy/src/daisy_core.h **** 
 105:/Users/jonask/Music/Daisy/libDaisy/src/daisy_core.h **** /**
 106:/Users/jonask/Music/Daisy/libDaisy/src/daisy_core.h ****     Converts float to Signed 8-bit
 107:/Users/jonask/Music/Daisy/libDaisy/src/daisy_core.h **** */
 108:/Users/jonask/Music/Daisy/libDaisy/src/daisy_core.h **** FORCE_INLINE int8_t f2s8(float x)
 109:/Users/jonask/Music/Daisy/libDaisy/src/daisy_core.h **** {
 110:/Users/jonask/Music/Daisy/libDaisy/src/daisy_core.h ****     x = x <= FBIPMIN ? FBIPMIN : x;
 111:/Users/jonask/Music/Daisy/libDaisy/src/daisy_core.h ****     x = x >= FBIPMAX ? FBIPMAX : x;
ARM GAS  /var/folders/xd/16jvbr6j24q9nvtpm0qtw3240000gn/T//cch9jPA2.s 			page 17


 112:/Users/jonask/Music/Daisy/libDaisy/src/daisy_core.h ****     return (int32_t)(x * F2S8_SCALE);
 113:/Users/jonask/Music/Daisy/libDaisy/src/daisy_core.h **** }
 114:/Users/jonask/Music/Daisy/libDaisy/src/daisy_core.h **** 
 115:/Users/jonask/Music/Daisy/libDaisy/src/daisy_core.h **** /** 
 116:/Users/jonask/Music/Daisy/libDaisy/src/daisy_core.h ****     Converts Signed 16-bit to float
 117:/Users/jonask/Music/Daisy/libDaisy/src/daisy_core.h ****     \param x Number to be scaled.
 118:/Users/jonask/Music/Daisy/libDaisy/src/daisy_core.h ****     \return Scaled number.
 119:/Users/jonask/Music/Daisy/libDaisy/src/daisy_core.h **** */
 120:/Users/jonask/Music/Daisy/libDaisy/src/daisy_core.h **** FORCE_INLINE float s162f(int16_t x)
 121:/Users/jonask/Music/Daisy/libDaisy/src/daisy_core.h **** {
 122:/Users/jonask/Music/Daisy/libDaisy/src/daisy_core.h ****     return (float)x * S162F_SCALE;
 123:/Users/jonask/Music/Daisy/libDaisy/src/daisy_core.h **** }
 124:/Users/jonask/Music/Daisy/libDaisy/src/daisy_core.h **** 
 125:/Users/jonask/Music/Daisy/libDaisy/src/daisy_core.h **** /**
 126:/Users/jonask/Music/Daisy/libDaisy/src/daisy_core.h ****     Converts float to Signed 16-bit
 127:/Users/jonask/Music/Daisy/libDaisy/src/daisy_core.h **** */
 128:/Users/jonask/Music/Daisy/libDaisy/src/daisy_core.h **** FORCE_INLINE int16_t f2s16(float x)
 129:/Users/jonask/Music/Daisy/libDaisy/src/daisy_core.h **** {
 130:/Users/jonask/Music/Daisy/libDaisy/src/daisy_core.h ****     x = x <= FBIPMIN ? FBIPMIN : x;
 131:/Users/jonask/Music/Daisy/libDaisy/src/daisy_core.h ****     x = x >= FBIPMAX ? FBIPMAX : x;
 132:/Users/jonask/Music/Daisy/libDaisy/src/daisy_core.h ****     return (int32_t)(x * F2S16_SCALE);
 133:/Users/jonask/Music/Daisy/libDaisy/src/daisy_core.h **** }
 134:/Users/jonask/Music/Daisy/libDaisy/src/daisy_core.h **** 
 135:/Users/jonask/Music/Daisy/libDaisy/src/daisy_core.h **** /**
 136:/Users/jonask/Music/Daisy/libDaisy/src/daisy_core.h ****     Converts Signed 24-bit to float
 137:/Users/jonask/Music/Daisy/libDaisy/src/daisy_core.h ****  */
 138:/Users/jonask/Music/Daisy/libDaisy/src/daisy_core.h **** FORCE_INLINE float s242f(int32_t x)
 139:/Users/jonask/Music/Daisy/libDaisy/src/daisy_core.h **** {
 140:/Users/jonask/Music/Daisy/libDaisy/src/daisy_core.h ****     x = (x ^ S24SIGN) - S24SIGN; //sign extend aka ((x<<8)>>8)
 141:/Users/jonask/Music/Daisy/libDaisy/src/daisy_core.h ****     return (float)x * S242F_SCALE;
 142:/Users/jonask/Music/Daisy/libDaisy/src/daisy_core.h **** }
 143:/Users/jonask/Music/Daisy/libDaisy/src/daisy_core.h **** /**
 144:/Users/jonask/Music/Daisy/libDaisy/src/daisy_core.h ****     Converts float to Signed 24-bit
 145:/Users/jonask/Music/Daisy/libDaisy/src/daisy_core.h ****  */
 146:/Users/jonask/Music/Daisy/libDaisy/src/daisy_core.h **** FORCE_INLINE int32_t f2s24(float x)
 147:/Users/jonask/Music/Daisy/libDaisy/src/daisy_core.h **** {
 148:/Users/jonask/Music/Daisy/libDaisy/src/daisy_core.h ****     x = x <= FBIPMIN ? FBIPMIN : x;
 149:/Users/jonask/Music/Daisy/libDaisy/src/daisy_core.h ****     x = x >= FBIPMAX ? FBIPMAX : x;
 150:/Users/jonask/Music/Daisy/libDaisy/src/daisy_core.h ****     return (int32_t)(x * F2S24_SCALE);
 151:/Users/jonask/Music/Daisy/libDaisy/src/daisy_core.h **** }
 152:/Users/jonask/Music/Daisy/libDaisy/src/daisy_core.h **** 
 153:/Users/jonask/Music/Daisy/libDaisy/src/daisy_core.h **** /**
 154:/Users/jonask/Music/Daisy/libDaisy/src/daisy_core.h ****     Converts Signed 32-bit to float
 155:/Users/jonask/Music/Daisy/libDaisy/src/daisy_core.h ****  */
 156:/Users/jonask/Music/Daisy/libDaisy/src/daisy_core.h **** FORCE_INLINE float s322f(int32_t x)
 157:/Users/jonask/Music/Daisy/libDaisy/src/daisy_core.h **** {
 158:/Users/jonask/Music/Daisy/libDaisy/src/daisy_core.h ****     return (float)x * S322F_SCALE;
 159:/Users/jonask/Music/Daisy/libDaisy/src/daisy_core.h **** }
 160:/Users/jonask/Music/Daisy/libDaisy/src/daisy_core.h **** /**
 161:/Users/jonask/Music/Daisy/libDaisy/src/daisy_core.h ****     Converts float to Signed 24-bit
 162:/Users/jonask/Music/Daisy/libDaisy/src/daisy_core.h ****  */
 163:/Users/jonask/Music/Daisy/libDaisy/src/daisy_core.h **** FORCE_INLINE int32_t f2s32(float x)
 164:/Users/jonask/Music/Daisy/libDaisy/src/daisy_core.h **** {
 165:/Users/jonask/Music/Daisy/libDaisy/src/daisy_core.h ****     x = x <= FBIPMIN ? FBIPMIN : x;
 166:/Users/jonask/Music/Daisy/libDaisy/src/daisy_core.h ****     x = x >= FBIPMAX ? FBIPMAX : x;
 167:/Users/jonask/Music/Daisy/libDaisy/src/daisy_core.h ****     return (int32_t)(x * F2S32_SCALE);
 168:/Users/jonask/Music/Daisy/libDaisy/src/daisy_core.h **** }
ARM GAS  /var/folders/xd/16jvbr6j24q9nvtpm0qtw3240000gn/T//cch9jPA2.s 			page 18


 169:/Users/jonask/Music/Daisy/libDaisy/src/daisy_core.h **** 
 170:/Users/jonask/Music/Daisy/libDaisy/src/daisy_core.h **** #ifdef __cplusplus
 171:/Users/jonask/Music/Daisy/libDaisy/src/daisy_core.h **** 
 172:/Users/jonask/Music/Daisy/libDaisy/src/daisy_core.h **** namespace daisy
 173:/Users/jonask/Music/Daisy/libDaisy/src/daisy_core.h **** {
 174:/Users/jonask/Music/Daisy/libDaisy/src/daisy_core.h **** /** @brief GPIO Port names */
 175:/Users/jonask/Music/Daisy/libDaisy/src/daisy_core.h **** enum GPIOPort
 176:/Users/jonask/Music/Daisy/libDaisy/src/daisy_core.h **** {
 177:/Users/jonask/Music/Daisy/libDaisy/src/daisy_core.h ****     PORTA, /**< Port A */
 178:/Users/jonask/Music/Daisy/libDaisy/src/daisy_core.h ****     PORTB, /**< Port B */
 179:/Users/jonask/Music/Daisy/libDaisy/src/daisy_core.h ****     PORTC, /**< Port C */
 180:/Users/jonask/Music/Daisy/libDaisy/src/daisy_core.h ****     PORTD, /**< Port D */
 181:/Users/jonask/Music/Daisy/libDaisy/src/daisy_core.h ****     PORTE, /**< Port E */
 182:/Users/jonask/Music/Daisy/libDaisy/src/daisy_core.h ****     PORTF, /**< Port F */
 183:/Users/jonask/Music/Daisy/libDaisy/src/daisy_core.h ****     PORTG, /**< Port G */
 184:/Users/jonask/Music/Daisy/libDaisy/src/daisy_core.h ****     PORTH, /**< Port H */
 185:/Users/jonask/Music/Daisy/libDaisy/src/daisy_core.h ****     PORTI, /**< Port I */
 186:/Users/jonask/Music/Daisy/libDaisy/src/daisy_core.h ****     PORTJ, /**< Port J */
 187:/Users/jonask/Music/Daisy/libDaisy/src/daisy_core.h ****     PORTK, /**< Port K */
 188:/Users/jonask/Music/Daisy/libDaisy/src/daisy_core.h ****     PORTX, /**< Used as a dummy port to signal an invalid pin. */
 189:/Users/jonask/Music/Daisy/libDaisy/src/daisy_core.h **** };
 190:/Users/jonask/Music/Daisy/libDaisy/src/daisy_core.h **** 
 191:/Users/jonask/Music/Daisy/libDaisy/src/daisy_core.h **** /** @brief representation of hardware port/pin combination */
 192:/Users/jonask/Music/Daisy/libDaisy/src/daisy_core.h **** struct Pin
 193:/Users/jonask/Music/Daisy/libDaisy/src/daisy_core.h **** {
 194:/Users/jonask/Music/Daisy/libDaisy/src/daisy_core.h ****     GPIOPort port;
 195:/Users/jonask/Music/Daisy/libDaisy/src/daisy_core.h ****     uint8_t  pin;
 196:/Users/jonask/Music/Daisy/libDaisy/src/daisy_core.h **** 
 197:/Users/jonask/Music/Daisy/libDaisy/src/daisy_core.h ****     /** @brief Constructor creates a valid pin. 
 198:/Users/jonask/Music/Daisy/libDaisy/src/daisy_core.h ****      *  @param pt GPIOPort between PA, and PK corresponding to STM32 Port.
 199:/Users/jonask/Music/Daisy/libDaisy/src/daisy_core.h ****      *  @param pn pin number in range of 0-15
 200:/Users/jonask/Music/Daisy/libDaisy/src/daisy_core.h ****     */
 201:/Users/jonask/Music/Daisy/libDaisy/src/daisy_core.h ****     constexpr Pin(const GPIOPort pt, const uint8_t pn) : port(pt), pin(pn) {}
 202:/Users/jonask/Music/Daisy/libDaisy/src/daisy_core.h **** 
 203:/Users/jonask/Music/Daisy/libDaisy/src/daisy_core.h ****     /** @brief Basic Constructor creates an invalid Pin object */
 204:/Users/jonask/Music/Daisy/libDaisy/src/daisy_core.h ****     constexpr Pin() : port(PORTX), pin(255) {}
 371              		.loc 4 204 15 view .LVU97
 372              		.loc 4 204 15 is_stmt 0 view .LVU98
 373              	.LBE594:
 374              	.LBB595:
 375              	.LBI595:
 376              		.loc 4 204 15 is_stmt 1 view .LVU99
 377              		.loc 4 204 15 is_stmt 0 view .LVU100
 378              	.LBE595:
 379              	.LBB596:
 380              	.LBI596:
 381              		.loc 4 204 15 is_stmt 1 view .LVU101
 382              		.loc 4 204 15 is_stmt 0 view .LVU102
 383              	.LBE596:
 384              	.LBB597:
 385              	.LBI597:
 386              		.loc 4 204 15 is_stmt 1 view .LVU103
 387              		.loc 4 204 15 is_stmt 0 view .LVU104
 388              	.LBE597:
 389              	.LBB598:
 390              	.LBI598:
 391              		.loc 4 204 15 is_stmt 1 view .LVU105
ARM GAS  /var/folders/xd/16jvbr6j24q9nvtpm0qtw3240000gn/T//cch9jPA2.s 			page 19


 392              		.loc 4 204 15 is_stmt 0 view .LVU106
 393              	.LBE598:
 394              	.LBB599:
 395              	.LBI599:
 396              		.loc 4 204 15 is_stmt 1 view .LVU107
 397              		.loc 4 204 15 is_stmt 0 view .LVU108
 398              	.LBE599:
 399              	.LBE593:
 400              	.LBE592:
 245:time_machine_hardware.cpp ****             qspi_config.device = QSPIHandle::Config::Device::IS25LP064A;
 401              		.loc 1 245 13 is_stmt 1 view .LVU109
 402              		.loc 1 245 32 is_stmt 0 view .LVU110
 403 0040 27AF     		add	r7, sp, #156
 246:time_machine_hardware.cpp ****             qspi_config.mode   = QSPIHandle::Config::Mode::MEMORY_MAPPED;
 247:time_machine_hardware.cpp ****             qspi_config.pin_config.io0 = Pin(PORTF, 8);
 404              		.loc 1 247 40 view .LVU111
 405 0042 0523     		movs	r3, #5
 245:time_machine_hardware.cpp ****             qspi_config.device = QSPIHandle::Config::Device::IS25LP064A;
 406              		.loc 1 245 32 view .LVU112
 407 0044 0121     		movs	r1, #1
 248:time_machine_hardware.cpp ****             qspi_config.pin_config.io1 = Pin(PORTF, 9);
 249:time_machine_hardware.cpp ****             qspi_config.pin_config.io2 = Pin(PORTF, 7);
 250:time_machine_hardware.cpp ****             qspi_config.pin_config.io3 = Pin(PORTF, 6);
 408              		.loc 1 250 40 view .LVU113
 409 0046 0622     		movs	r2, #6
 247:time_machine_hardware.cpp ****             qspi_config.pin_config.io1 = Pin(PORTF, 9);
 410              		.loc 1 247 40 view .LVU114
 411 0048 3B70     		strb	r3, [r7]
 412 004a 0820     		movs	r0, #8
 248:time_machine_hardware.cpp ****             qspi_config.pin_config.io1 = Pin(PORTF, 9);
 413              		.loc 1 248 40 view .LVU115
 414 004c BB70     		strb	r3, [r7, #2]
 245:time_machine_hardware.cpp ****             qspi_config.mode   = QSPIHandle::Config::Mode::MEMORY_MAPPED;
 415              		.loc 1 245 32 view .LVU116
 416 004e 3973     		strb	r1, [r7, #12]
 246:time_machine_hardware.cpp ****             qspi_config.pin_config.io0 = Pin(PORTF, 8);
 417              		.loc 1 246 13 is_stmt 1 view .LVU117
 246:time_machine_hardware.cpp ****             qspi_config.pin_config.io0 = Pin(PORTF, 8);
 418              		.loc 1 246 32 is_stmt 0 view .LVU118
 419 0050 0021     		movs	r1, #0
 249:time_machine_hardware.cpp ****             qspi_config.pin_config.io3 = Pin(PORTF, 6);
 420              		.loc 1 249 40 view .LVU119
 421 0052 3B71     		strb	r3, [r7, #4]
 422              		.loc 1 250 40 view .LVU120
 423 0054 BB71     		strb	r3, [r7, #6]
 251:time_machine_hardware.cpp ****             qspi_config.pin_config.clk = Pin(PORTF, 10);
 424              		.loc 1 251 40 view .LVU121
 425 0056 3B72     		strb	r3, [r7, #8]
 248:time_machine_hardware.cpp ****             qspi_config.pin_config.io2 = Pin(PORTF, 7);
 426              		.loc 1 248 40 view .LVU122
 427 0058 0923     		movs	r3, #9
 246:time_machine_hardware.cpp ****             qspi_config.pin_config.io0 = Pin(PORTF, 8);
 428              		.loc 1 246 32 view .LVU123
 429 005a 7973     		strb	r1, [r7, #13]
 247:time_machine_hardware.cpp ****             qspi_config.pin_config.io1 = Pin(PORTF, 9);
 430              		.loc 1 247 13 is_stmt 1 view .LVU124
 431              	.LVL24:
ARM GAS  /var/folders/xd/16jvbr6j24q9nvtpm0qtw3240000gn/T//cch9jPA2.s 			page 20


 432              	.LBB600:
 433              	.LBI600:
 201:/Users/jonask/Music/Daisy/libDaisy/src/daisy_core.h **** 
 434              		.loc 4 201 15 view .LVU125
 201:/Users/jonask/Music/Daisy/libDaisy/src/daisy_core.h **** 
 435              		.loc 4 201 15 is_stmt 0 view .LVU126
 436              	.LBE600:
 437              		.loc 1 251 40 view .LVU127
 438 005c 0A21     		movs	r1, #10
 248:time_machine_hardware.cpp ****             qspi_config.pin_config.io2 = Pin(PORTF, 7);
 439              		.loc 1 248 40 view .LVU128
 440 005e FB70     		strb	r3, [r7, #3]
 249:time_machine_hardware.cpp ****             qspi_config.pin_config.io3 = Pin(PORTF, 6);
 441              		.loc 1 249 40 view .LVU129
 442 0060 0723     		movs	r3, #7
 247:time_machine_hardware.cpp ****             qspi_config.pin_config.io1 = Pin(PORTF, 9);
 443              		.loc 1 247 40 view .LVU130
 444 0062 7870     		strb	r0, [r7, #1]
 248:time_machine_hardware.cpp ****             qspi_config.pin_config.io2 = Pin(PORTF, 7);
 445              		.loc 1 248 13 is_stmt 1 view .LVU131
 446              	.LVL25:
 447              	.LBB601:
 448              	.LBI601:
 201:/Users/jonask/Music/Daisy/libDaisy/src/daisy_core.h **** 
 449              		.loc 4 201 15 view .LVU132
 201:/Users/jonask/Music/Daisy/libDaisy/src/daisy_core.h **** 
 450              		.loc 4 201 15 is_stmt 0 view .LVU133
 451              	.LBE601:
 249:time_machine_hardware.cpp ****             qspi_config.pin_config.io3 = Pin(PORTF, 6);
 452              		.loc 1 249 13 is_stmt 1 view .LVU134
 453              	.LBB602:
 454              	.LBI602:
 201:/Users/jonask/Music/Daisy/libDaisy/src/daisy_core.h **** 
 455              		.loc 4 201 15 view .LVU135
 201:/Users/jonask/Music/Daisy/libDaisy/src/daisy_core.h **** 
 456              		.loc 4 201 15 is_stmt 0 view .LVU136
 457              	.LBE602:
 252:time_machine_hardware.cpp ****             qspi_config.pin_config.ncs = Pin(PORTG, 6);
 253:time_machine_hardware.cpp ****             qspi.Init(qspi_config);
 458              		.loc 1 253 22 view .LVU137
 459 0064 05F10C00 		add	r0, r5, #12
 251:time_machine_hardware.cpp ****             qspi_config.pin_config.ncs = Pin(PORTG, 6);
 460              		.loc 1 251 40 view .LVU138
 461 0068 7972     		strb	r1, [r7, #9]
 462              		.loc 1 253 22 view .LVU139
 463 006a 3946     		mov	r1, r7
 250:time_machine_hardware.cpp ****             qspi_config.pin_config.clk = Pin(PORTF, 10);
 464              		.loc 1 250 40 view .LVU140
 465 006c FA71     		strb	r2, [r7, #7]
 252:time_machine_hardware.cpp ****             qspi_config.pin_config.ncs = Pin(PORTG, 6);
 466              		.loc 1 252 40 view .LVU141
 467 006e BA72     		strb	r2, [r7, #10]
 468 0070 FA72     		strb	r2, [r7, #11]
 249:time_machine_hardware.cpp ****             qspi_config.pin_config.io3 = Pin(PORTF, 6);
 469              		.loc 1 249 40 view .LVU142
 470 0072 7B71     		strb	r3, [r7, #5]
 250:time_machine_hardware.cpp ****             qspi_config.pin_config.clk = Pin(PORTF, 10);
ARM GAS  /var/folders/xd/16jvbr6j24q9nvtpm0qtw3240000gn/T//cch9jPA2.s 			page 21


 471              		.loc 1 250 13 is_stmt 1 view .LVU143
 472              	.LVL26:
 473              	.LBB603:
 474              	.LBI603:
 201:/Users/jonask/Music/Daisy/libDaisy/src/daisy_core.h **** 
 475              		.loc 4 201 15 view .LVU144
 201:/Users/jonask/Music/Daisy/libDaisy/src/daisy_core.h **** 
 476              		.loc 4 201 15 is_stmt 0 view .LVU145
 477              	.LBE603:
 251:time_machine_hardware.cpp ****             qspi_config.pin_config.ncs = Pin(PORTG, 6);
 478              		.loc 1 251 13 is_stmt 1 view .LVU146
 479              	.LBB604:
 480              	.LBI604:
 201:/Users/jonask/Music/Daisy/libDaisy/src/daisy_core.h **** 
 481              		.loc 4 201 15 view .LVU147
 201:/Users/jonask/Music/Daisy/libDaisy/src/daisy_core.h **** 
 482              		.loc 4 201 15 is_stmt 0 view .LVU148
 483              	.LBE604:
 252:time_machine_hardware.cpp ****             qspi.Init(qspi_config);
 484              		.loc 1 252 13 is_stmt 1 view .LVU149
 485              	.LBB605:
 486              	.LBI605:
 201:/Users/jonask/Music/Daisy/libDaisy/src/daisy_core.h **** 
 487              		.loc 4 201 15 view .LVU150
 201:/Users/jonask/Music/Daisy/libDaisy/src/daisy_core.h **** 
 488              		.loc 4 201 15 is_stmt 0 view .LVU151
 489              	.LBE605:
 490              		.loc 1 253 13 is_stmt 1 view .LVU152
 491              		.loc 1 253 22 is_stmt 0 view .LVU153
 492 0074 FFF7FEFF 		bl	_ZN5daisy10QSPIHandle4InitERKNS0_6ConfigE
 493              	.LVL27:
 494              	.L25:
 495              		.loc 1 253 22 view .LVU154
 496              	.LBE591:
 497              	.LBE590:
 254:time_machine_hardware.cpp ****         }
 255:time_machine_hardware.cpp **** 
 256:time_machine_hardware.cpp ****         /** Audio */
 257:time_machine_hardware.cpp **** 
 258:time_machine_hardware.cpp ****         // Audio Init
 259:time_machine_hardware.cpp ****         SaiHandle::Config sai_config;
 498              		.loc 1 259 9 is_stmt 1 view .LVU155
 499              	.LBB606:
 500              	.LBI606:
 501              		.file 5 "/Users/jonask/Music/Daisy/libDaisy/src/per/sai.h"
   1:/Users/jonask/Music/Daisy/libDaisy/src/per/sai.h **** #pragma once
   2:/Users/jonask/Music/Daisy/libDaisy/src/per/sai.h **** #ifndef DSY_SAI_H
   3:/Users/jonask/Music/Daisy/libDaisy/src/per/sai.h **** #define DSY_SAI_H
   4:/Users/jonask/Music/Daisy/libDaisy/src/per/sai.h **** 
   5:/Users/jonask/Music/Daisy/libDaisy/src/per/sai.h **** #include "util/hal_map.h"
   6:/Users/jonask/Music/Daisy/libDaisy/src/per/sai.h **** #include "daisy_core.h"
   7:/Users/jonask/Music/Daisy/libDaisy/src/per/sai.h **** 
   8:/Users/jonask/Music/Daisy/libDaisy/src/per/sai.h **** namespace daisy
   9:/Users/jonask/Music/Daisy/libDaisy/src/per/sai.h **** {
  10:/Users/jonask/Music/Daisy/libDaisy/src/per/sai.h **** /** 
  11:/Users/jonask/Music/Daisy/libDaisy/src/per/sai.h ****  * Support for I2S Audio Protocol with different bit-depth, samplerate options
  12:/Users/jonask/Music/Daisy/libDaisy/src/per/sai.h ****  * Allows for master or slave, as well as freedom of selecting direction, 
ARM GAS  /var/folders/xd/16jvbr6j24q9nvtpm0qtw3240000gn/T//cch9jPA2.s 			page 22


  13:/Users/jonask/Music/Daisy/libDaisy/src/per/sai.h ****  * and other behavior for each peripheral, and block.
  14:/Users/jonask/Music/Daisy/libDaisy/src/per/sai.h ****  * 
  15:/Users/jonask/Music/Daisy/libDaisy/src/per/sai.h ****  * DMA Transfer commands must use buffers located within non-cached memory or use cache maintenance
  16:/Users/jonask/Music/Daisy/libDaisy/src/per/sai.h ****  * To declare an unitialized global element in the DMA memory section:
  17:/Users/jonask/Music/Daisy/libDaisy/src/per/sai.h ****  *    int32_t DSY_DMA_BUFFER_SECTOR my_buffer[96];
  18:/Users/jonask/Music/Daisy/libDaisy/src/per/sai.h ****  *
  19:/Users/jonask/Music/Daisy/libDaisy/src/per/sai.h ****  * Callback functions will be called once per half of the buffer. In the above example, 
  20:/Users/jonask/Music/Daisy/libDaisy/src/per/sai.h ****  * the callback function would be called once for every 48 samples.
  21:/Users/jonask/Music/Daisy/libDaisy/src/per/sai.h ****  * 
  22:/Users/jonask/Music/Daisy/libDaisy/src/per/sai.h ****  * Use SAI Handle like this:
  23:/Users/jonask/Music/Daisy/libDaisy/src/per/sai.h ****  * 
  24:/Users/jonask/Music/Daisy/libDaisy/src/per/sai.h ****  *  SaiHandle::Config sai_config;
  25:/Users/jonask/Music/Daisy/libDaisy/src/per/sai.h ****  *  sai_config.periph          = SaiHandle::Config::Peripheral::SAI_1;
  26:/Users/jonask/Music/Daisy/libDaisy/src/per/sai.h ****  *  sai_config.sr              = SaiHandle::Config::SampleRate::SAI_48KHZ;
  27:/Users/jonask/Music/Daisy/libDaisy/src/per/sai.h ****  *  sai_config.bit_depth       = SaiHandle::Config::BitDepth::SAI_24BIT;
  28:/Users/jonask/Music/Daisy/libDaisy/src/per/sai.h ****  *  sai_config.a_sync          = SaiHandle::Config::Sync::MASTER;
  29:/Users/jonask/Music/Daisy/libDaisy/src/per/sai.h ****  *  sai_config.b_sync          = SaiHandle::Config::Sync::SLAVE;
  30:/Users/jonask/Music/Daisy/libDaisy/src/per/sai.h ****  *  sai_config.a_dir           = SaiHandle::Config::Direction::RECEIVE;
  31:/Users/jonask/Music/Daisy/libDaisy/src/per/sai.h ****  *  sai_config.b_dir           = SaiHandle::Config::Direction::TRANSMIT;
  32:/Users/jonask/Music/Daisy/libDaisy/src/per/sai.h ****  *  sai_config.pin_config.fs   = {DSY_GPIOE, 4};
  33:/Users/jonask/Music/Daisy/libDaisy/src/per/sai.h ****  *  sai_config.pin_config.mclk = {DSY_GPIOE, 2};
  34:/Users/jonask/Music/Daisy/libDaisy/src/per/sai.h ****  *  sai_config.pin_config.sck  = {DSY_GPIOE, 5};
  35:/Users/jonask/Music/Daisy/libDaisy/src/per/sai.h ****  *  sai_config.pin_config.sa   = {DSY_GPIOE, 6};
  36:/Users/jonask/Music/Daisy/libDaisy/src/per/sai.h ****  *  sai_config.pin_config.sb   = {DSY_GPIOE, 3};
  37:/Users/jonask/Music/Daisy/libDaisy/src/per/sai.h ****  *  // Then Initialize
  38:/Users/jonask/Music/Daisy/libDaisy/src/per/sai.h ****  *  SaiHandle sai;
  39:/Users/jonask/Music/Daisy/libDaisy/src/per/sai.h ****  *  sai.Init(sai_config);
  40:/Users/jonask/Music/Daisy/libDaisy/src/per/sai.h ****  *  // Now you can use it:
  41:/Users/jonask/Music/Daisy/libDaisy/src/per/sai.h ****  *  sai.StartDma(. . .);
  42:/Users/jonask/Music/Daisy/libDaisy/src/per/sai.h ****  */
  43:/Users/jonask/Music/Daisy/libDaisy/src/per/sai.h **** class SaiHandle
  44:/Users/jonask/Music/Daisy/libDaisy/src/per/sai.h **** {
  45:/Users/jonask/Music/Daisy/libDaisy/src/per/sai.h ****   public:
  46:/Users/jonask/Music/Daisy/libDaisy/src/per/sai.h ****     /** Contains settings for initialising an SAI Interface */
  47:/Users/jonask/Music/Daisy/libDaisy/src/per/sai.h ****     struct Config
 502              		.loc 5 47 12 view .LVU156
 503              	.LBB607:
 504              	.LBI607:
  48:/Users/jonask/Music/Daisy/libDaisy/src/per/sai.h ****     {
  49:/Users/jonask/Music/Daisy/libDaisy/src/per/sai.h ****         /** Specifies the internal peripheral to use (mapped to different hardware pins) */
  50:/Users/jonask/Music/Daisy/libDaisy/src/per/sai.h ****         enum class Peripheral
  51:/Users/jonask/Music/Daisy/libDaisy/src/per/sai.h ****         {
  52:/Users/jonask/Music/Daisy/libDaisy/src/per/sai.h ****             SAI_1,
  53:/Users/jonask/Music/Daisy/libDaisy/src/per/sai.h ****             SAI_2,
  54:/Users/jonask/Music/Daisy/libDaisy/src/per/sai.h ****         };
  55:/Users/jonask/Music/Daisy/libDaisy/src/per/sai.h **** 
  56:/Users/jonask/Music/Daisy/libDaisy/src/per/sai.h ****         /** Rate at which samples will be streaming to/from the device. */
  57:/Users/jonask/Music/Daisy/libDaisy/src/per/sai.h ****         enum class SampleRate
  58:/Users/jonask/Music/Daisy/libDaisy/src/per/sai.h ****         {
  59:/Users/jonask/Music/Daisy/libDaisy/src/per/sai.h ****             SAI_8KHZ,
  60:/Users/jonask/Music/Daisy/libDaisy/src/per/sai.h ****             SAI_16KHZ,
  61:/Users/jonask/Music/Daisy/libDaisy/src/per/sai.h ****             SAI_32KHZ,
  62:/Users/jonask/Music/Daisy/libDaisy/src/per/sai.h ****             SAI_48KHZ,
  63:/Users/jonask/Music/Daisy/libDaisy/src/per/sai.h ****             SAI_96KHZ,
  64:/Users/jonask/Music/Daisy/libDaisy/src/per/sai.h ****         };
  65:/Users/jonask/Music/Daisy/libDaisy/src/per/sai.h **** 
  66:/Users/jonask/Music/Daisy/libDaisy/src/per/sai.h ****         /** Bit Depth that the hardware expects to be transferred to/from the device. */
ARM GAS  /var/folders/xd/16jvbr6j24q9nvtpm0qtw3240000gn/T//cch9jPA2.s 			page 23


  67:/Users/jonask/Music/Daisy/libDaisy/src/per/sai.h ****         enum class BitDepth
  68:/Users/jonask/Music/Daisy/libDaisy/src/per/sai.h ****         {
  69:/Users/jonask/Music/Daisy/libDaisy/src/per/sai.h ****             SAI_16BIT,
  70:/Users/jonask/Music/Daisy/libDaisy/src/per/sai.h ****             SAI_24BIT,
  71:/Users/jonask/Music/Daisy/libDaisy/src/per/sai.h ****             SAI_32BIT,
  72:/Users/jonask/Music/Daisy/libDaisy/src/per/sai.h ****         };
  73:/Users/jonask/Music/Daisy/libDaisy/src/per/sai.h **** 
  74:/Users/jonask/Music/Daisy/libDaisy/src/per/sai.h ****         /** Specifies whether a particular block is the master or the slave 
  75:/Users/jonask/Music/Daisy/libDaisy/src/per/sai.h ****          ** If both are set to slave, no MCLK signal will be used, and it is
  76:/Users/jonask/Music/Daisy/libDaisy/src/per/sai.h ****          ** expected that the codec will have its own xtal.
  77:/Users/jonask/Music/Daisy/libDaisy/src/per/sai.h ****          */
  78:/Users/jonask/Music/Daisy/libDaisy/src/per/sai.h ****         enum class Sync
  79:/Users/jonask/Music/Daisy/libDaisy/src/per/sai.h ****         {
  80:/Users/jonask/Music/Daisy/libDaisy/src/per/sai.h ****             MASTER,
  81:/Users/jonask/Music/Daisy/libDaisy/src/per/sai.h ****             SLAVE,
  82:/Users/jonask/Music/Daisy/libDaisy/src/per/sai.h ****         };
  83:/Users/jonask/Music/Daisy/libDaisy/src/per/sai.h **** 
  84:/Users/jonask/Music/Daisy/libDaisy/src/per/sai.h ****         /** Specifies the direction for each peripheral block. */
  85:/Users/jonask/Music/Daisy/libDaisy/src/per/sai.h ****         enum class Direction
  86:/Users/jonask/Music/Daisy/libDaisy/src/per/sai.h ****         {
  87:/Users/jonask/Music/Daisy/libDaisy/src/per/sai.h ****             TRANSMIT,
  88:/Users/jonask/Music/Daisy/libDaisy/src/per/sai.h ****             RECEIVE,
  89:/Users/jonask/Music/Daisy/libDaisy/src/per/sai.h ****         };
  90:/Users/jonask/Music/Daisy/libDaisy/src/per/sai.h **** 
  91:/Users/jonask/Music/Daisy/libDaisy/src/per/sai.h ****         Peripheral periph;
  92:/Users/jonask/Music/Daisy/libDaisy/src/per/sai.h ****         struct
  93:/Users/jonask/Music/Daisy/libDaisy/src/per/sai.h ****         {
 505              		.loc 5 93 9 view .LVU157
 506              	.LBB608:
 507              	.LBI608:
 508              		.loc 4 204 15 view .LVU158
 509              		.loc 4 204 15 is_stmt 0 view .LVU159
 510              	.LBE608:
 511              	.LBB610:
 512              	.LBI610:
 513              		.loc 4 204 15 is_stmt 1 view .LVU160
 514              		.loc 4 204 15 is_stmt 0 view .LVU161
 515              	.LBE610:
 516              	.LBB611:
 517              	.LBI611:
 518              		.loc 4 204 15 is_stmt 1 view .LVU162
 519              		.loc 4 204 15 is_stmt 0 view .LVU163
 520              	.LBE611:
 521              	.LBB613:
 522              	.LBI613:
 523              		.loc 4 204 15 is_stmt 1 view .LVU164
 524              		.loc 4 204 15 is_stmt 0 view .LVU165
 525              	.LBE613:
 526              	.LBB614:
 527              	.LBI614:
 528              		.loc 4 204 15 is_stmt 1 view .LVU166
 529              		.loc 4 204 15 is_stmt 0 view .LVU167
 530              	.LBE614:
 531              	.LBE607:
 532              	.LBE606:
 260:time_machine_hardware.cpp ****         sai_config.periph          = SaiHandle::Config::Peripheral::SAI_1;
 533              		.loc 1 260 9 is_stmt 1 view .LVU168
ARM GAS  /var/folders/xd/16jvbr6j24q9nvtpm0qtw3240000gn/T//cch9jPA2.s 			page 24


 261:time_machine_hardware.cpp ****         sai_config.sr              = SaiHandle::Config::SampleRate::SAI_48KHZ;
 534              		.loc 1 261 9 view .LVU169
 262:time_machine_hardware.cpp ****         sai_config.bit_depth       = SaiHandle::Config::BitDepth::SAI_24BIT;
 535              		.loc 1 262 36 is_stmt 0 view .LVU170
 536 0078 0126     		movs	r6, #1
 261:time_machine_hardware.cpp ****         sai_config.sr              = SaiHandle::Config::SampleRate::SAI_48KHZ;
 537              		.loc 1 261 36 view .LVU171
 538 007a 0323     		movs	r3, #3
 263:time_machine_hardware.cpp ****         sai_config.a_sync          = SaiHandle::Config::Sync::MASTER;
 539              		.loc 1 263 36 view .LVU172
 540 007c 0024     		movs	r4, #0
 264:time_machine_hardware.cpp ****         sai_config.b_sync          = SaiHandle::Config::Sync::SLAVE;
 265:time_machine_hardware.cpp ****         sai_config.a_dir           = SaiHandle::Config::Direction::RECEIVE;
 266:time_machine_hardware.cpp ****         sai_config.b_dir           = SaiHandle::Config::Direction::TRANSMIT;
 267:time_machine_hardware.cpp ****         sai_config.pin_config.fs   = Pin(PORTE, 4);
 268:time_machine_hardware.cpp ****         sai_config.pin_config.mclk = Pin(PORTE, 2);
 269:time_machine_hardware.cpp ****         sai_config.pin_config.sck  = Pin(PORTE, 5);
 270:time_machine_hardware.cpp ****         sai_config.pin_config.sa   = Pin(PORTE, 6);
 271:time_machine_hardware.cpp ****         sai_config.pin_config.sb   = Pin(PORTE, 3);
 272:time_machine_hardware.cpp ****         SaiHandle sai_1_handle;
 273:time_machine_hardware.cpp ****         sai_1_handle.Init(sai_config);
 541              		.loc 1 273 26 view .LVU173
 542 007e 1DA9     		add	r1, sp, #116
 543 0080 05A8     		add	r0, sp, #20
 260:time_machine_hardware.cpp ****         sai_config.sr              = SaiHandle::Config::SampleRate::SAI_48KHZ;
 544              		.loc 1 260 36 view .LVU174
 545 0082 1D94     		str	r4, [sp, #116]
 546              	.LBB623:
 547              	.LBB624:
 548              	.LBB625:
  94:/Users/jonask/Music/Daisy/libDaisy/src/per/sai.h ****             Pin mclk, fs, sck, sa, sb;
  95:/Users/jonask/Music/Daisy/libDaisy/src/per/sai.h ****         } pin_config;
  96:/Users/jonask/Music/Daisy/libDaisy/src/per/sai.h ****         SampleRate sr;
  97:/Users/jonask/Music/Daisy/libDaisy/src/per/sai.h ****         BitDepth   bit_depth;
  98:/Users/jonask/Music/Daisy/libDaisy/src/per/sai.h ****         Sync       a_sync, b_sync;
  99:/Users/jonask/Music/Daisy/libDaisy/src/per/sai.h ****         Direction  a_dir, b_dir;
 100:/Users/jonask/Music/Daisy/libDaisy/src/per/sai.h ****     };
 101:/Users/jonask/Music/Daisy/libDaisy/src/per/sai.h **** 
 102:/Users/jonask/Music/Daisy/libDaisy/src/per/sai.h ****     /** Return values for SAI functions */
 103:/Users/jonask/Music/Daisy/libDaisy/src/per/sai.h ****     enum class Result
 104:/Users/jonask/Music/Daisy/libDaisy/src/per/sai.h ****     {
 105:/Users/jonask/Music/Daisy/libDaisy/src/per/sai.h ****         OK,
 106:/Users/jonask/Music/Daisy/libDaisy/src/per/sai.h ****         ERR,
 107:/Users/jonask/Music/Daisy/libDaisy/src/per/sai.h ****     };
 108:/Users/jonask/Music/Daisy/libDaisy/src/per/sai.h **** 
 109:/Users/jonask/Music/Daisy/libDaisy/src/per/sai.h ****     SaiHandle() : pimpl_(nullptr) {}
 549              		.loc 5 109 33 view .LVU175
 550 0084 0594     		str	r4, [sp, #20]
 551              	.LBE625:
 552              	.LBE624:
 553              	.LBE623:
 262:time_machine_hardware.cpp ****         sai_config.a_sync          = SaiHandle::Config::Sync::MASTER;
 554              		.loc 1 262 36 view .LVU176
 555 0086 CDE92136 		strd	r3, r6, [sp, #132]
 263:time_machine_hardware.cpp ****         sai_config.b_sync          = SaiHandle::Config::Sync::SLAVE;
 556              		.loc 1 263 9 is_stmt 1 view .LVU177
 557              	.LBB626:
ARM GAS  /var/folders/xd/16jvbr6j24q9nvtpm0qtw3240000gn/T//cch9jPA2.s 			page 25


 558              	.LBB621:
 559              	.LBB617:
 560              	.LBB609:
 561              		.loc 4 204 21 is_stmt 0 view .LVU178
 562 008a A94B     		ldr	r3, .L64+4
 563 008c 1E93     		str	r3, [sp, #120]
 564              	.LBE609:
 565              	.LBE617:
 566              	.LBB618:
 567              	.LBB612:
 568 008e 03F10073 		add	r3, r3, #33554432
 569 0092 03F54073 		add	r3, r3, #768
 570 0096 1F93     		str	r3, [sp, #124]
 571              	.LBE612:
 572              	.LBE618:
 573              	.LBB619:
 574              	.LBB615:
 575 0098 4FF44173 		mov	r3, #772
 576              	.LBE615:
 577              	.LBE619:
 578              	.LBE621:
 579              	.LBE626:
 264:time_machine_hardware.cpp ****         sai_config.a_dir           = SaiHandle::Config::Direction::RECEIVE;
 580              		.loc 1 264 36 view .LVU179
 581 009c CDE92346 		strd	r4, r6, [sp, #140]
 265:time_machine_hardware.cpp ****         sai_config.b_dir           = SaiHandle::Config::Direction::TRANSMIT;
 582              		.loc 1 265 9 is_stmt 1 view .LVU180
 266:time_machine_hardware.cpp ****         sai_config.pin_config.fs   = Pin(PORTE, 4);
 583              		.loc 1 266 36 is_stmt 0 view .LVU181
 584 00a0 CDE92564 		strd	r6, r4, [sp, #148]
 267:time_machine_hardware.cpp ****         sai_config.pin_config.mclk = Pin(PORTE, 2);
 585              		.loc 1 267 9 is_stmt 1 view .LVU182
 586              	.LVL28:
 587              	.LBB627:
 588              	.LBI627:
 201:/Users/jonask/Music/Daisy/libDaisy/src/daisy_core.h **** 
 589              		.loc 4 201 15 view .LVU183
 201:/Users/jonask/Music/Daisy/libDaisy/src/daisy_core.h **** 
 590              		.loc 4 201 15 is_stmt 0 view .LVU184
 591              	.LBE627:
 268:time_machine_hardware.cpp ****         sai_config.pin_config.sck  = Pin(PORTE, 5);
 592              		.loc 1 268 9 is_stmt 1 view .LVU185
 593              	.LBB628:
 594              	.LBI628:
 201:/Users/jonask/Music/Daisy/libDaisy/src/daisy_core.h **** 
 595              		.loc 4 201 15 view .LVU186
 201:/Users/jonask/Music/Daisy/libDaisy/src/daisy_core.h **** 
 596              		.loc 4 201 15 is_stmt 0 view .LVU187
 597              	.LBE628:
 269:time_machine_hardware.cpp ****         sai_config.pin_config.sa   = Pin(PORTE, 6);
 598              		.loc 1 269 9 is_stmt 1 view .LVU188
 599              	.LBB629:
 600              	.LBI629:
 201:/Users/jonask/Music/Daisy/libDaisy/src/daisy_core.h **** 
 601              		.loc 4 201 15 view .LVU189
 201:/Users/jonask/Music/Daisy/libDaisy/src/daisy_core.h **** 
 602              		.loc 4 201 15 is_stmt 0 view .LVU190
ARM GAS  /var/folders/xd/16jvbr6j24q9nvtpm0qtw3240000gn/T//cch9jPA2.s 			page 26


 603              	.LBE629:
 270:time_machine_hardware.cpp ****         sai_config.pin_config.sb   = Pin(PORTE, 3);
 604              		.loc 1 270 9 is_stmt 1 view .LVU191
 605              	.LBB630:
 606              	.LBI630:
 201:/Users/jonask/Music/Daisy/libDaisy/src/daisy_core.h **** 
 607              		.loc 4 201 15 view .LVU192
 201:/Users/jonask/Music/Daisy/libDaisy/src/daisy_core.h **** 
 608              		.loc 4 201 15 is_stmt 0 view .LVU193
 609              	.LBE630:
 271:time_machine_hardware.cpp ****         SaiHandle sai_1_handle;
 610              		.loc 1 271 9 is_stmt 1 view .LVU194
 611              	.LBB631:
 612              	.LBI631:
 201:/Users/jonask/Music/Daisy/libDaisy/src/daisy_core.h **** 
 613              		.loc 4 201 15 view .LVU195
 201:/Users/jonask/Music/Daisy/libDaisy/src/daisy_core.h **** 
 614              		.loc 4 201 15 is_stmt 0 view .LVU196
 615              	.LBE631:
 616              	.LBB632:
 617              	.LBB622:
 618              	.LBB620:
 619              	.LBB616:
 620              		.loc 4 204 21 view .LVU197
 621 00a4 ADF88030 		strh	r3, [sp, #128]	@ movhi
 622              	.LBE616:
 623              	.LBE620:
 624              	.LBE622:
 625              	.LBE632:
 272:time_machine_hardware.cpp ****         sai_1_handle.Init(sai_config);
 626              		.loc 1 272 9 is_stmt 1 view .LVU198
 627              	.LVL29:
 628              	.LBB633:
 629              	.LBI623:
 630              		.loc 5 109 5 view .LVU199
 631              		.loc 5 109 5 is_stmt 0 view .LVU200
 632              	.LBE633:
 633              		.loc 1 273 9 is_stmt 1 view .LVU201
 634              		.loc 1 273 26 is_stmt 0 view .LVU202
 635 00a8 FFF7FEFF 		bl	_ZN5daisy9SaiHandle4InitERKNS0_6ConfigE
 636              	.LVL30:
 274:time_machine_hardware.cpp **** 
 275:time_machine_hardware.cpp ****         I2CHandle::Config i2c_cfg;
 637              		.loc 1 275 9 is_stmt 1 view .LVU203
 638              	.LBB634:
 639              	.LBI634:
 640              		.file 6 "/Users/jonask/Music/Daisy/libDaisy/src/per/i2c.h"
   1:/Users/jonask/Music/Daisy/libDaisy/src/per/i2c.h **** #pragma once
   2:/Users/jonask/Music/Daisy/libDaisy/src/per/i2c.h **** #include "util/hal_map.h"
   3:/Users/jonask/Music/Daisy/libDaisy/src/per/i2c.h **** #include "daisy_core.h"
   4:/Users/jonask/Music/Daisy/libDaisy/src/per/i2c.h **** 
   5:/Users/jonask/Music/Daisy/libDaisy/src/per/i2c.h **** namespace daisy
   6:/Users/jonask/Music/Daisy/libDaisy/src/per/i2c.h **** {
   7:/Users/jonask/Music/Daisy/libDaisy/src/per/i2c.h **** /** A handle for interacting with an I2C peripheral. This is a dumb
   8:/Users/jonask/Music/Daisy/libDaisy/src/per/i2c.h ****  *  gateway that internally points to one of the four I2C peripherals
   9:/Users/jonask/Music/Daisy/libDaisy/src/per/i2c.h ****  *  after it was initialised. It can then be copied and passed around.
  10:/Users/jonask/Music/Daisy/libDaisy/src/per/i2c.h ****  *  Use an I2CHandle like this:
ARM GAS  /var/folders/xd/16jvbr6j24q9nvtpm0qtw3240000gn/T//cch9jPA2.s 			page 27


  11:/Users/jonask/Music/Daisy/libDaisy/src/per/i2c.h ****  *  
  12:/Users/jonask/Music/Daisy/libDaisy/src/per/i2c.h ****  *      // setup the configuration
  13:/Users/jonask/Music/Daisy/libDaisy/src/per/i2c.h ****  *      I2CHandle::Config i2c_conf;
  14:/Users/jonask/Music/Daisy/libDaisy/src/per/i2c.h ****  *      i2c_conf.periph = I2CHandle::Config::Peripheral::I2C_1;
  15:/Users/jonask/Music/Daisy/libDaisy/src/per/i2c.h ****  *      i2c_conf.speed  = I2CHandle::Config::Speed::I2C_400KHZ;
  16:/Users/jonask/Music/Daisy/libDaisy/src/per/i2c.h ****  *      i2c_conf.mode   = I2CHandle::Config::Mode::Master;
  17:/Users/jonask/Music/Daisy/libDaisy/src/per/i2c.h ****  *      i2c_conf.pin_config.scl  = {DSY_GPIOB, 8};
  18:/Users/jonask/Music/Daisy/libDaisy/src/per/i2c.h ****  *      i2c_conf.pin_config.sda  = {DSY_GPIOB, 9};
  19:/Users/jonask/Music/Daisy/libDaisy/src/per/i2c.h ****  *      // initialise the peripheral
  20:/Users/jonask/Music/Daisy/libDaisy/src/per/i2c.h ****  *      I2CHandle i2c;
  21:/Users/jonask/Music/Daisy/libDaisy/src/per/i2c.h ****  *      i2c.Init(i2c_conf);
  22:/Users/jonask/Music/Daisy/libDaisy/src/per/i2c.h ****  *      // now i2c points to the corresponding peripheral and can be used.
  23:/Users/jonask/Music/Daisy/libDaisy/src/per/i2c.h ****  *      i2c.TransmitBlocking( ... );
  24:/Users/jonask/Music/Daisy/libDaisy/src/per/i2c.h ****  */
  25:/Users/jonask/Music/Daisy/libDaisy/src/per/i2c.h **** class I2CHandle
  26:/Users/jonask/Music/Daisy/libDaisy/src/per/i2c.h **** {
  27:/Users/jonask/Music/Daisy/libDaisy/src/per/i2c.h ****   public:
  28:/Users/jonask/Music/Daisy/libDaisy/src/per/i2c.h ****     /** Contains settings for initialising an I2C interface. */
  29:/Users/jonask/Music/Daisy/libDaisy/src/per/i2c.h ****     struct Config
 641              		.loc 6 29 12 view .LVU204
 642              	.LBB635:
 643              	.LBB636:
 644              	.LBI636:
  30:/Users/jonask/Music/Daisy/libDaisy/src/per/i2c.h ****     {
  31:/Users/jonask/Music/Daisy/libDaisy/src/per/i2c.h ****         /** Specifies whether the interface will operate in master or slave mode. */
  32:/Users/jonask/Music/Daisy/libDaisy/src/per/i2c.h ****         enum class Mode
  33:/Users/jonask/Music/Daisy/libDaisy/src/per/i2c.h ****         {
  34:/Users/jonask/Music/Daisy/libDaisy/src/per/i2c.h ****             I2C_MASTER,
  35:/Users/jonask/Music/Daisy/libDaisy/src/per/i2c.h ****             I2C_SLAVE,
  36:/Users/jonask/Music/Daisy/libDaisy/src/per/i2c.h ****         };
  37:/Users/jonask/Music/Daisy/libDaisy/src/per/i2c.h **** 
  38:/Users/jonask/Music/Daisy/libDaisy/src/per/i2c.h ****         /** Specifices the internal peripheral to use (these are mapped to different pins on the ha
  39:/Users/jonask/Music/Daisy/libDaisy/src/per/i2c.h ****         enum class Peripheral
  40:/Users/jonask/Music/Daisy/libDaisy/src/per/i2c.h ****         {
  41:/Users/jonask/Music/Daisy/libDaisy/src/per/i2c.h ****             I2C_1 = 0, /**< & */
  42:/Users/jonask/Music/Daisy/libDaisy/src/per/i2c.h ****             I2C_2,     /**< & */
  43:/Users/jonask/Music/Daisy/libDaisy/src/per/i2c.h ****             I2C_3,     /**< & */
  44:/Users/jonask/Music/Daisy/libDaisy/src/per/i2c.h ****             I2C_4,     /**< & */
  45:/Users/jonask/Music/Daisy/libDaisy/src/per/i2c.h ****         };
  46:/Users/jonask/Music/Daisy/libDaisy/src/per/i2c.h **** 
  47:/Users/jonask/Music/Daisy/libDaisy/src/per/i2c.h ****         /** Rate at which the clock/data will be sent/received. The device being used will have max
  48:/Users/jonask/Music/Daisy/libDaisy/src/per/i2c.h ****          *  1MHZ Mode is currently 886kHz
  49:/Users/jonask/Music/Daisy/libDaisy/src/per/i2c.h ****          */
  50:/Users/jonask/Music/Daisy/libDaisy/src/per/i2c.h ****         enum class Speed
  51:/Users/jonask/Music/Daisy/libDaisy/src/per/i2c.h ****         {
  52:/Users/jonask/Music/Daisy/libDaisy/src/per/i2c.h ****             I2C_100KHZ, /**< & */
  53:/Users/jonask/Music/Daisy/libDaisy/src/per/i2c.h ****             I2C_400KHZ, /**< & */
  54:/Users/jonask/Music/Daisy/libDaisy/src/per/i2c.h ****             I2C_1MHZ,   /**< & */
  55:/Users/jonask/Music/Daisy/libDaisy/src/per/i2c.h ****         };
  56:/Users/jonask/Music/Daisy/libDaisy/src/per/i2c.h **** 
  57:/Users/jonask/Music/Daisy/libDaisy/src/per/i2c.h ****         Peripheral periph; /**< & */
  58:/Users/jonask/Music/Daisy/libDaisy/src/per/i2c.h ****         struct
  59:/Users/jonask/Music/Daisy/libDaisy/src/per/i2c.h ****         {
 645              		.loc 6 59 9 view .LVU205
 646              	.LBB637:
 647              	.LBI637:
 648              		.loc 4 204 15 view .LVU206
ARM GAS  /var/folders/xd/16jvbr6j24q9nvtpm0qtw3240000gn/T//cch9jPA2.s 			page 28


 649              		.loc 4 204 15 is_stmt 0 view .LVU207
 650              	.LBE637:
 651              	.LBB640:
 652              	.LBI640:
 653              		.loc 4 204 15 is_stmt 1 view .LVU208
 654              		.loc 4 204 15 is_stmt 0 view .LVU209
 655              	.LBE640:
 656              	.LBE636:
 657              	.LBE635:
 658              	.LBE634:
 276:time_machine_hardware.cpp ****         i2c_cfg.periph         = I2CHandle::Config::Peripheral::I2C_2;
 659              		.loc 1 276 9 is_stmt 1 view .LVU210
 277:time_machine_hardware.cpp ****         i2c_cfg.mode           = I2CHandle::Config::Mode::I2C_MASTER;
 660              		.loc 1 277 9 view .LVU211
 278:time_machine_hardware.cpp ****         i2c_cfg.speed          = I2CHandle::Config::Speed::I2C_400KHZ;
 661              		.loc 1 278 9 view .LVU212
 279:time_machine_hardware.cpp ****         i2c_cfg.pin_config.scl = Pin(PORTB, 10);
 662              		.loc 1 279 9 view .LVU213
 663              	.LBB648:
 664              	.LBI648:
 201:/Users/jonask/Music/Daisy/libDaisy/src/daisy_core.h **** 
 665              		.loc 4 201 15 view .LVU214
 201:/Users/jonask/Music/Daisy/libDaisy/src/daisy_core.h **** 
 666              		.loc 4 201 15 is_stmt 0 view .LVU215
 667              	.LBE648:
 280:time_machine_hardware.cpp ****         i2c_cfg.pin_config.sda = Pin(PORTB, 11);
 668              		.loc 1 280 9 is_stmt 1 view .LVU216
 669              	.LBB649:
 670              	.LBI649:
 201:/Users/jonask/Music/Daisy/libDaisy/src/daisy_core.h **** 
 671              		.loc 4 201 15 view .LVU217
 201:/Users/jonask/Music/Daisy/libDaisy/src/daisy_core.h **** 
 672              		.loc 4 201 15 is_stmt 0 view .LVU218
 673              	.LBE649:
 674              	.LBB650:
 675              	.LBB645:
 676              	.LBB643:
 677              	.LBB641:
 678              	.LBB638:
 679              		.loc 4 204 21 view .LVU219
 680 00ac A14B     		ldr	r3, .L64+8
 681              	.LBE638:
 682              	.LBE641:
 683              	.LBE643:
 684              	.LBE645:
 685              	.LBE650:
 281:time_machine_hardware.cpp ****         I2CHandle i2c2;
 282:time_machine_hardware.cpp ****         i2c2.Init(i2c_cfg);
 686              		.loc 1 282 18 view .LVU220
 687 00ae 0DA9     		add	r1, sp, #52
 688 00b0 06A8     		add	r0, sp, #24
 689              	.LBB651:
 690              	.LBB652:
 691              	.LBB653:
  60:/Users/jonask/Music/Daisy/libDaisy/src/per/i2c.h ****             Pin scl;  /**< & */
  61:/Users/jonask/Music/Daisy/libDaisy/src/per/i2c.h ****             Pin sda;  /**< & */
  62:/Users/jonask/Music/Daisy/libDaisy/src/per/i2c.h ****         } pin_config; /**< & */
ARM GAS  /var/folders/xd/16jvbr6j24q9nvtpm0qtw3240000gn/T//cch9jPA2.s 			page 29


  63:/Users/jonask/Music/Daisy/libDaisy/src/per/i2c.h **** 
  64:/Users/jonask/Music/Daisy/libDaisy/src/per/i2c.h ****         Speed speed; /**< & */
  65:/Users/jonask/Music/Daisy/libDaisy/src/per/i2c.h ****         Mode  mode;  /**< & */
  66:/Users/jonask/Music/Daisy/libDaisy/src/per/i2c.h ****         // 0x10 is chosen as a default to avoid conflicts with reserved addresses
  67:/Users/jonask/Music/Daisy/libDaisy/src/per/i2c.h ****         uint8_t address = 0x10; /**< & */
  68:/Users/jonask/Music/Daisy/libDaisy/src/per/i2c.h ****     };
  69:/Users/jonask/Music/Daisy/libDaisy/src/per/i2c.h **** 
  70:/Users/jonask/Music/Daisy/libDaisy/src/per/i2c.h ****     /** Return values for I2C functions. */
  71:/Users/jonask/Music/Daisy/libDaisy/src/per/i2c.h ****     enum class Result
  72:/Users/jonask/Music/Daisy/libDaisy/src/per/i2c.h ****     {
  73:/Users/jonask/Music/Daisy/libDaisy/src/per/i2c.h ****         OK, /**< & */
  74:/Users/jonask/Music/Daisy/libDaisy/src/per/i2c.h ****         ERR /**< & */
  75:/Users/jonask/Music/Daisy/libDaisy/src/per/i2c.h ****     };
  76:/Users/jonask/Music/Daisy/libDaisy/src/per/i2c.h **** 
  77:/Users/jonask/Music/Daisy/libDaisy/src/per/i2c.h ****     enum class Direction
  78:/Users/jonask/Music/Daisy/libDaisy/src/per/i2c.h ****     {
  79:/Users/jonask/Music/Daisy/libDaisy/src/per/i2c.h ****         TRANSMIT, /**< & */
  80:/Users/jonask/Music/Daisy/libDaisy/src/per/i2c.h ****         RECEIVE,  /**< & */
  81:/Users/jonask/Music/Daisy/libDaisy/src/per/i2c.h ****     };
  82:/Users/jonask/Music/Daisy/libDaisy/src/per/i2c.h **** 
  83:/Users/jonask/Music/Daisy/libDaisy/src/per/i2c.h ****     I2CHandle() : pimpl_(nullptr) {}
 692              		.loc 6 83 33 view .LVU221
 693 00b2 0694     		str	r4, [sp, #24]
 694              	.LBE653:
 695              	.LBE652:
 696              	.LBE651:
 697              	.LBB654:
 698              	.LBB646:
 699              	.LBB644:
 700              	.LBB642:
 701              	.LBB639:
 702              		.loc 4 204 21 view .LVU222
 703 00b4 0E93     		str	r3, [sp, #56]
 704              	.LBE639:
 705              	.LBE642:
 706              	.LBE644:
  29:/Users/jonask/Music/Daisy/libDaisy/src/per/i2c.h ****     {
 707              		.loc 6 29 12 view .LVU223
 708 00b6 1023     		movs	r3, #16
 709              	.LBE646:
 710              	.LBE654:
 277:time_machine_hardware.cpp ****         i2c_cfg.speed          = I2CHandle::Config::Speed::I2C_400KHZ;
 711              		.loc 1 277 32 view .LVU224
 712 00b8 1094     		str	r4, [sp, #64]
 283:time_machine_hardware.cpp ****         codec.Init(i2c2);
 284:time_machine_hardware.cpp **** 
 285:time_machine_hardware.cpp ****         AudioHandle::Config audio_config;
 286:time_machine_hardware.cpp ****         audio_config.blocksize  = 48;
 287:time_machine_hardware.cpp ****         audio_config.samplerate = SaiHandle::Config::SampleRate::SAI_48KHZ;
 288:time_machine_hardware.cpp ****         audio_config.postgain   = 1.f;
 289:time_machine_hardware.cpp ****         audio.Init(audio_config, sai_1_handle);
 713              		.loc 1 289 19 view .LVU225
 714 00ba 05F11004 		add	r4, r5, #16
 715              	.LBB655:
 716              	.LBB647:
  29:/Users/jonask/Music/Daisy/libDaisy/src/per/i2c.h ****     {
 717              		.loc 6 29 12 view .LVU226
ARM GAS  /var/folders/xd/16jvbr6j24q9nvtpm0qtw3240000gn/T//cch9jPA2.s 			page 30


 718 00be 8DF84430 		strb	r3, [sp, #68]
 719              	.LBE647:
 720              	.LBE655:
 281:time_machine_hardware.cpp ****         i2c2.Init(i2c_cfg);
 721              		.loc 1 281 9 is_stmt 1 view .LVU227
 722              	.LVL31:
 723              	.LBB656:
 724              	.LBI651:
 725              		.loc 6 83 5 view .LVU228
 726              		.loc 6 83 5 is_stmt 0 view .LVU229
 727              	.LBE656:
 282:time_machine_hardware.cpp ****         codec.Init(i2c2);
 728              		.loc 1 282 9 is_stmt 1 view .LVU230
 276:time_machine_hardware.cpp ****         i2c_cfg.mode           = I2CHandle::Config::Mode::I2C_MASTER;
 729              		.loc 1 276 32 is_stmt 0 view .LVU231
 730 00c2 0D96     		str	r6, [sp, #52]
 278:time_machine_hardware.cpp ****         i2c_cfg.pin_config.scl = Pin(PORTB, 10);
 731              		.loc 1 278 32 view .LVU232
 732 00c4 0F96     		str	r6, [sp, #60]
 282:time_machine_hardware.cpp ****         codec.Init(i2c2);
 733              		.loc 1 282 18 view .LVU233
 734 00c6 FFF7FEFF 		bl	_ZN5daisy9I2CHandle4InitERKNS0_6ConfigE
 735              	.LVL32:
 283:time_machine_hardware.cpp **** 
 736              		.loc 1 283 9 is_stmt 1 view .LVU234
 283:time_machine_hardware.cpp **** 
 737              		.loc 1 283 19 is_stmt 0 view .LVU235
 738 00ca 0699     		ldr	r1, [sp, #24]
 739 00cc 05F12000 		add	r0, r5, #32
 740 00d0 FFF7FEFF 		bl	_ZN5daisy7Pcm30604InitENS_9I2CHandleE
 741              	.LVL33:
 285:time_machine_hardware.cpp ****         audio_config.blocksize  = 48;
 742              		.loc 1 285 9 is_stmt 1 view .LVU236
 285:time_machine_hardware.cpp ****         audio_config.blocksize  = 48;
 743              		.loc 1 285 29 is_stmt 0 view .LVU237
 744 00d4 984B     		ldr	r3, .L64+12
 745 00d6 0DF1240C 		add	ip, sp, #36
 746 00da 3E46     		mov	r6, r7
 747 00dc 0FCB     		ldm	r3, {r0, r1, r2, r3}
 748 00de 8CE80F00 		stm	ip, {r0, r1, r2, r3}
 286:time_machine_hardware.cpp ****         audio_config.samplerate = SaiHandle::Config::SampleRate::SAI_48KHZ;
 749              		.loc 1 286 9 is_stmt 1 view .LVU238
 287:time_machine_hardware.cpp ****         audio_config.postgain   = 1.f;
 750              		.loc 1 287 9 view .LVU239
 288:time_machine_hardware.cpp ****         audio.Init(audio_config, sai_1_handle);
 751              		.loc 1 288 9 view .LVU240
 752              		.loc 1 289 9 view .LVU241
 753              		.loc 1 289 19 is_stmt 0 view .LVU242
 754 00e2 6146     		mov	r1, ip
 755 00e4 059A     		ldr	r2, [sp, #20]
 756 00e6 2046     		mov	r0, r4
 757 00e8 FFF7FEFF 		bl	_ZN5daisy11AudioHandle4InitERKNS0_6ConfigENS_9SaiHandleE
 758              	.LVL34:
 290:time_machine_hardware.cpp ****         callback_rate_ = AudioSampleRate() / AudioBlockSize();
 759              		.loc 1 290 9 is_stmt 1 view .LVU243
 760              	.LBB657:
 761              	.LBI657:
ARM GAS  /var/folders/xd/16jvbr6j24q9nvtpm0qtw3240000gn/T//cch9jPA2.s 			page 31


 291:time_machine_hardware.cpp **** 
 292:time_machine_hardware.cpp ****         /** ADC Init */
 293:time_machine_hardware.cpp ****         AdcChannelConfig adc_config[ADC_LAST + 7];
 294:time_machine_hardware.cpp **** 
 295:time_machine_hardware.cpp ****         /** Order of pins to match enum expectations */
 296:time_machine_hardware.cpp ****         Pin adc_pins[] = {
 297:time_machine_hardware.cpp ****             PIN_ADC_CTRL_1,
 298:time_machine_hardware.cpp ****             PIN_ADC_CTRL_2,
 299:time_machine_hardware.cpp ****             PIN_ADC_CTRL_3,
 300:time_machine_hardware.cpp ****             PIN_ADC_CTRL_4,
 301:time_machine_hardware.cpp ****             PIN_ADC_CTRL_8,
 302:time_machine_hardware.cpp ****             PIN_ADC_CTRL_7,
 303:time_machine_hardware.cpp ****             PIN_ADC_CTRL_5,
 304:time_machine_hardware.cpp ****             PIN_ADC_CTRL_6,
 305:time_machine_hardware.cpp ****             PIN_ADC_CTRL_9,
 306:time_machine_hardware.cpp ****             PIN_ADC_CTRL_10,
 307:time_machine_hardware.cpp ****             PIN_ADC_CTRL_11,
 308:time_machine_hardware.cpp ****             PIN_ADC_CTRL_12
 309:time_machine_hardware.cpp ****         };
 310:time_machine_hardware.cpp **** 
 311:time_machine_hardware.cpp ****         for (int i = 0; i < ADC_LAST; i++)
 312:time_machine_hardware.cpp ****         {
 313:time_machine_hardware.cpp ****             switch (i)
 314:time_machine_hardware.cpp ****             {
 315:time_machine_hardware.cpp ****                 case CV_1:
 316:time_machine_hardware.cpp ****                 case ADC_10:
 317:time_machine_hardware.cpp ****                 case ADC_11:
 318:time_machine_hardware.cpp ****                 case ADC_12:
 319:time_machine_hardware.cpp ****                     adc_config[i].InitMux(adc_pins[i], 8, MUX_A, MUX_B, MUX_C);
 320:time_machine_hardware.cpp ****                     break;
 321:time_machine_hardware.cpp **** 
 322:time_machine_hardware.cpp ****                 default:
 323:time_machine_hardware.cpp ****                     adc_config[i].InitSingle(adc_pins[i]);
 324:time_machine_hardware.cpp ****                     break;
 325:time_machine_hardware.cpp ****             }
 326:time_machine_hardware.cpp ****         }
 327:time_machine_hardware.cpp **** 
 328:time_machine_hardware.cpp ****         adc.Init(adc_config, ADC_LAST);
 329:time_machine_hardware.cpp **** 
 330:time_machine_hardware.cpp ****         /** Control Init */
 331:time_machine_hardware.cpp ****         for (size_t i = 0; i < ADC_LAST; i++)
 332:time_machine_hardware.cpp ****         {
 333:time_machine_hardware.cpp ****             switch (i) {
 334:time_machine_hardware.cpp ****                 case CV_1:
 335:time_machine_hardware.cpp ****                     for(int muxChannel = 0; muxChannel < 8; muxChannel++) {
 336:time_machine_hardware.cpp ****                         controls[i].InitBipolarCv(adc.GetMuxPtr(i, muxChannel), callback_rate_);
 337:time_machine_hardware.cpp ****                     }
 338:time_machine_hardware.cpp ****                     break;
 339:time_machine_hardware.cpp **** 
 340:time_machine_hardware.cpp ****                 case CV_2:
 341:time_machine_hardware.cpp ****                 case CV_3:
 342:time_machine_hardware.cpp ****                 case CV_4:
 343:time_machine_hardware.cpp ****                 case CV_5:
 344:time_machine_hardware.cpp ****                 case CV_6:
 345:time_machine_hardware.cpp ****                 case CV_7:
 346:time_machine_hardware.cpp ****                 case CV_8:
 347:time_machine_hardware.cpp ****                     controls[i].InitBipolarCv(adc.GetPtr(i), callback_rate_);
ARM GAS  /var/folders/xd/16jvbr6j24q9nvtpm0qtw3240000gn/T//cch9jPA2.s 			page 32


 348:time_machine_hardware.cpp ****                     break;
 349:time_machine_hardware.cpp **** 
 350:time_machine_hardware.cpp ****                 case ADC_9:
 351:time_machine_hardware.cpp ****                     controls[i].Init(adc.GetPtr(i), callback_rate_);
 352:time_machine_hardware.cpp ****                     break;
 353:time_machine_hardware.cpp **** 
 354:time_machine_hardware.cpp ****                 case ADC_10:
 355:time_machine_hardware.cpp ****                 case ADC_11:
 356:time_machine_hardware.cpp ****                 case ADC_12:
 357:time_machine_hardware.cpp ****                     for(int muxChannel = 0; muxChannel < 8; muxChannel++) {
 358:time_machine_hardware.cpp ****                         controls[i].Init(adc.GetMuxPtr(i, muxChannel), callback_rate_);
 359:time_machine_hardware.cpp ****                     }
 360:time_machine_hardware.cpp ****                     break;
 361:time_machine_hardware.cpp ****             }
 362:time_machine_hardware.cpp ****         }
 363:time_machine_hardware.cpp **** 
 364:time_machine_hardware.cpp ****         /** Fixed-function Digital I/O */
 365:time_machine_hardware.cpp ****         user_led.Init(PIN_USER_LED, GPIO::Mode::OUTPUT);
 366:time_machine_hardware.cpp **** 
 367:time_machine_hardware.cpp ****         gate_in_1.Init(B10);
 368:time_machine_hardware.cpp ****         gate_in_2.Init(B9);
 369:time_machine_hardware.cpp **** 
 370:time_machine_hardware.cpp ****         /** DAC init */
 371:time_machine_hardware.cpp ****         pimpl_->InitDac();
 372:time_machine_hardware.cpp **** 
 373:time_machine_hardware.cpp ****         /** Start any background stuff */
 374:time_machine_hardware.cpp ****         StartAdc();
 375:time_machine_hardware.cpp ****         StartDac();
 376:time_machine_hardware.cpp ****     }
 377:time_machine_hardware.cpp **** 
 378:time_machine_hardware.cpp ****     void TimeMachineHardware::StartAudio(AudioHandle::AudioCallback cb)
 379:time_machine_hardware.cpp ****     {
 380:time_machine_hardware.cpp ****         audio.Start(cb);
 381:time_machine_hardware.cpp ****     }
 382:time_machine_hardware.cpp **** 
 383:time_machine_hardware.cpp ****     void TimeMachineHardware::StartAudio(AudioHandle::InterleavingAudioCallback cb)
 384:time_machine_hardware.cpp ****     {
 385:time_machine_hardware.cpp ****         audio.Start(cb);
 386:time_machine_hardware.cpp ****     }
 387:time_machine_hardware.cpp **** 
 388:time_machine_hardware.cpp ****     void TimeMachineHardware::ChangeAudioCallback(AudioHandle::AudioCallback cb)
 389:time_machine_hardware.cpp ****     {
 390:time_machine_hardware.cpp ****         audio.ChangeCallback(cb);
 391:time_machine_hardware.cpp ****     }
 392:time_machine_hardware.cpp **** 
 393:time_machine_hardware.cpp ****     void TimeMachineHardware::ChangeAudioCallback(AudioHandle::InterleavingAudioCallback cb)
 394:time_machine_hardware.cpp ****     {
 395:time_machine_hardware.cpp ****         audio.ChangeCallback(cb);
 396:time_machine_hardware.cpp ****     }
 397:time_machine_hardware.cpp **** 
 398:time_machine_hardware.cpp ****     void TimeMachineHardware::StopAudio() { audio.Stop(); }
 399:time_machine_hardware.cpp **** 
 400:time_machine_hardware.cpp ****     void TimeMachineHardware::SetAudioBlockSize(size_t size)
 401:time_machine_hardware.cpp ****     {
 402:time_machine_hardware.cpp ****         audio.SetBlockSize(size);
 403:time_machine_hardware.cpp ****         callback_rate_ = AudioSampleRate() / AudioBlockSize();
 404:time_machine_hardware.cpp ****         for (size_t i = 0; i < ADC_LAST; i++)
ARM GAS  /var/folders/xd/16jvbr6j24q9nvtpm0qtw3240000gn/T//cch9jPA2.s 			page 33


 405:time_machine_hardware.cpp ****         {
 406:time_machine_hardware.cpp ****             controls[i].SetSampleRate(callback_rate_);
 407:time_machine_hardware.cpp ****         }
 408:time_machine_hardware.cpp ****     }
 409:time_machine_hardware.cpp **** 
 410:time_machine_hardware.cpp ****     void TimeMachineHardware::SetAudioSampleRate(float sr)
 411:time_machine_hardware.cpp ****     {
 412:time_machine_hardware.cpp ****         SaiHandle::Config::SampleRate sai_sr;
 413:time_machine_hardware.cpp ****         switch (int(sr))
 414:time_machine_hardware.cpp ****         {
 415:time_machine_hardware.cpp ****             case 8000:
 416:time_machine_hardware.cpp ****                 sai_sr = SaiHandle::Config::SampleRate::SAI_8KHZ;
 417:time_machine_hardware.cpp ****                 break;
 418:time_machine_hardware.cpp **** 
 419:time_machine_hardware.cpp ****             case 16000:
 420:time_machine_hardware.cpp ****                 sai_sr = SaiHandle::Config::SampleRate::SAI_16KHZ;
 421:time_machine_hardware.cpp ****                 break;
 422:time_machine_hardware.cpp **** 
 423:time_machine_hardware.cpp ****             case 32000:
 424:time_machine_hardware.cpp ****                 sai_sr = SaiHandle::Config::SampleRate::SAI_32KHZ;
 425:time_machine_hardware.cpp ****                 break;
 426:time_machine_hardware.cpp **** 
 427:time_machine_hardware.cpp ****             case 48000:
 428:time_machine_hardware.cpp ****                 sai_sr = SaiHandle::Config::SampleRate::SAI_48KHZ;
 429:time_machine_hardware.cpp ****                 break;
 430:time_machine_hardware.cpp **** 
 431:time_machine_hardware.cpp ****             case 96000:
 432:time_machine_hardware.cpp ****                 sai_sr = SaiHandle::Config::SampleRate::SAI_96KHZ;
 433:time_machine_hardware.cpp ****                 break;
 434:time_machine_hardware.cpp **** 
 435:time_machine_hardware.cpp ****             default:
 436:time_machine_hardware.cpp ****                 sai_sr = SaiHandle::Config::SampleRate::SAI_48KHZ;
 437:time_machine_hardware.cpp ****                 break;
 438:time_machine_hardware.cpp ****         }
 439:time_machine_hardware.cpp **** 
 440:time_machine_hardware.cpp ****         audio.SetSampleRate(sai_sr);
 441:time_machine_hardware.cpp ****         callback_rate_ = AudioSampleRate() / AudioBlockSize();
 442:time_machine_hardware.cpp ****         for (size_t i = 0; i < ADC_LAST; i++)
 443:time_machine_hardware.cpp ****         {
 444:time_machine_hardware.cpp ****             controls[i].SetSampleRate(callback_rate_);
 445:time_machine_hardware.cpp ****         }
 446:time_machine_hardware.cpp ****     }
 447:time_machine_hardware.cpp **** 
 448:time_machine_hardware.cpp ****     void TimeMachineHardware::SetAudioSampleRate(SaiHandle::Config::SampleRate sample_rate)
 449:time_machine_hardware.cpp ****     {
 450:time_machine_hardware.cpp ****         audio.SetSampleRate(sample_rate);
 451:time_machine_hardware.cpp ****         callback_rate_ = AudioSampleRate() / AudioBlockSize();
 452:time_machine_hardware.cpp ****         for (size_t i = 0; i < ADC_LAST; i++)
 453:time_machine_hardware.cpp ****         {
 454:time_machine_hardware.cpp ****             controls[i].SetSampleRate(callback_rate_);
 455:time_machine_hardware.cpp ****         }
 456:time_machine_hardware.cpp ****     }
 457:time_machine_hardware.cpp **** 
 458:time_machine_hardware.cpp ****     size_t TimeMachineHardware::AudioBlockSize()
 459:time_machine_hardware.cpp ****     {
 460:time_machine_hardware.cpp ****         return audio.GetConfig().blocksize;
 461:time_machine_hardware.cpp ****     }
ARM GAS  /var/folders/xd/16jvbr6j24q9nvtpm0qtw3240000gn/T//cch9jPA2.s 			page 34


 462:time_machine_hardware.cpp **** 
 463:time_machine_hardware.cpp ****     float TimeMachineHardware::AudioSampleRate() { return audio.GetSampleRate(); }
 762              		.loc 1 463 11 view .LVU244
 763              	.LBB658:
 764              		.loc 1 463 52 view .LVU245
 765              		.loc 1 463 78 is_stmt 0 view .LVU246
 766 00ec 2046     		mov	r0, r4
 767 00ee FFF7FEFF 		bl	_ZN5daisy11AudioHandle13GetSampleRateEv
 768              	.LVL35:
 769              	.LBE658:
 770              	.LBE657:
 771              	.LBB660:
 772              	.LBB661:
 460:time_machine_hardware.cpp ****     }
 773              		.loc 1 460 32 view .LVU247
 774 00f2 2046     		mov	r0, r4
 775              	.LBE661:
 776              	.LBE660:
 777              	.LBB663:
 778              	.LBB659:
 779              		.loc 1 463 78 view .LVU248
 780 00f4 B0EE408A 		vmov.f32	s16, s0
 781              	.LVL36:
 782              		.loc 1 463 78 view .LVU249
 783              	.LBE659:
 784              	.LBE663:
 785              	.LBB664:
 786              	.LBI660:
 458:time_machine_hardware.cpp ****     {
 787              		.loc 1 458 12 is_stmt 1 view .LVU250
 788              	.LBB662:
 460:time_machine_hardware.cpp ****     }
 789              		.loc 1 460 9 view .LVU251
 460:time_machine_hardware.cpp ****     }
 790              		.loc 1 460 32 is_stmt 0 view .LVU252
 791 00f8 FFF7FEFF 		bl	_ZNK5daisy11AudioHandle9GetConfigEv
 792              	.LVL37:
 460:time_machine_hardware.cpp ****     }
 793              		.loc 1 460 32 view .LVU253
 794              	.LBE662:
 795              	.LBE664:
 290:time_machine_hardware.cpp **** 
 796              		.loc 1 290 44 view .LVU254
 797 00fc D0ED007A 		vldr.32	s15, [r0]	@ int
 798 0100 3BA9     		add	r1, sp, #236
 799 0102 0DF5E56C 		add	ip, sp, #1832
 800 0106 F8EE677A 		vcvt.f32.u32	s15, s15
 801 010a 88EE277A 		vdiv.f32	s14, s16, s15
 290:time_machine_hardware.cpp **** 
 802              		.loc 1 290 24 view .LVU255
 803 010e 85ED867A 		vstr.32	s14, [r5, #536]
 293:time_machine_hardware.cpp **** 
 804              		.loc 1 293 9 is_stmt 1 view .LVU256
 293:time_machine_hardware.cpp **** 
 805              		.loc 1 293 49 view .LVU257
 806              	.L27:
 807              	.LVL38:
ARM GAS  /var/folders/xd/16jvbr6j24q9nvtpm0qtw3240000gn/T//cch9jPA2.s 			page 35


 808              	.LBB665:
 809              	.LBI665:
 810              		.file 7 "/Users/jonask/Music/Daisy/libDaisy/src/per/adc.h"
   1:/Users/jonask/Music/Daisy/libDaisy/src/per/adc.h **** #pragma once
   2:/Users/jonask/Music/Daisy/libDaisy/src/per/adc.h **** #ifndef DSY_ADC_H
   3:/Users/jonask/Music/Daisy/libDaisy/src/per/adc.h **** #define DSY_ADC_H /**< Macro */
   4:/Users/jonask/Music/Daisy/libDaisy/src/per/adc.h **** #include <stdint.h>
   5:/Users/jonask/Music/Daisy/libDaisy/src/per/adc.h **** #include <stdlib.h>
   6:/Users/jonask/Music/Daisy/libDaisy/src/per/adc.h **** #include "daisy_core.h"
   7:/Users/jonask/Music/Daisy/libDaisy/src/per/adc.h **** #include "per/gpio.h"
   8:/Users/jonask/Music/Daisy/libDaisy/src/per/adc.h **** 
   9:/Users/jonask/Music/Daisy/libDaisy/src/per/adc.h **** #define DSY_ADC_MAX_CHANNELS 16 /**< Maximum number of ADC channels */
  10:/Users/jonask/Music/Daisy/libDaisy/src/per/adc.h **** 
  11:/Users/jonask/Music/Daisy/libDaisy/src/per/adc.h **** namespace daisy
  12:/Users/jonask/Music/Daisy/libDaisy/src/per/adc.h **** {
  13:/Users/jonask/Music/Daisy/libDaisy/src/per/adc.h **** /** @addtogroup per_analog
  14:/Users/jonask/Music/Daisy/libDaisy/src/per/adc.h ****     @{
  15:/Users/jonask/Music/Daisy/libDaisy/src/per/adc.h **** */
  16:/Users/jonask/Music/Daisy/libDaisy/src/per/adc.h **** 
  17:/Users/jonask/Music/Daisy/libDaisy/src/per/adc.h **** /* While there may not be many configuration options here,
  18:/Users/jonask/Music/Daisy/libDaisy/src/per/adc.h **** using a struct like this allows us to add more configuration
  19:/Users/jonask/Music/Daisy/libDaisy/src/per/adc.h **** later without breaking existing functionality.
  20:/Users/jonask/Music/Daisy/libDaisy/src/per/adc.h **** */
  21:/Users/jonask/Music/Daisy/libDaisy/src/per/adc.h **** 
  22:/Users/jonask/Music/Daisy/libDaisy/src/per/adc.h **** /** @brief   Configuration Structure for an ADC Channel 
  23:/Users/jonask/Music/Daisy/libDaisy/src/per/adc.h ****  *  @details This can be used to configure a a single input, 
  24:/Users/jonask/Music/Daisy/libDaisy/src/per/adc.h ****  *           or a multiplexed input, allowing up to 8 inputs on 
  25:/Users/jonask/Music/Daisy/libDaisy/src/per/adc.h ****  *           one channel.
  26:/Users/jonask/Music/Daisy/libDaisy/src/per/adc.h ****  *  @note    Sharing data lines to multiple muxes _is_ possible, but
  27:/Users/jonask/Music/Daisy/libDaisy/src/per/adc.h ****  *           each channel sharing data lines must be set to the maximum
  28:/Users/jonask/Music/Daisy/libDaisy/src/per/adc.h ****  *           number of channels, even if some multiplexers have fewer
  29:/Users/jonask/Music/Daisy/libDaisy/src/per/adc.h ****  *           inputs connected.
  30:/Users/jonask/Music/Daisy/libDaisy/src/per/adc.h **** */
  31:/Users/jonask/Music/Daisy/libDaisy/src/per/adc.h **** struct AdcChannelConfig
 811              		.loc 7 31 8 view .LVU258
 812              	.LBB666:
 813              	.LBB667:
 814              	.LBI667:
 815              		.file 8 "/Users/jonask/Music/Daisy/libDaisy/src/per/gpio.h"
   1:/Users/jonask/Music/Daisy/libDaisy/src/per/gpio.h **** #pragma once
   2:/Users/jonask/Music/Daisy/libDaisy/src/per/gpio.h **** #ifndef DSY_GPIO_H
   3:/Users/jonask/Music/Daisy/libDaisy/src/per/gpio.h **** #define DSY_GPIO_H
   4:/Users/jonask/Music/Daisy/libDaisy/src/per/gpio.h **** #include "daisy_core.h"
   5:/Users/jonask/Music/Daisy/libDaisy/src/per/gpio.h **** 
   6:/Users/jonask/Music/Daisy/libDaisy/src/per/gpio.h **** #ifdef __cplusplus
   7:/Users/jonask/Music/Daisy/libDaisy/src/per/gpio.h **** 
   8:/Users/jonask/Music/Daisy/libDaisy/src/per/gpio.h **** namespace daisy
   9:/Users/jonask/Music/Daisy/libDaisy/src/per/gpio.h **** {
  10:/Users/jonask/Music/Daisy/libDaisy/src/per/gpio.h **** /** @brief General Purpose I/O control 
  11:/Users/jonask/Music/Daisy/libDaisy/src/per/gpio.h ****  *  @details peripheral control over a single GPIO
  12:/Users/jonask/Music/Daisy/libDaisy/src/per/gpio.h ****  *  @ingroup peripheral
  13:/Users/jonask/Music/Daisy/libDaisy/src/per/gpio.h ****  *   
  14:/Users/jonask/Music/Daisy/libDaisy/src/per/gpio.h ****  *  Button Input (with internal Pullup resistor)
  15:/Users/jonask/Music/Daisy/libDaisy/src/per/gpio.h ****  *  @include GPIO_Input.cpp 
  16:/Users/jonask/Music/Daisy/libDaisy/src/per/gpio.h ****  * 
  17:/Users/jonask/Music/Daisy/libDaisy/src/per/gpio.h ****  *  Output Example (perfect for blinking an LED)
  18:/Users/jonask/Music/Daisy/libDaisy/src/per/gpio.h ****  *  @include GPIO_Output.cpp
ARM GAS  /var/folders/xd/16jvbr6j24q9nvtpm0qtw3240000gn/T//cch9jPA2.s 			page 36


  19:/Users/jonask/Music/Daisy/libDaisy/src/per/gpio.h ****  * 
  20:/Users/jonask/Music/Daisy/libDaisy/src/per/gpio.h **** */
  21:/Users/jonask/Music/Daisy/libDaisy/src/per/gpio.h **** class GPIO
  22:/Users/jonask/Music/Daisy/libDaisy/src/per/gpio.h **** {
  23:/Users/jonask/Music/Daisy/libDaisy/src/per/gpio.h ****   public:
  24:/Users/jonask/Music/Daisy/libDaisy/src/per/gpio.h ****     /** @brief Mode of operation for the specified GPIO */
  25:/Users/jonask/Music/Daisy/libDaisy/src/per/gpio.h ****     enum class Mode
  26:/Users/jonask/Music/Daisy/libDaisy/src/per/gpio.h ****     {
  27:/Users/jonask/Music/Daisy/libDaisy/src/per/gpio.h ****         INPUT,      /**< Input for reading state of pin */
  28:/Users/jonask/Music/Daisy/libDaisy/src/per/gpio.h ****         OUTPUT,     /**< Output w/ push-pull configuration */
  29:/Users/jonask/Music/Daisy/libDaisy/src/per/gpio.h ****         OPEN_DRAIN, /**< Output w/ open-drain configuration */
  30:/Users/jonask/Music/Daisy/libDaisy/src/per/gpio.h ****         ANALOG,     /**< Analog for connection to ADC or DAC peripheral */
  31:/Users/jonask/Music/Daisy/libDaisy/src/per/gpio.h ****     };
  32:/Users/jonask/Music/Daisy/libDaisy/src/per/gpio.h **** 
  33:/Users/jonask/Music/Daisy/libDaisy/src/per/gpio.h ****     /** @brief Configures whether an internal Pull up or Pull down resistor is used. 
  34:/Users/jonask/Music/Daisy/libDaisy/src/per/gpio.h ****      *  
  35:/Users/jonask/Music/Daisy/libDaisy/src/per/gpio.h ****      * Internal Pull up/down resistors are typically 40k ohms, and will be between
  36:/Users/jonask/Music/Daisy/libDaisy/src/per/gpio.h ****      * 30k and 50k
  37:/Users/jonask/Music/Daisy/libDaisy/src/per/gpio.h ****      * 
  38:/Users/jonask/Music/Daisy/libDaisy/src/per/gpio.h ****      * When the Pin is configured in Analog mode, the pull up/down resistors are
  39:/Users/jonask/Music/Daisy/libDaisy/src/per/gpio.h ****      * disabled by hardware. 
  40:/Users/jonask/Music/Daisy/libDaisy/src/per/gpio.h ****      */
  41:/Users/jonask/Music/Daisy/libDaisy/src/per/gpio.h ****     enum class Pull
  42:/Users/jonask/Music/Daisy/libDaisy/src/per/gpio.h ****     {
  43:/Users/jonask/Music/Daisy/libDaisy/src/per/gpio.h ****         NOPULL,   /**< No pull up resistor */
  44:/Users/jonask/Music/Daisy/libDaisy/src/per/gpio.h ****         PULLUP,   /**< Internal pull up enabled */
  45:/Users/jonask/Music/Daisy/libDaisy/src/per/gpio.h ****         PULLDOWN, /**< Internal pull down enabled*/
  46:/Users/jonask/Music/Daisy/libDaisy/src/per/gpio.h ****     };
  47:/Users/jonask/Music/Daisy/libDaisy/src/per/gpio.h **** 
  48:/Users/jonask/Music/Daisy/libDaisy/src/per/gpio.h ****     /** @brief Output speed controls the drive strength, and slew rate of the pin */
  49:/Users/jonask/Music/Daisy/libDaisy/src/per/gpio.h ****     enum class Speed
  50:/Users/jonask/Music/Daisy/libDaisy/src/per/gpio.h ****     {
  51:/Users/jonask/Music/Daisy/libDaisy/src/per/gpio.h ****         LOW,
  52:/Users/jonask/Music/Daisy/libDaisy/src/per/gpio.h ****         MEDIUM,
  53:/Users/jonask/Music/Daisy/libDaisy/src/per/gpio.h ****         HIGH,
  54:/Users/jonask/Music/Daisy/libDaisy/src/per/gpio.h ****         VERY_HIGH,
  55:/Users/jonask/Music/Daisy/libDaisy/src/per/gpio.h ****     };
  56:/Users/jonask/Music/Daisy/libDaisy/src/per/gpio.h **** 
  57:/Users/jonask/Music/Daisy/libDaisy/src/per/gpio.h ****     /** @brief Configuration for a given GPIO */
  58:/Users/jonask/Music/Daisy/libDaisy/src/per/gpio.h ****     struct Config
  59:/Users/jonask/Music/Daisy/libDaisy/src/per/gpio.h ****     {
  60:/Users/jonask/Music/Daisy/libDaisy/src/per/gpio.h ****         Pin   pin;
  61:/Users/jonask/Music/Daisy/libDaisy/src/per/gpio.h ****         Mode  mode;
  62:/Users/jonask/Music/Daisy/libDaisy/src/per/gpio.h ****         Pull  pull;
  63:/Users/jonask/Music/Daisy/libDaisy/src/per/gpio.h ****         Speed speed;
  64:/Users/jonask/Music/Daisy/libDaisy/src/per/gpio.h **** 
  65:/Users/jonask/Music/Daisy/libDaisy/src/per/gpio.h ****         /** Constructor with no arguments will prepare an invalid GPIO set as
  66:/Users/jonask/Music/Daisy/libDaisy/src/per/gpio.h ****          *  an input, with no pullup. 
  67:/Users/jonask/Music/Daisy/libDaisy/src/per/gpio.h ****          */
  68:/Users/jonask/Music/Daisy/libDaisy/src/per/gpio.h ****         Config()
  69:/Users/jonask/Music/Daisy/libDaisy/src/per/gpio.h ****         : pin(), mode(Mode::INPUT), pull(Pull::NOPULL), speed(Speed::LOW)
  70:/Users/jonask/Music/Daisy/libDaisy/src/per/gpio.h ****         {
  71:/Users/jonask/Music/Daisy/libDaisy/src/per/gpio.h ****         }
  72:/Users/jonask/Music/Daisy/libDaisy/src/per/gpio.h ****     };
  73:/Users/jonask/Music/Daisy/libDaisy/src/per/gpio.h **** 
  74:/Users/jonask/Music/Daisy/libDaisy/src/per/gpio.h ****     GPIO() {}
 816              		.loc 8 74 5 view .LVU259
ARM GAS  /var/folders/xd/16jvbr6j24q9nvtpm0qtw3240000gn/T//cch9jPA2.s 			page 37


 817              	.LBB668:
 818              	.LBI668:
  68:/Users/jonask/Music/Daisy/libDaisy/src/per/gpio.h ****         : pin(), mode(Mode::INPUT), pull(Pull::NOPULL), speed(Speed::LOW)
 819              		.loc 8 68 9 view .LVU260
 820              	.LBB669:
 821              	.LBB670:
 822              	.LBI670:
 823              		.loc 4 204 15 view .LVU261
 824              	.LBE670:
  69:/Users/jonask/Music/Daisy/libDaisy/src/per/gpio.h ****         {
 825              		.loc 8 69 73 is_stmt 0 view .LVU262
 826 0112 0022     		movs	r2, #0
 827              	.LBB673:
 828              	.LBB671:
 829              		.loc 4 204 43 view .LVU263
 830 0114 0B24     		movs	r4, #11
 831 0116 FF20     		movs	r0, #255
 832 0118 A1F13C03 		sub	r3, r1, #60
 833 011c 01F8504C 		strb	r4, [r1, #-80]
 834              	.LBE671:
 835              	.LBE673:
  69:/Users/jonask/Music/Daisy/libDaisy/src/per/gpio.h ****         {
 836              		.loc 8 69 73 view .LVU264
 837 0120 41F84C2C 		str	r2, [r1, #-76]
 838              	.LBB674:
 839              	.LBB672:
 840              		.loc 4 204 43 view .LVU265
 841 0124 01F84F0C 		strb	r0, [r1, #-79]
 842              	.LVL39:
 843              		.loc 4 204 43 view .LVU266
 844              	.LBE672:
 845              	.LBE674:
  69:/Users/jonask/Music/Daisy/libDaisy/src/per/gpio.h ****         {
 846              		.loc 8 69 73 view .LVU267
 847 0128 41E91222 		strd	r2, r2, [r1, #-72]
 848              	.LVL40:
  69:/Users/jonask/Music/Daisy/libDaisy/src/per/gpio.h ****         {
 849              		.loc 8 69 73 view .LVU268
 850              	.LBE669:
 851              	.LBE668:
 852              	.LBE667:
 853              		.loc 7 31 8 is_stmt 1 view .LVU269
 854              	.L26:
 855              	.LBB675:
 856              	.LBI675:
 857              		.loc 8 74 5 view .LVU270
 858              	.LBB676:
 859              	.LBI676:
  68:/Users/jonask/Music/Daisy/libDaisy/src/per/gpio.h ****         : pin(), mode(Mode::INPUT), pull(Pull::NOPULL), speed(Speed::LOW)
 860              		.loc 8 68 9 view .LVU271
 861              	.LBB677:
 862              	.LBB678:
 863              	.LBI678:
 864              		.loc 4 204 15 view .LVU272
 865              	.LBE678:
 866              	.LBE677:
 867              	.LBE676:
ARM GAS  /var/folders/xd/16jvbr6j24q9nvtpm0qtw3240000gn/T//cch9jPA2.s 			page 38


 868              	.LBE675:
 869              		.loc 7 31 8 is_stmt 0 view .LVU273
 870 012c 1433     		adds	r3, r3, #20
 871              	.LVL41:
 872              	.LBB687:
 873              	.LBB685:
 874              	.LBB683:
  69:/Users/jonask/Music/Daisy/libDaisy/src/per/gpio.h ****         {
 875              		.loc 8 69 73 view .LVU274
 876 012e 0022     		movs	r2, #0
 877              	.LBB681:
 878              	.LBB679:
 879              		.loc 4 204 43 view .LVU275
 880 0130 0B20     		movs	r0, #11
 881 0132 FF24     		movs	r4, #255
 882              	.LBE679:
 883              	.LBE681:
 884              	.LBE683:
 885              	.LBE685:
 886              	.LBE687:
 887              		.loc 7 31 8 view .LVU276
 888 0134 8B42     		cmp	r3, r1
 889              	.LBB688:
 890              	.LBB686:
 891              	.LBB684:
  69:/Users/jonask/Music/Daisy/libDaisy/src/per/gpio.h ****         {
 892              		.loc 8 69 73 view .LVU277
 893 0136 43F8102C 		str	r2, [r3, #-16]
 894              	.LBB682:
 895              	.LBB680:
 896              		.loc 4 204 43 view .LVU278
 897 013a 03F8140C 		strb	r0, [r3, #-20]
 898 013e 03F8134C 		strb	r4, [r3, #-19]
 899              	.LVL42:
 900              		.loc 4 204 43 view .LVU279
 901              	.LBE680:
 902              	.LBE682:
  69:/Users/jonask/Music/Daisy/libDaisy/src/per/gpio.h ****         {
 903              		.loc 8 69 73 view .LVU280
 904 0142 43E90322 		strd	r2, r2, [r3, #-12]
 905              	.LVL43:
  69:/Users/jonask/Music/Daisy/libDaisy/src/per/gpio.h ****         {
 906              		.loc 8 69 73 view .LVU281
 907              	.LBE684:
 908              	.LBE686:
 909              	.LBE688:
 910              		.loc 7 31 8 is_stmt 1 view .LVU282
 911              		.loc 7 31 8 view .LVU283
 912 0146 F1D1     		bne	.L26
 913              	.LVL44:
 914              		.loc 7 31 8 is_stmt 0 view .LVU284
 915              	.LBE666:
 916              	.LBE665:
 293:time_machine_hardware.cpp **** 
 917              		.loc 1 293 49 is_stmt 1 discriminator 3 view .LVU285
 293:time_machine_hardware.cpp **** 
 918              		.loc 1 293 49 discriminator 3 view .LVU286
ARM GAS  /var/folders/xd/16jvbr6j24q9nvtpm0qtw3240000gn/T//cch9jPA2.s 			page 39


 919 0148 03F15401 		add	r1, r3, #84
 920 014c 6145     		cmp	r1, ip
 921 014e E0D1     		bne	.L27
 296:time_machine_hardware.cpp ****             PIN_ADC_CTRL_1,
 922              		.loc 1 296 9 discriminator 2 view .LVU287
 296:time_machine_hardware.cpp ****             PIN_ADC_CTRL_1,
 923              		.loc 1 296 13 is_stmt 0 discriminator 2 view .LVU288
 924 0150 0DF15C08 		add	r8, sp, #92
 925 0154 DFF8FCE1 		ldr	lr, .L64+40
 926              	.LBB689:
 311:time_machine_hardware.cpp ****         {
 927              		.loc 1 311 18 discriminator 2 view .LVU289
 928 0158 1446     		mov	r4, r2
 929              	.LBE689:
 296:time_machine_hardware.cpp ****             PIN_ADC_CTRL_1,
 930              		.loc 1 296 13 discriminator 2 view .LVU290
 931 015a C446     		mov	ip, r8
 932 015c BEE80F00 		ldmia	lr!, {r0, r1, r2, r3}
 933 0160 ACE80F00 		stmia	ip!, {r0, r1, r2, r3}
 934 0164 9EE80300 		ldm	lr, {r0, r1}
 935 0168 8CE80300 		stm	ip, {r0, r1}
 311:time_machine_hardware.cpp ****         {
 936              		.loc 1 311 9 is_stmt 1 discriminator 2 view .LVU291
 937              	.LVL45:
 938              	.LBB690:
 311:time_machine_hardware.cpp ****         {
 939              		.loc 1 311 27 discriminator 2 view .LVU292
 940 016c 16E0     		b	.L31
 941              	.LVL46:
 942              	.L28:
 319:time_machine_hardware.cpp ****                     break;
 943              		.loc 1 319 42 is_stmt 0 view .LVU293
 944 016e 0B78     		ldrb	r3, [r1]	@ zero_extendqisi2
 311:time_machine_hardware.cpp ****         {
 945              		.loc 1 311 27 view .LVU294
 946 0170 5436     		adds	r6, r6, #84
 319:time_machine_hardware.cpp ****                     break;
 947              		.loc 1 319 42 view .LVU295
 948 0172 91F801A0 		ldrb	r10, [r1, #1]	@ zero_extendqisi2
 949 0176 B9F80090 		ldrh	r9, [r9]	@ unaligned
 950 017a BEF800E0 		ldrh	lr, [lr]	@ unaligned
 951 017e 43EA0A23 		orr	r3, r3, r10, lsl #8
 952 0182 38F81410 		ldrh	r1, [r8, r4, lsl #1]
 311:time_machine_hardware.cpp ****         {
 953              		.loc 1 311 9 view .LVU296
 954 0186 0134     		adds	r4, r4, #1
 955              	.LVL47:
 319:time_machine_hardware.cpp ****                     break;
 956              		.loc 1 319 42 view .LVU297
 957 0188 CDF808C0 		str	ip, [sp, #8]
 958 018c ADF80490 		strh	r9, [sp, #4]	@ unaligned
 959 0190 ADF800E0 		strh	lr, [sp]	@ unaligned
 960 0194 FFF7FEFF 		bl	_ZN5daisy16AdcChannelConfig7InitMuxENS_3PinEjS1_S1_S1_NS0_15ConversionSpeedE
 961              	.LVL48:
 320:time_machine_hardware.cpp **** 
 962              		.loc 1 320 21 is_stmt 1 view .LVU298
 311:time_machine_hardware.cpp ****         {
ARM GAS  /var/folders/xd/16jvbr6j24q9nvtpm0qtw3240000gn/T//cch9jPA2.s 			page 40


 963              		.loc 1 311 9 view .LVU299
 311:time_machine_hardware.cpp ****         {
 964              		.loc 1 311 27 view .LVU300
 965 0198 0C2C     		cmp	r4, #12
 966 019a 17D0     		beq	.L62
 967              	.LVL49:
 968              	.L31:
 313:time_machine_hardware.cpp ****             {
 969              		.loc 1 313 13 view .LVU301
 315:time_machine_hardware.cpp ****                 case ADC_10:
 970              		.loc 1 315 17 view .LVU302
 316:time_machine_hardware.cpp ****                 case ADC_11:
 971              		.loc 1 316 17 view .LVU303
 317:time_machine_hardware.cpp ****                 case ADC_12:
 972              		.loc 1 317 17 view .LVU304
 318:time_machine_hardware.cpp ****                     adc_config[i].InitMux(adc_pins[i], 8, MUX_A, MUX_B, MUX_C);
 973              		.loc 1 318 17 view .LVU305
 319:time_machine_hardware.cpp ****                     break;
 974              		.loc 1 319 21 view .LVU306
 319:time_machine_hardware.cpp ****                     break;
 975              		.loc 1 319 42 is_stmt 0 view .LVU307
 976 019c 6749     		ldr	r1, .L64+16
 313:time_machine_hardware.cpp ****             {
 977              		.loc 1 313 13 view .LVU308
 978 019e A4F10903 		sub	r3, r4, #9
 319:time_machine_hardware.cpp ****                     break;
 979              		.loc 1 319 42 view .LVU309
 980 01a2 DFF8B491 		ldr	r9, .L64+44
 981 01a6 4FF0020C 		mov	ip, #2
 982 01aa DFF8B0E1 		ldr	lr, .L64+48
 983 01ae 0822     		movs	r2, #8
 984 01b0 3046     		mov	r0, r6
 313:time_machine_hardware.cpp ****             {
 985              		.loc 1 313 13 view .LVU310
 986 01b2 002C     		cmp	r4, #0
 987 01b4 DBD0     		beq	.L28
 988 01b6 6345     		cmp	r3, ip
 989 01b8 D9D9     		bls	.L28
 322:time_machine_hardware.cpp ****                     adc_config[i].InitSingle(adc_pins[i]);
 990              		.loc 1 322 17 is_stmt 1 view .LVU311
 323:time_machine_hardware.cpp ****                     break;
 991              		.loc 1 323 21 view .LVU312
 323:time_machine_hardware.cpp ****                     break;
 992              		.loc 1 323 45 is_stmt 0 view .LVU313
 993 01ba 38F81410 		ldrh	r1, [r8, r4, lsl #1]
 311:time_machine_hardware.cpp ****         {
 994              		.loc 1 311 9 view .LVU314
 995 01be 0134     		adds	r4, r4, #1
 996              	.LVL50:
 323:time_machine_hardware.cpp ****                     break;
 997              		.loc 1 323 45 view .LVU315
 998 01c0 0222     		movs	r2, #2
 311:time_machine_hardware.cpp ****         {
 999              		.loc 1 311 27 view .LVU316
 1000 01c2 5436     		adds	r6, r6, #84
 323:time_machine_hardware.cpp ****                     break;
 1001              		.loc 1 323 45 view .LVU317
ARM GAS  /var/folders/xd/16jvbr6j24q9nvtpm0qtw3240000gn/T//cch9jPA2.s 			page 41


 1002 01c4 FFF7FEFF 		bl	_ZN5daisy16AdcChannelConfig10InitSingleENS_3PinENS0_15ConversionSpeedE
 1003              	.LVL51:
 324:time_machine_hardware.cpp ****             }
 1004              		.loc 1 324 21 is_stmt 1 view .LVU318
 311:time_machine_hardware.cpp ****         {
 1005              		.loc 1 311 9 view .LVU319
 311:time_machine_hardware.cpp ****         {
 1006              		.loc 1 311 27 view .LVU320
 1007 01c8 0C2C     		cmp	r4, #12
 1008 01ca E7D1     		bne	.L31
 1009              	.L62:
 311:time_machine_hardware.cpp ****         {
 1010              		.loc 1 311 27 is_stmt 0 view .LVU321
 1011              	.LBE690:
 328:time_machine_hardware.cpp **** 
 1012              		.loc 1 328 9 is_stmt 1 view .LVU322
 328:time_machine_hardware.cpp **** 
 1013              		.loc 1 328 17 is_stmt 0 view .LVU323
 1014 01cc 05F11408 		add	r8, r5, #20
 1015 01d0 05F14009 		add	r9, r5, #64
 1016 01d4 3946     		mov	r1, r7
 1017 01d6 0423     		movs	r3, #4
 1018 01d8 2246     		mov	r2, r4
 1019 01da 4046     		mov	r0, r8
 1020 01dc 0026     		movs	r6, #0
 1021 01de 4F46     		mov	r7, r9
 1022 01e0 FFF7FEFF 		bl	_ZN5daisy9AdcHandle4InitEPNS_16AdcChannelConfigEjNS0_12OverSamplingE
 1023              	.LVL52:
 331:time_machine_hardware.cpp ****         {
 1024              		.loc 1 331 9 is_stmt 1 view .LVU324
 1025              	.LBB691:
 331:time_machine_hardware.cpp ****         {
 1026              		.loc 1 331 30 view .LVU325
 1027 01e4 0BE0     		b	.L42
 1028              	.LVL53:
 1029              	.L58:
 1030              	.LBB692:
 1031              	.LBB693:
 340:time_machine_hardware.cpp ****                 case CV_3:
 1032              		.loc 1 340 17 view .LVU326
 341:time_machine_hardware.cpp ****                 case CV_4:
 1033              		.loc 1 341 17 view .LVU327
 342:time_machine_hardware.cpp ****                 case CV_5:
 1034              		.loc 1 342 17 view .LVU328
 343:time_machine_hardware.cpp ****                 case CV_6:
 1035              		.loc 1 343 17 view .LVU329
 344:time_machine_hardware.cpp ****                 case CV_7:
 1036              		.loc 1 344 17 view .LVU330
 345:time_machine_hardware.cpp ****                 case CV_8:
 1037              		.loc 1 345 17 view .LVU331
 346:time_machine_hardware.cpp ****                     controls[i].InitBipolarCv(adc.GetPtr(i), callback_rate_);
 1038              		.loc 1 346 17 view .LVU332
 347:time_machine_hardware.cpp ****                     break;
 1039              		.loc 1 347 21 view .LVU333
 347:time_machine_hardware.cpp ****                     break;
 1040              		.loc 1 347 46 is_stmt 0 view .LVU334
 1041 01e6 F1B2     		uxtb	r1, r6
ARM GAS  /var/folders/xd/16jvbr6j24q9nvtpm0qtw3240000gn/T//cch9jPA2.s 			page 42


 1042 01e8 4046     		mov	r0, r8
 1043 01ea FFF7FEFF 		bl	_ZNK5daisy9AdcHandle6GetPtrEh
 1044              	.LVL54:
 1045 01ee 95ED860A 		vldr.32	s0, [r5, #536]
 1046 01f2 0146     		mov	r1, r0
 1047 01f4 3846     		mov	r0, r7
 1048 01f6 0136     		adds	r6, r6, #1
 1049              	.LVL55:
 347:time_machine_hardware.cpp ****                     break;
 1050              		.loc 1 347 46 view .LVU335
 1051 01f8 FFF7FEFF 		bl	_ZN5daisy13AnalogControl13InitBipolarCvEPtf
 1052              	.LVL56:
 348:time_machine_hardware.cpp **** 
 1053              		.loc 1 348 21 is_stmt 1 view .LVU336
 1054              	.LBE693:
 1055              	.LBE692:
 331:time_machine_hardware.cpp ****         {
 1056              		.loc 1 331 9 view .LVU337
 331:time_machine_hardware.cpp ****         {
 1057              		.loc 1 331 30 view .LVU338
 1058              	.L39:
 331:time_machine_hardware.cpp ****         {
 1059              		.loc 1 331 30 is_stmt 0 view .LVU339
 1060 01fc 2037     		adds	r7, r7, #32
 1061              	.LVL57:
 1062              	.L42:
 331:time_machine_hardware.cpp ****         {
 1063              		.loc 1 331 30 view .LVU340
 1064              	.LBE691:
 333:time_machine_hardware.cpp ****                 case CV_1:
 1065              		.loc 1 333 13 is_stmt 1 view .LVU341
 1066              	.LBB704:
 1067              	.LBB700:
 1068 01fe 082E     		cmp	r6, #8
 1069 0200 71D0     		beq	.L32
 333:time_machine_hardware.cpp ****                 case CV_1:
 1070              		.loc 1 333 13 is_stmt 0 view .LVU342
 1071 0202 55D8     		bhi	.L33
 333:time_machine_hardware.cpp ****                 case CV_1:
 1072              		.loc 1 333 13 view .LVU343
 1073 0204 731E     		subs	r3, r6, #1
 1074 0206 062B     		cmp	r3, #6
 1075 0208 EDD9     		bls	.L58
 1076              	.L34:
 1077              	.LBB696:
 1078              	.LBB694:
 335:time_machine_hardware.cpp ****                         controls[i].InitBipolarCv(adc.GetMuxPtr(i, muxChannel), callback_rate_);
 1079              		.loc 1 335 29 view .LVU344
 1080 020a 0024     		movs	r4, #0
 1081              	.LVL58:
 1082              	.L37:
 336:time_machine_hardware.cpp ****                     }
 1083              		.loc 1 336 25 is_stmt 1 discriminator 2 view .LVU345
 336:time_machine_hardware.cpp ****                     }
 1084              		.loc 1 336 50 is_stmt 0 discriminator 2 view .LVU346
 1085 020c E2B2     		uxtb	r2, r4
 1086 020e 0021     		movs	r1, #0
ARM GAS  /var/folders/xd/16jvbr6j24q9nvtpm0qtw3240000gn/T//cch9jPA2.s 			page 43


 1087 0210 4046     		mov	r0, r8
 335:time_machine_hardware.cpp ****                         controls[i].InitBipolarCv(adc.GetMuxPtr(i, muxChannel), callback_rate_);
 1088              		.loc 1 335 21 discriminator 2 view .LVU347
 1089 0212 0134     		adds	r4, r4, #1
 1090              	.LVL59:
 336:time_machine_hardware.cpp ****                     }
 1091              		.loc 1 336 50 discriminator 2 view .LVU348
 1092 0214 FFF7FEFF 		bl	_ZNK5daisy9AdcHandle9GetMuxPtrEhh
 1093              	.LVL60:
 1094 0218 95ED860A 		vldr.32	s0, [r5, #536]
 1095 021c 0146     		mov	r1, r0
 1096 021e 4846     		mov	r0, r9
 1097 0220 FFF7FEFF 		bl	_ZN5daisy13AnalogControl13InitBipolarCvEPtf
 1098              	.LVL61:
 335:time_machine_hardware.cpp ****                         controls[i].InitBipolarCv(adc.GetMuxPtr(i, muxChannel), callback_rate_);
 1099              		.loc 1 335 21 is_stmt 1 discriminator 2 view .LVU349
 335:time_machine_hardware.cpp ****                         controls[i].InitBipolarCv(adc.GetMuxPtr(i, muxChannel), callback_rate_);
 1100              		.loc 1 335 56 discriminator 2 view .LVU350
 1101 0224 082C     		cmp	r4, #8
 1102 0226 F1D1     		bne	.L37
 1103              	.LBE694:
 1104              	.LBE696:
 1105              	.LBE700:
 331:time_machine_hardware.cpp ****         {
 1106              		.loc 1 331 9 view .LVU351
 1107 0228 0136     		adds	r6, r6, #1
 1108              	.LVL62:
 331:time_machine_hardware.cpp ****         {
 1109              		.loc 1 331 30 view .LVU352
 1110 022a 0C2E     		cmp	r6, #12
 1111 022c E6D1     		bne	.L39
 1112              	.LVL63:
 1113              	.L63:
 331:time_machine_hardware.cpp ****         {
 1114              		.loc 1 331 30 is_stmt 0 view .LVU353
 1115              	.LBE704:
 365:time_machine_hardware.cpp **** 
 1116              		.loc 1 365 9 is_stmt 1 view .LVU354
 365:time_machine_hardware.cpp **** 
 1117              		.loc 1 365 22 is_stmt 0 view .LVU355
 1118 022e 0024     		movs	r4, #0
 1119 0230 434A     		ldr	r2, .L64+20
 1120 0232 05F12C00 		add	r0, r5, #44
 1121 0236 2346     		mov	r3, r4
 1122 0238 1168     		ldr	r1, [r2]
 1123 023a 0094     		str	r4, [sp]
 1124 023c 0122     		movs	r2, #1
 1125 023e FFF7FEFF 		bl	_ZN5daisy4GPIO4InitENS_3PinENS0_4ModeENS0_4PullENS0_5SpeedE
 1126              	.LVL64:
 367:time_machine_hardware.cpp ****         gate_in_2.Init(B9);
 1127              		.loc 1 367 9 is_stmt 1 view .LVU356
 367:time_machine_hardware.cpp ****         gate_in_2.Init(B9);
 1128              		.loc 1 367 23 is_stmt 0 view .LVU357
 1129 0242 404B     		ldr	r3, .L64+24
 1130 0244 05F5E070 		add	r0, r5, #448
 1131 0248 0122     		movs	r2, #1
 1132 024a 1968     		ldr	r1, [r3]
ARM GAS  /var/folders/xd/16jvbr6j24q9nvtpm0qtw3240000gn/T//cch9jPA2.s 			page 44


 1133 024c FFF7FEFF 		bl	_ZN5daisy6GateIn4InitENS_3PinEb
 1134              	.LVL65:
 368:time_machine_hardware.cpp **** 
 1135              		.loc 1 368 9 is_stmt 1 view .LVU358
 368:time_machine_hardware.cpp **** 
 1136              		.loc 1 368 23 is_stmt 0 view .LVU359
 1137 0250 3D4B     		ldr	r3, .L64+28
 1138 0252 05F5EC70 		add	r0, r5, #472
 1139 0256 0122     		movs	r2, #1
 1140 0258 1968     		ldr	r1, [r3]
 1141 025a FFF7FEFF 		bl	_ZN5daisy6GateIn4InitENS_3PinEb
 1142              	.LVL66:
 371:time_machine_hardware.cpp **** 
 1143              		.loc 1 371 9 is_stmt 1 view .LVU360
 1144              	.LBB705:
 1145              	.LBB706:
 174:time_machine_hardware.cpp ****         dac_config.bitdepth = DacHandle::BitDepth::
 1146              		.loc 1 174 29 is_stmt 0 view .LVU361
 1147 025e 0123     		movs	r3, #1
 1148              	.LBE706:
 1149              	.LBE705:
 371:time_machine_hardware.cpp **** 
 1150              		.loc 1 371 9 view .LVU362
 1151 0260 D5F81C02 		ldr	r0, [r5, #540]
 1152              	.LVL67:
 1153              	.LBB708:
 1154              	.LBI705:
 171:time_machine_hardware.cpp ****     {
 1155              		.loc 1 171 10 is_stmt 1 view .LVU363
 1156              	.LBB707:
 173:time_machine_hardware.cpp ****         dac_config.mode     = DacHandle::Mode::DMA;
 1157              		.loc 1 173 9 view .LVU364
 174:time_machine_hardware.cpp ****         dac_config.bitdepth = DacHandle::BitDepth::
 1158              		.loc 1 174 9 view .LVU365
 179:time_machine_hardware.cpp ****         dac_.Init(dac_config);
 1159              		.loc 1 179 38 is_stmt 0 view .LVU366
 1160 0264 4BF68032 		movw	r2, #48000
 180:time_machine_hardware.cpp ****     }
 1161              		.loc 1 180 18 view .LVU367
 1162 0268 12A9     		add	r1, sp, #72
 178:time_machine_hardware.cpp ****         dac_config.target_samplerate = 48000;
 1163              		.loc 1 178 38 view .LVU368
 1164 026a 1694     		str	r4, [sp, #88]
 180:time_machine_hardware.cpp ****     }
 1165              		.loc 1 180 18 view .LVU369
 1166 026c 1030     		adds	r0, r0, #16
 1167              	.LVL68:
 179:time_machine_hardware.cpp ****         dac_.Init(dac_config);
 1168              		.loc 1 179 38 view .LVU370
 1169 026e 1292     		str	r2, [sp, #72]
 175:time_machine_hardware.cpp ****             BITS_12; /**< Sets the output value to 0-4095 */
 1170              		.loc 1 175 29 view .LVU371
 1171 0270 CDE91433 		strd	r3, r3, [sp, #80]
 177:time_machine_hardware.cpp ****         dac_config.buff_state        = DacHandle::BufferState::ENABLED;
 1172              		.loc 1 177 9 is_stmt 1 view .LVU372
 177:time_machine_hardware.cpp ****         dac_config.buff_state        = DacHandle::BufferState::ENABLED;
 1173              		.loc 1 177 38 is_stmt 0 view .LVU373
ARM GAS  /var/folders/xd/16jvbr6j24q9nvtpm0qtw3240000gn/T//cch9jPA2.s 			page 45


 1174 0274 0223     		movs	r3, #2
 1175 0276 1393     		str	r3, [sp, #76]
 178:time_machine_hardware.cpp ****         dac_config.target_samplerate = 48000;
 1176              		.loc 1 178 9 is_stmt 1 view .LVU374
 179:time_machine_hardware.cpp ****         dac_.Init(dac_config);
 1177              		.loc 1 179 9 view .LVU375
 180:time_machine_hardware.cpp ****     }
 1178              		.loc 1 180 9 view .LVU376
 180:time_machine_hardware.cpp ****     }
 1179              		.loc 1 180 18 is_stmt 0 view .LVU377
 1180 0278 FFF7FEFF 		bl	_ZN5daisy9DacHandle4InitERKNS0_6ConfigE
 1181              	.LVL69:
 180:time_machine_hardware.cpp ****     }
 1182              		.loc 1 180 18 view .LVU378
 1183              	.LBE707:
 1184              	.LBE708:
 374:time_machine_hardware.cpp ****         StartDac();
 1185              		.loc 1 374 9 is_stmt 1 view .LVU379
 1186              	.LBB709:
 1187              	.LBI709:
 464:time_machine_hardware.cpp **** 
 465:time_machine_hardware.cpp ****     float TimeMachineHardware::AudioCallbackRate() { return callback_rate_; }
 466:time_machine_hardware.cpp **** 
 467:time_machine_hardware.cpp ****     void TimeMachineHardware::StartAdc() { adc.Start(); }
 1188              		.loc 1 467 10 view .LVU380
 1189              	.LBB710:
 1190              		.loc 1 467 44 view .LVU381
 1191              		.loc 1 467 53 is_stmt 0 view .LVU382
 1192 027c 4046     		mov	r0, r8
 1193 027e FFF7FEFF 		bl	_ZN5daisy9AdcHandle5StartEv
 1194              	.LVL70:
 1195              		.loc 1 467 53 view .LVU383
 1196              	.LBE710:
 1197              	.LBE709:
 375:time_machine_hardware.cpp ****     }
 1198              		.loc 1 375 9 is_stmt 1 view .LVU384
 1199              	.LBB711:
 1200              	.LBI711:
 468:time_machine_hardware.cpp **** 
 469:time_machine_hardware.cpp ****     void TimeMachineHardware::StopAdc() { adc.Stop(); }
 470:time_machine_hardware.cpp **** 
 471:time_machine_hardware.cpp ****     void TimeMachineHardware::ProcessAnalogControls()
 472:time_machine_hardware.cpp ****     {
 473:time_machine_hardware.cpp ****         for (int i = 0; i < ADC_LAST; i++)
 474:time_machine_hardware.cpp ****         {
 475:time_machine_hardware.cpp ****             controls[i].Process();
 476:time_machine_hardware.cpp ****         }
 477:time_machine_hardware.cpp ****     }
 478:time_machine_hardware.cpp **** 
 479:time_machine_hardware.cpp ****     void TimeMachineHardware::ProcessDigitalControls() {}
 480:time_machine_hardware.cpp **** 
 481:time_machine_hardware.cpp ****     float TimeMachineHardware::GetAdcValue(int idx) { return controls[idx].Value(); }
 482:time_machine_hardware.cpp **** 
 483:time_machine_hardware.cpp ****     float TimeMachineHardware::GetLevelSlider(int idx) {
 484:time_machine_hardware.cpp ****         const int muxMapping[] = {5, 7, 6, 4, 3, 0, 1, 2};
 485:time_machine_hardware.cpp **** 
 486:time_machine_hardware.cpp ****         if (idx == 0) {
ARM GAS  /var/folders/xd/16jvbr6j24q9nvtpm0qtw3240000gn/T//cch9jPA2.s 			page 46


 487:time_machine_hardware.cpp ****             return 1.0 - adc.GetMuxFloat(MISC_MUX, 3);
 488:time_machine_hardware.cpp ****         } else {
 489:time_machine_hardware.cpp ****             return 1.0 - adc.GetMuxFloat(LEVEL_MUX, muxMapping[idx - 1]);
 490:time_machine_hardware.cpp ****         }
 491:time_machine_hardware.cpp ****     }
 492:time_machine_hardware.cpp **** 
 493:time_machine_hardware.cpp ****     float TimeMachineHardware::GetLevelCV(int idx) {
 494:time_machine_hardware.cpp ****         const int muxMapping[] = {3, 2, 1, 0, 4, 5, 6, 7};
 495:time_machine_hardware.cpp **** 
 496:time_machine_hardware.cpp ****         if (idx == 0)
 497:time_machine_hardware.cpp ****         {
 498:time_machine_hardware.cpp ****             return GetAdcValue(LEVEL_DRY_CV);
 499:time_machine_hardware.cpp ****         }
 500:time_machine_hardware.cpp ****         else
 501:time_machine_hardware.cpp ****         {
 502:time_machine_hardware.cpp ****             return ((1.0 - adc.GetMuxFloat(LEVEL_CV_MUX, muxMapping[idx - 1])) * 2.0) - 1.0;
 503:time_machine_hardware.cpp ****         }
 504:time_machine_hardware.cpp ****     }
 505:time_machine_hardware.cpp **** 
 506:time_machine_hardware.cpp ****     float TimeMachineHardware::GetPanKnob(int idx) {
 507:time_machine_hardware.cpp ****         const int muxMapping[] = {5, 7, 6, 4, 1, 2, 0, 3};
 508:time_machine_hardware.cpp **** 
 509:time_machine_hardware.cpp ****         // The '1.0 - x' bit here is because our pan pots are wired backwards!
 510:time_machine_hardware.cpp ****         if (idx == 0)
 511:time_machine_hardware.cpp ****         {
 512:time_machine_hardware.cpp ****             return 1.0 - adc.GetMuxFloat(MISC_MUX, 6);
 513:time_machine_hardware.cpp ****         }
 514:time_machine_hardware.cpp ****         else
 515:time_machine_hardware.cpp ****         {
 516:time_machine_hardware.cpp ****             return 1.0 - adc.GetMuxFloat(PAN_MUX, muxMapping[idx - 1]);
 517:time_machine_hardware.cpp ****         }
 518:time_machine_hardware.cpp ****     }
 519:time_machine_hardware.cpp **** 
 520:time_machine_hardware.cpp ****     float TimeMachineHardware::GetSpreadKnob()
 521:time_machine_hardware.cpp ****     {
 522:time_machine_hardware.cpp ****         return adc.GetMuxFloat(MISC_MUX, 2);
 523:time_machine_hardware.cpp ****     }
 524:time_machine_hardware.cpp **** 
 525:time_machine_hardware.cpp ****     float TimeMachineHardware::GetTimeKnob()
 526:time_machine_hardware.cpp ****     {
 527:time_machine_hardware.cpp ****         return adc.GetMuxFloat(MISC_MUX, 4);
 528:time_machine_hardware.cpp ****     }
 529:time_machine_hardware.cpp **** 
 530:time_machine_hardware.cpp ****     float TimeMachineHardware::GetFeedbackKnob()
 531:time_machine_hardware.cpp ****     {
 532:time_machine_hardware.cpp ****         return adc.GetMuxFloat(MISC_MUX, 1);
 533:time_machine_hardware.cpp ****     }
 534:time_machine_hardware.cpp **** 
 535:time_machine_hardware.cpp ****     float TimeMachineHardware::GetHighpassKnob()
 536:time_machine_hardware.cpp ****     {
 537:time_machine_hardware.cpp ****         return adc.GetMuxFloat(MISC_MUX, 0);
 538:time_machine_hardware.cpp ****     }
 539:time_machine_hardware.cpp **** 
 540:time_machine_hardware.cpp ****     float TimeMachineHardware::GetLowpassKnob()
 541:time_machine_hardware.cpp ****     {
 542:time_machine_hardware.cpp ****         return adc.GetMuxFloat(MISC_MUX, 5);
 543:time_machine_hardware.cpp ****     }
ARM GAS  /var/folders/xd/16jvbr6j24q9nvtpm0qtw3240000gn/T//cch9jPA2.s 			page 47


 544:time_machine_hardware.cpp **** 
 545:time_machine_hardware.cpp ****     Pin TimeMachineHardware::GetPin(const PinBank bank, const int idx)
 546:time_machine_hardware.cpp ****     {
 547:time_machine_hardware.cpp ****         if(idx <= 0 || idx > 10)
 548:time_machine_hardware.cpp ****         {
 549:time_machine_hardware.cpp ****             return DUMMYPIN;
 550:time_machine_hardware.cpp ****         }
 551:time_machine_hardware.cpp ****         else
 552:time_machine_hardware.cpp ****         {
 553:time_machine_hardware.cpp ****             return kPinMap[static_cast<int>(bank)][idx - 1];
 554:time_machine_hardware.cpp ****         }
 555:time_machine_hardware.cpp ****     }
 556:time_machine_hardware.cpp **** 
 557:time_machine_hardware.cpp ****     void TimeMachineHardware::StartDac(DacHandle::DacCallback callback)
 1201              		.loc 1 557 10 view .LVU385
 1202              	.LBB712:
 558:time_machine_hardware.cpp ****     {
 559:time_machine_hardware.cpp ****         pimpl_->StartDac(callback);
 1203              		.loc 1 559 9 view .LVU386
 1204 0282 D5F81C42 		ldr	r4, [r5, #540]
 1205              	.LVL71:
 1206              	.LBB713:
 1207              	.LBI713:
 183:time_machine_hardware.cpp ****     {
 1208              		.loc 1 183 10 view .LVU387
 1209              	.LBB714:
 185:time_machine_hardware.cpp ****             dac_.Stop();
 1210              		.loc 1 185 9 view .LVU388
 1211 0286 237D     		ldrb	r3, [r4, #20]	@ zero_extendqisi2
 186:time_machine_hardware.cpp ****         dac_.Start(internal_dac_buffer_[0],
 1212              		.loc 1 186 22 is_stmt 0 view .LVU389
 1213 0288 04F11005 		add	r5, r4, #16
 1214              	.LVL72:
 185:time_machine_hardware.cpp ****             dac_.Stop();
 1215              		.loc 1 185 9 view .LVU390
 1216 028c 002B     		cmp	r3, #0
 1217 028e 48D1     		bne	.L43
 1218              	.L44:
 187:time_machine_hardware.cpp ****                    internal_dac_buffer_[1],
 1219              		.loc 1 187 9 is_stmt 1 view .LVU391
 187:time_machine_hardware.cpp ****                    internal_dac_buffer_[1],
 1220              		.loc 1 187 19 is_stmt 0 view .LVU392
 1221 0290 2846     		mov	r0, r5
 1222 0292 2E4D     		ldr	r5, .L64+32
 1223 0294 2368     		ldr	r3, [r4]
 1224 0296 D4E90112 		ldrd	r1, r2, [r4, #4]
 1225 029a 0095     		str	r5, [sp]
 1226 029c FFF7FEFF 		bl	_ZN5daisy9DacHandle5StartEPtS1_jPFvPS1_jE
 1227              	.LVL73:
 191:time_machine_hardware.cpp ****     }
 1228              		.loc 1 191 9 is_stmt 1 view .LVU393
 191:time_machine_hardware.cpp ****     }
 1229              		.loc 1 191 22 is_stmt 0 view .LVU394
 1230 02a0 0123     		movs	r3, #1
 1231 02a2 2375     		strb	r3, [r4, #20]
 1232              	.LVL74:
 191:time_machine_hardware.cpp ****     }
ARM GAS  /var/folders/xd/16jvbr6j24q9nvtpm0qtw3240000gn/T//cch9jPA2.s 			page 48


 1233              		.loc 1 191 22 view .LVU395
 1234              	.LBE714:
 1235              	.LBE713:
 1236              	.LBE712:
 1237              	.LBE711:
 376:time_machine_hardware.cpp **** 
 1238              		.loc 1 376 5 view .LVU396
 1239 02a4 0DF5DB6D 		add	sp, sp, #1752
 1240              		.cfi_remember_state
 1241              		.cfi_def_cfa_offset 40
 1242              		@ sp needed
 1243 02a8 BDEC028B 		vldm	sp!, {d8}
 1244              		.cfi_restore 80
 1245              		.cfi_restore 81
 1246              		.cfi_def_cfa_offset 32
 1247 02ac BDE8F087 		pop	{r4, r5, r6, r7, r8, r9, r10, pc}
 1248              	.LVL75:
 1249              	.L33:
 1250              		.cfi_restore_state
 1251              	.LBB718:
 1252              	.LBB701:
 333:time_machine_hardware.cpp ****                 case CV_1:
 1253              		.loc 1 333 13 view .LVU397
 1254 02b0 0C2E     		cmp	r6, #12
 1255 02b2 AAD0     		beq	.L34
 1256              	.LVL76:
 1257              	.L36:
 333:time_machine_hardware.cpp ****                 case CV_1:
 1258              		.loc 1 333 13 view .LVU398
 1259 02b4 5FFA86FA 		uxtb	r10, r6
 1260              	.LBB697:
 1261              	.LBB695:
 357:time_machine_hardware.cpp ****                         controls[i].Init(adc.GetMuxPtr(i, muxChannel), callback_rate_);
 1262              		.loc 1 357 29 view .LVU399
 1263 02b8 0024     		movs	r4, #0
 1264              	.L41:
 1265              	.LVL77:
 358:time_machine_hardware.cpp ****                     }
 1266              		.loc 1 358 25 is_stmt 1 discriminator 2 view .LVU400
 358:time_machine_hardware.cpp ****                     }
 1267              		.loc 1 358 41 is_stmt 0 discriminator 2 view .LVU401
 1268 02ba E2B2     		uxtb	r2, r4
 1269 02bc 5146     		mov	r1, r10
 1270 02be 4046     		mov	r0, r8
 357:time_machine_hardware.cpp ****                         controls[i].Init(adc.GetMuxPtr(i, muxChannel), callback_rate_);
 1271              		.loc 1 357 21 discriminator 2 view .LVU402
 1272 02c0 0134     		adds	r4, r4, #1
 1273              	.LVL78:
 358:time_machine_hardware.cpp ****                     }
 1274              		.loc 1 358 41 discriminator 2 view .LVU403
 1275 02c2 FFF7FEFF 		bl	_ZNK5daisy9AdcHandle9GetMuxPtrEhh
 1276              	.LVL79:
 1277 02c6 0023     		movs	r3, #0
 1278 02c8 0146     		mov	r1, r0
 1279 02ca DFED210A 		vldr.32	s1, .L64+36
 1280 02ce 95ED860A 		vldr.32	s0, [r5, #536]
 1281 02d2 1A46     		mov	r2, r3
ARM GAS  /var/folders/xd/16jvbr6j24q9nvtpm0qtw3240000gn/T//cch9jPA2.s 			page 49


 1282 02d4 3846     		mov	r0, r7
 1283 02d6 FFF7FEFF 		bl	_ZN5daisy13AnalogControl4InitEPtfbbf
 1284              	.LVL80:
 357:time_machine_hardware.cpp ****                         controls[i].Init(adc.GetMuxPtr(i, muxChannel), callback_rate_);
 1285              		.loc 1 357 21 is_stmt 1 discriminator 2 view .LVU404
 357:time_machine_hardware.cpp ****                         controls[i].Init(adc.GetMuxPtr(i, muxChannel), callback_rate_);
 1286              		.loc 1 357 56 discriminator 2 view .LVU405
 1287 02da 082C     		cmp	r4, #8
 1288 02dc EDD1     		bne	.L41
 1289              	.LBE695:
 1290              	.LBE697:
 1291              	.LBE701:
 331:time_machine_hardware.cpp ****         {
 1292              		.loc 1 331 9 view .LVU406
 1293 02de 0136     		adds	r6, r6, #1
 1294              	.LVL81:
 331:time_machine_hardware.cpp ****         {
 1295              		.loc 1 331 30 view .LVU407
 1296 02e0 0C2E     		cmp	r6, #12
 1297 02e2 8BD1     		bne	.L39
 1298 02e4 A3E7     		b	.L63
 1299              	.LVL82:
 1300              	.L32:
 1301              	.LBB702:
 1302              	.LBB698:
 350:time_machine_hardware.cpp ****                     controls[i].Init(adc.GetPtr(i), callback_rate_);
 1303              		.loc 1 350 17 view .LVU408
 351:time_machine_hardware.cpp ****                     break;
 1304              		.loc 1 351 21 view .LVU409
 351:time_machine_hardware.cpp ****                     break;
 1305              		.loc 1 351 37 is_stmt 0 view .LVU410
 1306 02e6 3146     		mov	r1, r6
 1307 02e8 4046     		mov	r0, r8
 1308 02ea FFF7FEFF 		bl	_ZNK5daisy9AdcHandle6GetPtrEh
 1309              	.LVL83:
 1310 02ee 0023     		movs	r3, #0
 1311 02f0 0146     		mov	r1, r0
 1312 02f2 DFED170A 		vldr.32	s1, .L64+36
 1313 02f6 1A46     		mov	r2, r3
 1314 02f8 95ED860A 		vldr.32	s0, [r5, #536]
 1315 02fc 05F5A070 		add	r0, r5, #320
 1316 0300 2037     		adds	r7, r7, #32
 1317              	.LBE698:
 1318              	.LBE702:
 331:time_machine_hardware.cpp ****         {
 1319              		.loc 1 331 9 view .LVU411
 1320 0302 0926     		movs	r6, #9
 1321              	.LVL84:
 1322              	.LBB703:
 1323              	.LBB699:
 351:time_machine_hardware.cpp ****                     break;
 1324              		.loc 1 351 37 view .LVU412
 1325 0304 FFF7FEFF 		bl	_ZN5daisy13AnalogControl4InitEPtfbbf
 1326              	.LVL85:
 352:time_machine_hardware.cpp **** 
 1327              		.loc 1 352 21 is_stmt 1 view .LVU413
 1328              	.LBE699:
ARM GAS  /var/folders/xd/16jvbr6j24q9nvtpm0qtw3240000gn/T//cch9jPA2.s 			page 50


 1329              	.LBE703:
 331:time_machine_hardware.cpp ****         {
 1330              		.loc 1 331 9 view .LVU414
 331:time_machine_hardware.cpp ****         {
 1331              		.loc 1 331 30 view .LVU415
 331:time_machine_hardware.cpp ****         {
 1332              		.loc 1 331 30 is_stmt 0 view .LVU416
 1333              	.LBE718:
 333:time_machine_hardware.cpp ****                 case CV_1:
 1334              		.loc 1 333 13 is_stmt 1 view .LVU417
 1335 0308 D4E7     		b	.L36
 1336              	.LVL86:
 1337              	.L61:
 333:time_machine_hardware.cpp ****                 case CV_1:
 1338              		.loc 1 333 13 is_stmt 0 view .LVU418
 1339 030a 0446     		mov	r4, r0
 229:time_machine_hardware.cpp ****         }
 1340              		.loc 1 229 13 is_stmt 1 view .LVU419
 232:time_machine_hardware.cpp **** 
 1341              		.loc 1 232 20 is_stmt 0 view .LVU420
 1342 030c 07A9     		add	r1, sp, #28
 1343 030e 2846     		mov	r0, r5
 1344              	.LVL87:
 229:time_machine_hardware.cpp ****         }
 1345              		.loc 1 229 32 view .LVU421
 1346 0310 8DF82260 		strb	r6, [sp, #34]
 232:time_machine_hardware.cpp **** 
 1347              		.loc 1 232 9 is_stmt 1 view .LVU422
 232:time_machine_hardware.cpp **** 
 1348              		.loc 1 232 20 is_stmt 0 view .LVU423
 1349 0314 FFF7FEFF 		bl	_ZN5daisy6System4InitERKNS0_6ConfigE
 1350              	.LVL88:
 235:time_machine_hardware.cpp ****         {
 1351              		.loc 1 235 9 is_stmt 1 view .LVU424
 241:time_machine_hardware.cpp ****         {
 1352              		.loc 1 241 9 view .LVU425
 1353              	.LBB719:
 1354 0318 072C     		cmp	r4, #7
 1355 031a 7FF491AE 		bne	.L45
 1356 031e 27AF     		add	r7, sp, #156
 1357 0320 AAE6     		b	.L25
 1358              	.LVL89:
 1359              	.L43:
 241:time_machine_hardware.cpp ****         {
 1360              		.loc 1 241 9 is_stmt 0 view .LVU426
 1361              	.LBE719:
 1362              	.LBB720:
 1363              	.LBB717:
 1364              	.LBB716:
 1365              	.LBB715:
 186:time_machine_hardware.cpp ****         dac_.Start(internal_dac_buffer_[0],
 1366              		.loc 1 186 13 is_stmt 1 view .LVU427
 186:time_machine_hardware.cpp ****         dac_.Start(internal_dac_buffer_[0],
 1367              		.loc 1 186 22 is_stmt 0 view .LVU428
 1368 0322 2846     		mov	r0, r5
 1369 0324 FFF7FEFF 		bl	_ZN5daisy9DacHandle4StopEv
 1370              	.LVL90:
ARM GAS  /var/folders/xd/16jvbr6j24q9nvtpm0qtw3240000gn/T//cch9jPA2.s 			page 51


 1371 0328 B2E7     		b	.L44
 1372              	.L65:
 1373 032a 00BF     		.align	2
 1374              	.L64:
 1375 032c 00000000 		.word	.LANCHOR0
 1376 0330 04020404 		.word	67371524
 1377 0334 010A010B 		.word	184617473
 1378 0338 00000000 		.word	.LANCHOR1
 1379 033c 00000000 		.word	_ZN5daisy8patch_sm12DaisyPatchSM2D2E
 1380 0340 00000000 		.word	.LANCHOR2
 1381 0344 00000000 		.word	.LANCHOR3
 1382 0348 00000000 		.word	.LANCHOR4
 1383 034c 00000000 		.word	_ZN3oam12time_machine19TimeMachineHardware4Impl19InternalDacCallbackEPPtj
 1384 0350 6F12033B 		.word	990057071
 1385 0354 10000000 		.word	.LANCHOR1+16
 1386 0358 00000000 		.word	_ZN5daisy8patch_sm12DaisyPatchSM2D4E
 1387 035c 00000000 		.word	_ZN5daisy8patch_sm12DaisyPatchSM2D3E
 1388              	.LBE715:
 1389              	.LBE716:
 1390              	.LBE717:
 1391              	.LBE720:
 1392              		.cfi_endproc
 1393              	.LFE3139:
 1395              		.section	.text._ZN3oam12time_machine19TimeMachineHardware10StartAudioEPFvPKPKfPPfjE,"ax",%progbits
 1396              		.align	1
 1397              		.p2align 2,,3
 1398              		.global	_ZN3oam12time_machine19TimeMachineHardware10StartAudioEPFvPKPKfPPfjE
 1399              		.syntax unified
 1400              		.thumb
 1401              		.thumb_func
 1403              	_ZN3oam12time_machine19TimeMachineHardware10StartAudioEPFvPKPKfPPfjE:
 1404              	.LVL91:
 1405              	.LFB3158:
 379:time_machine_hardware.cpp ****         audio.Start(cb);
 1406              		.loc 1 379 5 is_stmt 1 view -0
 1407              		.cfi_startproc
 1408              		@ args = 0, pretend = 0, frame = 0
 1409              		@ frame_needed = 0, uses_anonymous_args = 0
 1410              		@ link register save eliminated.
 380:time_machine_hardware.cpp ****     }
 1411              		.loc 1 380 9 view .LVU430
 380:time_machine_hardware.cpp ****     }
 1412              		.loc 1 380 20 is_stmt 0 view .LVU431
 1413 0000 1030     		adds	r0, r0, #16
 1414              	.LVL92:
 380:time_machine_hardware.cpp ****     }
 1415              		.loc 1 380 20 view .LVU432
 1416 0002 FFF7FEBF 		b	_ZN5daisy11AudioHandle5StartEPFvPKPKfPPfjE
 1417              	.LVL93:
 380:time_machine_hardware.cpp ****     }
 1418              		.loc 1 380 20 view .LVU433
 1419              		.cfi_endproc
 1420              	.LFE3158:
 1422 0006 00BF     		.section	.text._ZN3oam12time_machine19TimeMachineHardware10StartAudioEPFvPKfPfjE,"ax",%progbits
 1423              		.align	1
 1424              		.p2align 2,,3
 1425              		.global	_ZN3oam12time_machine19TimeMachineHardware10StartAudioEPFvPKfPfjE
ARM GAS  /var/folders/xd/16jvbr6j24q9nvtpm0qtw3240000gn/T//cch9jPA2.s 			page 52


 1426              		.syntax unified
 1427              		.thumb
 1428              		.thumb_func
 1430              	_ZN3oam12time_machine19TimeMachineHardware10StartAudioEPFvPKfPfjE:
 1431              	.LVL94:
 1432              	.LFB3159:
 384:time_machine_hardware.cpp ****         audio.Start(cb);
 1433              		.loc 1 384 5 is_stmt 1 view -0
 1434              		.cfi_startproc
 1435              		@ args = 0, pretend = 0, frame = 0
 1436              		@ frame_needed = 0, uses_anonymous_args = 0
 1437              		@ link register save eliminated.
 385:time_machine_hardware.cpp ****     }
 1438              		.loc 1 385 9 view .LVU435
 385:time_machine_hardware.cpp ****     }
 1439              		.loc 1 385 20 is_stmt 0 view .LVU436
 1440 0000 1030     		adds	r0, r0, #16
 1441              	.LVL95:
 385:time_machine_hardware.cpp ****     }
 1442              		.loc 1 385 20 view .LVU437
 1443 0002 FFF7FEBF 		b	_ZN5daisy11AudioHandle5StartEPFvPKfPfjE
 1444              	.LVL96:
 385:time_machine_hardware.cpp ****     }
 1445              		.loc 1 385 20 view .LVU438
 1446              		.cfi_endproc
 1447              	.LFE3159:
 1449 0006 00BF     		.section	.text._ZN3oam12time_machine19TimeMachineHardware19ChangeAudioCallbackEPFvPKPKfPPfjE,"ax",
 1450              		.align	1
 1451              		.p2align 2,,3
 1452              		.global	_ZN3oam12time_machine19TimeMachineHardware19ChangeAudioCallbackEPFvPKPKfPPfjE
 1453              		.syntax unified
 1454              		.thumb
 1455              		.thumb_func
 1457              	_ZN3oam12time_machine19TimeMachineHardware19ChangeAudioCallbackEPFvPKPKfPPfjE:
 1458              	.LVL97:
 1459              	.LFB3160:
 389:time_machine_hardware.cpp ****         audio.ChangeCallback(cb);
 1460              		.loc 1 389 5 is_stmt 1 view -0
 1461              		.cfi_startproc
 1462              		@ args = 0, pretend = 0, frame = 0
 1463              		@ frame_needed = 0, uses_anonymous_args = 0
 1464              		@ link register save eliminated.
 390:time_machine_hardware.cpp ****     }
 1465              		.loc 1 390 9 view .LVU440
 390:time_machine_hardware.cpp ****     }
 1466              		.loc 1 390 29 is_stmt 0 view .LVU441
 1467 0000 1030     		adds	r0, r0, #16
 1468              	.LVL98:
 390:time_machine_hardware.cpp ****     }
 1469              		.loc 1 390 29 view .LVU442
 1470 0002 FFF7FEBF 		b	_ZN5daisy11AudioHandle14ChangeCallbackEPFvPKPKfPPfjE
 1471              	.LVL99:
 390:time_machine_hardware.cpp ****     }
 1472              		.loc 1 390 29 view .LVU443
 1473              		.cfi_endproc
 1474              	.LFE3160:
 1476 0006 00BF     		.section	.text._ZN3oam12time_machine19TimeMachineHardware19ChangeAudioCallbackEPFvPKfPfjE,"ax",%pr
ARM GAS  /var/folders/xd/16jvbr6j24q9nvtpm0qtw3240000gn/T//cch9jPA2.s 			page 53


 1477              		.align	1
 1478              		.p2align 2,,3
 1479              		.global	_ZN3oam12time_machine19TimeMachineHardware19ChangeAudioCallbackEPFvPKfPfjE
 1480              		.syntax unified
 1481              		.thumb
 1482              		.thumb_func
 1484              	_ZN3oam12time_machine19TimeMachineHardware19ChangeAudioCallbackEPFvPKfPfjE:
 1485              	.LVL100:
 1486              	.LFB3161:
 394:time_machine_hardware.cpp ****         audio.ChangeCallback(cb);
 1487              		.loc 1 394 5 is_stmt 1 view -0
 1488              		.cfi_startproc
 1489              		@ args = 0, pretend = 0, frame = 0
 1490              		@ frame_needed = 0, uses_anonymous_args = 0
 1491              		@ link register save eliminated.
 395:time_machine_hardware.cpp ****     }
 1492              		.loc 1 395 9 view .LVU445
 395:time_machine_hardware.cpp ****     }
 1493              		.loc 1 395 29 is_stmt 0 view .LVU446
 1494 0000 1030     		adds	r0, r0, #16
 1495              	.LVL101:
 395:time_machine_hardware.cpp ****     }
 1496              		.loc 1 395 29 view .LVU447
 1497 0002 FFF7FEBF 		b	_ZN5daisy11AudioHandle14ChangeCallbackEPFvPKfPfjE
 1498              	.LVL102:
 395:time_machine_hardware.cpp ****     }
 1499              		.loc 1 395 29 view .LVU448
 1500              		.cfi_endproc
 1501              	.LFE3161:
 1503 0006 00BF     		.section	.text._ZN3oam12time_machine19TimeMachineHardware9StopAudioEv,"ax",%progbits
 1504              		.align	1
 1505              		.p2align 2,,3
 1506              		.global	_ZN3oam12time_machine19TimeMachineHardware9StopAudioEv
 1507              		.syntax unified
 1508              		.thumb
 1509              		.thumb_func
 1511              	_ZN3oam12time_machine19TimeMachineHardware9StopAudioEv:
 1512              	.LVL103:
 1513              	.LFB3162:
 398:time_machine_hardware.cpp **** 
 1514              		.loc 1 398 43 is_stmt 1 view -0
 1515              		.cfi_startproc
 1516              		@ args = 0, pretend = 0, frame = 0
 1517              		@ frame_needed = 0, uses_anonymous_args = 0
 1518              		@ link register save eliminated.
 398:time_machine_hardware.cpp **** 
 1519              		.loc 1 398 45 view .LVU450
 398:time_machine_hardware.cpp **** 
 1520              		.loc 1 398 55 is_stmt 0 view .LVU451
 1521 0000 1030     		adds	r0, r0, #16
 1522              	.LVL104:
 398:time_machine_hardware.cpp **** 
 1523              		.loc 1 398 55 view .LVU452
 1524 0002 FFF7FEBF 		b	_ZN5daisy11AudioHandle4StopEv
 1525              	.LVL105:
 398:time_machine_hardware.cpp **** 
 1526              		.loc 1 398 55 view .LVU453
ARM GAS  /var/folders/xd/16jvbr6j24q9nvtpm0qtw3240000gn/T//cch9jPA2.s 			page 54


 1527              		.cfi_endproc
 1528              	.LFE3162:
 1530 0006 00BF     		.section	.text._ZN3oam12time_machine19TimeMachineHardware17SetAudioBlockSizeEj,"ax",%progbits
 1531              		.align	1
 1532              		.p2align 2,,3
 1533              		.global	_ZN3oam12time_machine19TimeMachineHardware17SetAudioBlockSizeEj
 1534              		.syntax unified
 1535              		.thumb
 1536              		.thumb_func
 1538              	_ZN3oam12time_machine19TimeMachineHardware17SetAudioBlockSizeEj:
 1539              	.LVL106:
 1540              	.LFB3163:
 401:time_machine_hardware.cpp ****         audio.SetBlockSize(size);
 1541              		.loc 1 401 5 is_stmt 1 view -0
 1542              		.cfi_startproc
 1543              		@ args = 0, pretend = 0, frame = 0
 1544              		@ frame_needed = 0, uses_anonymous_args = 0
 402:time_machine_hardware.cpp ****         callback_rate_ = AudioSampleRate() / AudioBlockSize();
 1545              		.loc 1 402 9 view .LVU455
 401:time_machine_hardware.cpp ****         audio.SetBlockSize(size);
 1546              		.loc 1 401 5 is_stmt 0 view .LVU456
 1547 0000 F8B5     		push	{r3, r4, r5, r6, r7, lr}
 1548              		.cfi_def_cfa_offset 24
 1549              		.cfi_offset 3, -24
 1550              		.cfi_offset 4, -20
 1551              		.cfi_offset 5, -16
 1552              		.cfi_offset 6, -12
 1553              		.cfi_offset 7, -8
 1554              		.cfi_offset 14, -4
 402:time_machine_hardware.cpp ****         callback_rate_ = AudioSampleRate() / AudioBlockSize();
 1555              		.loc 1 402 27 view .LVU457
 1556 0002 00F11007 		add	r7, r0, #16
 401:time_machine_hardware.cpp ****         audio.SetBlockSize(size);
 1557              		.loc 1 401 5 view .LVU458
 1558 0006 0546     		mov	r5, r0
 1559 0008 00F14004 		add	r4, r0, #64
 1560 000c 00F5E076 		add	r6, r0, #448
 402:time_machine_hardware.cpp ****         callback_rate_ = AudioSampleRate() / AudioBlockSize();
 1561              		.loc 1 402 27 view .LVU459
 1562 0010 3846     		mov	r0, r7
 1563              	.LVL107:
 401:time_machine_hardware.cpp ****         audio.SetBlockSize(size);
 1564              		.loc 1 401 5 view .LVU460
 1565 0012 2DED028B 		vpush.64	{d8}
 1566              		.cfi_def_cfa_offset 32
 1567              		.cfi_offset 80, -32
 1568              		.cfi_offset 81, -28
 402:time_machine_hardware.cpp ****         callback_rate_ = AudioSampleRate() / AudioBlockSize();
 1569              		.loc 1 402 27 view .LVU461
 1570 0016 FFF7FEFF 		bl	_ZN5daisy11AudioHandle12SetBlockSizeEj
 1571              	.LVL108:
 403:time_machine_hardware.cpp ****         for (size_t i = 0; i < ADC_LAST; i++)
 1572              		.loc 1 403 9 is_stmt 1 view .LVU462
 1573              	.LBB721:
 1574              	.LBI721:
 463:time_machine_hardware.cpp **** 
 1575              		.loc 1 463 11 view .LVU463
ARM GAS  /var/folders/xd/16jvbr6j24q9nvtpm0qtw3240000gn/T//cch9jPA2.s 			page 55


 1576              	.LBB722:
 463:time_machine_hardware.cpp **** 
 1577              		.loc 1 463 52 view .LVU464
 463:time_machine_hardware.cpp **** 
 1578              		.loc 1 463 78 is_stmt 0 view .LVU465
 1579 001a 3846     		mov	r0, r7
 1580 001c FFF7FEFF 		bl	_ZN5daisy11AudioHandle13GetSampleRateEv
 1581              	.LVL109:
 1582              	.LBE722:
 1583              	.LBE721:
 1584              	.LBB724:
 1585              	.LBB725:
 460:time_machine_hardware.cpp ****     }
 1586              		.loc 1 460 32 view .LVU466
 1587 0020 3846     		mov	r0, r7
 1588              	.LBE725:
 1589              	.LBE724:
 1590              	.LBB727:
 1591              	.LBB723:
 463:time_machine_hardware.cpp **** 
 1592              		.loc 1 463 78 view .LVU467
 1593 0022 B0EE408A 		vmov.f32	s16, s0
 1594              	.LVL110:
 463:time_machine_hardware.cpp **** 
 1595              		.loc 1 463 78 view .LVU468
 1596              	.LBE723:
 1597              	.LBE727:
 1598              	.LBB728:
 1599              	.LBI724:
 458:time_machine_hardware.cpp ****     {
 1600              		.loc 1 458 12 is_stmt 1 view .LVU469
 1601              	.LBB726:
 460:time_machine_hardware.cpp ****     }
 1602              		.loc 1 460 9 view .LVU470
 460:time_machine_hardware.cpp ****     }
 1603              		.loc 1 460 32 is_stmt 0 view .LVU471
 1604 0026 FFF7FEFF 		bl	_ZNK5daisy11AudioHandle9GetConfigEv
 1605              	.LVL111:
 460:time_machine_hardware.cpp ****     }
 1606              		.loc 1 460 32 view .LVU472
 1607              	.LBE726:
 1608              	.LBE728:
 403:time_machine_hardware.cpp ****         for (size_t i = 0; i < ADC_LAST; i++)
 1609              		.loc 1 403 44 view .LVU473
 1610 002a D0ED007A 		vldr.32	s15, [r0]	@ int
 1611 002e F8EE677A 		vcvt.f32.u32	s15, s15
 1612 0032 88EE270A 		vdiv.f32	s0, s16, s15
 403:time_machine_hardware.cpp ****         for (size_t i = 0; i < ADC_LAST; i++)
 1613              		.loc 1 403 24 view .LVU474
 1614 0036 85ED860A 		vstr.32	s0, [r5, #536]
 404:time_machine_hardware.cpp ****         {
 1615              		.loc 1 404 9 is_stmt 1 view .LVU475
 1616              	.LVL112:
 1617              	.LBB729:
 404:time_machine_hardware.cpp ****         {
 1618              		.loc 1 404 30 view .LVU476
 1619 003a 01E0     		b	.L73
ARM GAS  /var/folders/xd/16jvbr6j24q9nvtpm0qtw3240000gn/T//cch9jPA2.s 			page 56


 1620              	.LVL113:
 1621              	.L75:
 406:time_machine_hardware.cpp ****         }
 1622              		.loc 1 406 38 is_stmt 0 view .LVU477
 1623 003c 95ED860A 		vldr.32	s0, [r5, #536]
 1624              	.L73:
 406:time_machine_hardware.cpp ****         }
 1625              		.loc 1 406 13 is_stmt 1 discriminator 2 view .LVU478
 406:time_machine_hardware.cpp ****         }
 1626              		.loc 1 406 38 is_stmt 0 discriminator 2 view .LVU479
 1627 0040 2046     		mov	r0, r4
 404:time_machine_hardware.cpp ****         {
 1628              		.loc 1 404 30 discriminator 2 view .LVU480
 1629 0042 2034     		adds	r4, r4, #32
 406:time_machine_hardware.cpp ****         }
 1630              		.loc 1 406 38 discriminator 2 view .LVU481
 1631 0044 FFF7FEFF 		bl	_ZN5daisy13AnalogControl13SetSampleRateEf
 1632              	.LVL114:
 404:time_machine_hardware.cpp ****         {
 1633              		.loc 1 404 9 is_stmt 1 discriminator 2 view .LVU482
 404:time_machine_hardware.cpp ****         {
 1634              		.loc 1 404 30 discriminator 2 view .LVU483
 1635 0048 B442     		cmp	r4, r6
 1636 004a F7D1     		bne	.L75
 1637              	.LBE729:
 408:time_machine_hardware.cpp **** 
 1638              		.loc 1 408 5 is_stmt 0 view .LVU484
 1639 004c BDEC028B 		vldm	sp!, {d8}
 1640              		.cfi_restore 80
 1641              		.cfi_restore 81
 1642              		.cfi_def_cfa_offset 24
 1643 0050 F8BD     		pop	{r3, r4, r5, r6, r7, pc}
 408:time_machine_hardware.cpp **** 
 1644              		.loc 1 408 5 view .LVU485
 1645              		.cfi_endproc
 1646              	.LFE3163:
 1648 0052 00BF     		.section	.text._ZN3oam12time_machine19TimeMachineHardware18SetAudioSampleRateEf,"ax",%progbits
 1649              		.align	1
 1650              		.p2align 2,,3
 1651              		.global	_ZN3oam12time_machine19TimeMachineHardware18SetAudioSampleRateEf
 1652              		.syntax unified
 1653              		.thumb
 1654              		.thumb_func
 1656              	_ZN3oam12time_machine19TimeMachineHardware18SetAudioSampleRateEf:
 1657              	.LVL115:
 1658              	.LFB3164:
 411:time_machine_hardware.cpp ****         SaiHandle::Config::SampleRate sai_sr;
 1659              		.loc 1 411 5 is_stmt 1 view -0
 1660              		.cfi_startproc
 1661              		@ args = 0, pretend = 0, frame = 0
 1662              		@ frame_needed = 0, uses_anonymous_args = 0
 412:time_machine_hardware.cpp ****         switch (int(sr))
 1663              		.loc 1 412 9 view .LVU487
 413:time_machine_hardware.cpp ****         {
 1664              		.loc 1 413 9 view .LVU488
 413:time_machine_hardware.cpp ****         {
 1665              		.loc 1 413 17 is_stmt 0 view .LVU489
ARM GAS  /var/folders/xd/16jvbr6j24q9nvtpm0qtw3240000gn/T//cch9jPA2.s 			page 57


 1666 0000 FDEEC07A 		vcvt.s32.f32	s15, s0
 411:time_machine_hardware.cpp ****         SaiHandle::Config::SampleRate sai_sr;
 1667              		.loc 1 411 5 view .LVU490
 1668 0004 F8B5     		push	{r3, r4, r5, r6, r7, lr}
 1669              		.cfi_def_cfa_offset 24
 1670              		.cfi_offset 3, -24
 1671              		.cfi_offset 4, -20
 1672              		.cfi_offset 5, -16
 1673              		.cfi_offset 6, -12
 1674              		.cfi_offset 7, -8
 1675              		.cfi_offset 14, -4
 413:time_machine_hardware.cpp ****         {
 1676              		.loc 1 413 17 view .LVU491
 1677 0006 17EE901A 		vmov	r1, s15	@ int
 411:time_machine_hardware.cpp ****         SaiHandle::Config::SampleRate sai_sr;
 1678              		.loc 1 411 5 view .LVU492
 1679 000a 0546     		mov	r5, r0
 413:time_machine_hardware.cpp ****         {
 1680              		.loc 1 413 9 view .LVU493
 1681 000c B1F5FA4F 		cmp	r1, #32000
 411:time_machine_hardware.cpp ****         SaiHandle::Config::SampleRate sai_sr;
 1682              		.loc 1 411 5 view .LVU494
 1683 0010 2DED028B 		vpush.64	{d8}
 1684              		.cfi_def_cfa_offset 32
 1685              		.cfi_offset 80, -32
 1686              		.cfi_offset 81, -28
 413:time_machine_hardware.cpp ****         {
 1687              		.loc 1 413 9 view .LVU495
 1688 0014 35D0     		beq	.L81
 1689 0016 2CDC     		bgt	.L78
 1690 0018 B1F5FA5F 		cmp	r1, #8000
 1691 001c 2FD0     		beq	.L82
 1692 001e B1F57A5F 		cmp	r1, #16000
 1693 0022 14BF     		ite	ne
 1694 0024 0321     		movne	r1, #3
 1695 0026 0121     		moveq	r1, #1
 1696              	.L77:
 1697              	.LVL116:
 440:time_machine_hardware.cpp ****         callback_rate_ = AudioSampleRate() / AudioBlockSize();
 1698              		.loc 1 440 9 is_stmt 1 view .LVU496
 440:time_machine_hardware.cpp ****         callback_rate_ = AudioSampleRate() / AudioBlockSize();
 1699              		.loc 1 440 28 is_stmt 0 view .LVU497
 1700 0028 05F11007 		add	r7, r5, #16
 1701 002c 05F14004 		add	r4, r5, #64
 1702 0030 05F5E076 		add	r6, r5, #448
 1703 0034 3846     		mov	r0, r7
 1704              	.LVL117:
 440:time_machine_hardware.cpp ****         callback_rate_ = AudioSampleRate() / AudioBlockSize();
 1705              		.loc 1 440 28 view .LVU498
 1706 0036 FFF7FEFF 		bl	_ZN5daisy11AudioHandle13SetSampleRateENS_9SaiHandle6Config10SampleRateE
 1707              	.LVL118:
 441:time_machine_hardware.cpp ****         for (size_t i = 0; i < ADC_LAST; i++)
 1708              		.loc 1 441 9 is_stmt 1 view .LVU499
 1709              	.LBB730:
 1710              	.LBI730:
 463:time_machine_hardware.cpp **** 
 1711              		.loc 1 463 11 view .LVU500
ARM GAS  /var/folders/xd/16jvbr6j24q9nvtpm0qtw3240000gn/T//cch9jPA2.s 			page 58


 1712              	.LBB731:
 463:time_machine_hardware.cpp **** 
 1713              		.loc 1 463 52 view .LVU501
 463:time_machine_hardware.cpp **** 
 1714              		.loc 1 463 78 is_stmt 0 view .LVU502
 1715 003a 3846     		mov	r0, r7
 1716 003c FFF7FEFF 		bl	_ZN5daisy11AudioHandle13GetSampleRateEv
 1717              	.LVL119:
 1718              	.LBE731:
 1719              	.LBE730:
 1720              	.LBB733:
 1721              	.LBB734:
 460:time_machine_hardware.cpp ****     }
 1722              		.loc 1 460 32 view .LVU503
 1723 0040 3846     		mov	r0, r7
 1724              	.LBE734:
 1725              	.LBE733:
 1726              	.LBB736:
 1727              	.LBB732:
 463:time_machine_hardware.cpp **** 
 1728              		.loc 1 463 78 view .LVU504
 1729 0042 B0EE408A 		vmov.f32	s16, s0
 1730              	.LVL120:
 463:time_machine_hardware.cpp **** 
 1731              		.loc 1 463 78 view .LVU505
 1732              	.LBE732:
 1733              	.LBE736:
 1734              	.LBB737:
 1735              	.LBI733:
 458:time_machine_hardware.cpp ****     {
 1736              		.loc 1 458 12 is_stmt 1 view .LVU506
 1737              	.LBB735:
 460:time_machine_hardware.cpp ****     }
 1738              		.loc 1 460 9 view .LVU507
 460:time_machine_hardware.cpp ****     }
 1739              		.loc 1 460 32 is_stmt 0 view .LVU508
 1740 0046 FFF7FEFF 		bl	_ZNK5daisy11AudioHandle9GetConfigEv
 1741              	.LVL121:
 460:time_machine_hardware.cpp ****     }
 1742              		.loc 1 460 32 view .LVU509
 1743              	.LBE735:
 1744              	.LBE737:
 441:time_machine_hardware.cpp ****         for (size_t i = 0; i < ADC_LAST; i++)
 1745              		.loc 1 441 44 view .LVU510
 1746 004a D0ED007A 		vldr.32	s15, [r0]	@ int
 1747 004e F8EE677A 		vcvt.f32.u32	s15, s15
 1748 0052 88EE270A 		vdiv.f32	s0, s16, s15
 441:time_machine_hardware.cpp ****         for (size_t i = 0; i < ADC_LAST; i++)
 1749              		.loc 1 441 24 view .LVU511
 1750 0056 85ED860A 		vstr.32	s0, [r5, #536]
 442:time_machine_hardware.cpp ****         {
 1751              		.loc 1 442 9 is_stmt 1 view .LVU512
 1752              	.LVL122:
 1753              	.LBB738:
 442:time_machine_hardware.cpp ****         {
 1754              		.loc 1 442 30 view .LVU513
 1755 005a 01E0     		b	.L80
ARM GAS  /var/folders/xd/16jvbr6j24q9nvtpm0qtw3240000gn/T//cch9jPA2.s 			page 59


 1756              	.LVL123:
 1757              	.L86:
 444:time_machine_hardware.cpp ****         }
 1758              		.loc 1 444 38 is_stmt 0 view .LVU514
 1759 005c 95ED860A 		vldr.32	s0, [r5, #536]
 1760              	.L80:
 444:time_machine_hardware.cpp ****         }
 1761              		.loc 1 444 13 is_stmt 1 discriminator 2 view .LVU515
 444:time_machine_hardware.cpp ****         }
 1762              		.loc 1 444 38 is_stmt 0 discriminator 2 view .LVU516
 1763 0060 2046     		mov	r0, r4
 442:time_machine_hardware.cpp ****         {
 1764              		.loc 1 442 30 discriminator 2 view .LVU517
 1765 0062 2034     		adds	r4, r4, #32
 444:time_machine_hardware.cpp ****         }
 1766              		.loc 1 444 38 discriminator 2 view .LVU518
 1767 0064 FFF7FEFF 		bl	_ZN5daisy13AnalogControl13SetSampleRateEf
 1768              	.LVL124:
 442:time_machine_hardware.cpp ****         {
 1769              		.loc 1 442 9 is_stmt 1 discriminator 2 view .LVU519
 442:time_machine_hardware.cpp ****         {
 1770              		.loc 1 442 30 discriminator 2 view .LVU520
 1771 0068 B442     		cmp	r4, r6
 1772 006a F7D1     		bne	.L86
 1773              	.LBE738:
 446:time_machine_hardware.cpp **** 
 1774              		.loc 1 446 5 is_stmt 0 view .LVU521
 1775 006c BDEC028B 		vldm	sp!, {d8}
 1776              		.cfi_remember_state
 1777              		.cfi_restore 80
 1778              		.cfi_restore 81
 1779              		.cfi_def_cfa_offset 24
 1780 0070 F8BD     		pop	{r3, r4, r5, r6, r7, pc}
 1781              	.LVL125:
 1782              	.L78:
 1783              		.cfi_restore_state
 413:time_machine_hardware.cpp ****         {
 1784              		.loc 1 413 9 view .LVU522
 1785 0072 054B     		ldr	r3, .L87
 432:time_machine_hardware.cpp ****                 break;
 1786              		.loc 1 432 24 view .LVU523
 1787 0074 9942     		cmp	r1, r3
 1788 0076 14BF     		ite	ne
 1789 0078 0321     		movne	r1, #3
 1790 007a 0421     		moveq	r1, #4
 1791 007c D4E7     		b	.L77
 1792              	.L82:
 416:time_machine_hardware.cpp ****                 break;
 1793              		.loc 1 416 24 view .LVU524
 1794 007e 0021     		movs	r1, #0
 1795 0080 D2E7     		b	.L77
 1796              	.L81:
 424:time_machine_hardware.cpp ****                 break;
 1797              		.loc 1 424 24 view .LVU525
 1798 0082 0221     		movs	r1, #2
 1799 0084 D0E7     		b	.L77
 1800              	.L88:
ARM GAS  /var/folders/xd/16jvbr6j24q9nvtpm0qtw3240000gn/T//cch9jPA2.s 			page 60


 1801 0086 00BF     		.align	2
 1802              	.L87:
 1803 0088 00770100 		.word	96000
 1804              		.cfi_endproc
 1805              	.LFE3164:
 1807              		.section	.text._ZN3oam12time_machine19TimeMachineHardware18SetAudioSampleRateEN5daisy9SaiHandle6Co
 1808              		.align	1
 1809              		.p2align 2,,3
 1810              		.global	_ZN3oam12time_machine19TimeMachineHardware18SetAudioSampleRateEN5daisy9SaiHandle6Config10S
 1811              		.syntax unified
 1812              		.thumb
 1813              		.thumb_func
 1815              	_ZN3oam12time_machine19TimeMachineHardware18SetAudioSampleRateEN5daisy9SaiHandle6Config10SampleRate
 1816              	.LVL126:
 1817              	.LFB3165:
 449:time_machine_hardware.cpp ****         audio.SetSampleRate(sample_rate);
 1818              		.loc 1 449 5 is_stmt 1 view -0
 1819              		.cfi_startproc
 1820              		@ args = 0, pretend = 0, frame = 0
 1821              		@ frame_needed = 0, uses_anonymous_args = 0
 450:time_machine_hardware.cpp ****         callback_rate_ = AudioSampleRate() / AudioBlockSize();
 1822              		.loc 1 450 9 view .LVU527
 449:time_machine_hardware.cpp ****         audio.SetSampleRate(sample_rate);
 1823              		.loc 1 449 5 is_stmt 0 view .LVU528
 1824 0000 F8B5     		push	{r3, r4, r5, r6, r7, lr}
 1825              		.cfi_def_cfa_offset 24
 1826              		.cfi_offset 3, -24
 1827              		.cfi_offset 4, -20
 1828              		.cfi_offset 5, -16
 1829              		.cfi_offset 6, -12
 1830              		.cfi_offset 7, -8
 1831              		.cfi_offset 14, -4
 450:time_machine_hardware.cpp ****         callback_rate_ = AudioSampleRate() / AudioBlockSize();
 1832              		.loc 1 450 28 view .LVU529
 1833 0002 00F11007 		add	r7, r0, #16
 449:time_machine_hardware.cpp ****         audio.SetSampleRate(sample_rate);
 1834              		.loc 1 449 5 view .LVU530
 1835 0006 0546     		mov	r5, r0
 1836 0008 00F14004 		add	r4, r0, #64
 1837 000c 00F5E076 		add	r6, r0, #448
 450:time_machine_hardware.cpp ****         callback_rate_ = AudioSampleRate() / AudioBlockSize();
 1838              		.loc 1 450 28 view .LVU531
 1839 0010 3846     		mov	r0, r7
 1840              	.LVL127:
 449:time_machine_hardware.cpp ****         audio.SetSampleRate(sample_rate);
 1841              		.loc 1 449 5 view .LVU532
 1842 0012 2DED028B 		vpush.64	{d8}
 1843              		.cfi_def_cfa_offset 32
 1844              		.cfi_offset 80, -32
 1845              		.cfi_offset 81, -28
 450:time_machine_hardware.cpp ****         callback_rate_ = AudioSampleRate() / AudioBlockSize();
 1846              		.loc 1 450 28 view .LVU533
 1847 0016 FFF7FEFF 		bl	_ZN5daisy11AudioHandle13SetSampleRateENS_9SaiHandle6Config10SampleRateE
 1848              	.LVL128:
 451:time_machine_hardware.cpp ****         for (size_t i = 0; i < ADC_LAST; i++)
 1849              		.loc 1 451 9 is_stmt 1 view .LVU534
 1850              	.LBB739:
ARM GAS  /var/folders/xd/16jvbr6j24q9nvtpm0qtw3240000gn/T//cch9jPA2.s 			page 61


 1851              	.LBI739:
 463:time_machine_hardware.cpp **** 
 1852              		.loc 1 463 11 view .LVU535
 1853              	.LBB740:
 463:time_machine_hardware.cpp **** 
 1854              		.loc 1 463 52 view .LVU536
 463:time_machine_hardware.cpp **** 
 1855              		.loc 1 463 78 is_stmt 0 view .LVU537
 1856 001a 3846     		mov	r0, r7
 1857 001c FFF7FEFF 		bl	_ZN5daisy11AudioHandle13GetSampleRateEv
 1858              	.LVL129:
 1859              	.LBE740:
 1860              	.LBE739:
 1861              	.LBB742:
 1862              	.LBB743:
 460:time_machine_hardware.cpp ****     }
 1863              		.loc 1 460 32 view .LVU538
 1864 0020 3846     		mov	r0, r7
 1865              	.LBE743:
 1866              	.LBE742:
 1867              	.LBB745:
 1868              	.LBB741:
 463:time_machine_hardware.cpp **** 
 1869              		.loc 1 463 78 view .LVU539
 1870 0022 B0EE408A 		vmov.f32	s16, s0
 1871              	.LVL130:
 463:time_machine_hardware.cpp **** 
 1872              		.loc 1 463 78 view .LVU540
 1873              	.LBE741:
 1874              	.LBE745:
 1875              	.LBB746:
 1876              	.LBI742:
 458:time_machine_hardware.cpp ****     {
 1877              		.loc 1 458 12 is_stmt 1 view .LVU541
 1878              	.LBB744:
 460:time_machine_hardware.cpp ****     }
 1879              		.loc 1 460 9 view .LVU542
 460:time_machine_hardware.cpp ****     }
 1880              		.loc 1 460 32 is_stmt 0 view .LVU543
 1881 0026 FFF7FEFF 		bl	_ZNK5daisy11AudioHandle9GetConfigEv
 1882              	.LVL131:
 460:time_machine_hardware.cpp ****     }
 1883              		.loc 1 460 32 view .LVU544
 1884              	.LBE744:
 1885              	.LBE746:
 451:time_machine_hardware.cpp ****         for (size_t i = 0; i < ADC_LAST; i++)
 1886              		.loc 1 451 44 view .LVU545
 1887 002a D0ED007A 		vldr.32	s15, [r0]	@ int
 1888 002e F8EE677A 		vcvt.f32.u32	s15, s15
 1889 0032 88EE270A 		vdiv.f32	s0, s16, s15
 451:time_machine_hardware.cpp ****         for (size_t i = 0; i < ADC_LAST; i++)
 1890              		.loc 1 451 24 view .LVU546
 1891 0036 85ED860A 		vstr.32	s0, [r5, #536]
 452:time_machine_hardware.cpp ****         {
 1892              		.loc 1 452 9 is_stmt 1 view .LVU547
 1893              	.LVL132:
 1894              	.LBB747:
ARM GAS  /var/folders/xd/16jvbr6j24q9nvtpm0qtw3240000gn/T//cch9jPA2.s 			page 62


 452:time_machine_hardware.cpp ****         {
 1895              		.loc 1 452 30 view .LVU548
 1896 003a 01E0     		b	.L91
 1897              	.LVL133:
 1898              	.L93:
 454:time_machine_hardware.cpp ****         }
 1899              		.loc 1 454 38 is_stmt 0 view .LVU549
 1900 003c 95ED860A 		vldr.32	s0, [r5, #536]
 1901              	.L91:
 454:time_machine_hardware.cpp ****         }
 1902              		.loc 1 454 13 is_stmt 1 discriminator 2 view .LVU550
 454:time_machine_hardware.cpp ****         }
 1903              		.loc 1 454 38 is_stmt 0 discriminator 2 view .LVU551
 1904 0040 2046     		mov	r0, r4
 452:time_machine_hardware.cpp ****         {
 1905              		.loc 1 452 30 discriminator 2 view .LVU552
 1906 0042 2034     		adds	r4, r4, #32
 454:time_machine_hardware.cpp ****         }
 1907              		.loc 1 454 38 discriminator 2 view .LVU553
 1908 0044 FFF7FEFF 		bl	_ZN5daisy13AnalogControl13SetSampleRateEf
 1909              	.LVL134:
 452:time_machine_hardware.cpp ****         {
 1910              		.loc 1 452 9 is_stmt 1 discriminator 2 view .LVU554
 452:time_machine_hardware.cpp ****         {
 1911              		.loc 1 452 30 discriminator 2 view .LVU555
 1912 0048 B442     		cmp	r4, r6
 1913 004a F7D1     		bne	.L93
 1914              	.LBE747:
 456:time_machine_hardware.cpp **** 
 1915              		.loc 1 456 5 is_stmt 0 view .LVU556
 1916 004c BDEC028B 		vldm	sp!, {d8}
 1917              		.cfi_restore 80
 1918              		.cfi_restore 81
 1919              		.cfi_def_cfa_offset 24
 1920 0050 F8BD     		pop	{r3, r4, r5, r6, r7, pc}
 456:time_machine_hardware.cpp **** 
 1921              		.loc 1 456 5 view .LVU557
 1922              		.cfi_endproc
 1923              	.LFE3165:
 1925 0052 00BF     		.section	.text._ZN3oam12time_machine19TimeMachineHardware14AudioBlockSizeEv,"ax",%progbits
 1926              		.align	1
 1927              		.p2align 2,,3
 1928              		.global	_ZN3oam12time_machine19TimeMachineHardware14AudioBlockSizeEv
 1929              		.syntax unified
 1930              		.thumb
 1931              		.thumb_func
 1933              	_ZN3oam12time_machine19TimeMachineHardware14AudioBlockSizeEv:
 1934              	.LVL135:
 1935              	.LFB3166:
 459:time_machine_hardware.cpp ****         return audio.GetConfig().blocksize;
 1936              		.loc 1 459 5 is_stmt 1 view -0
 1937              		.cfi_startproc
 1938              		@ args = 0, pretend = 0, frame = 0
 1939              		@ frame_needed = 0, uses_anonymous_args = 0
 460:time_machine_hardware.cpp ****     }
 1940              		.loc 1 460 9 view .LVU559
 459:time_machine_hardware.cpp ****         return audio.GetConfig().blocksize;
ARM GAS  /var/folders/xd/16jvbr6j24q9nvtpm0qtw3240000gn/T//cch9jPA2.s 			page 63


 1941              		.loc 1 459 5 is_stmt 0 view .LVU560
 1942 0000 08B5     		push	{r3, lr}
 1943              		.cfi_def_cfa_offset 8
 1944              		.cfi_offset 3, -8
 1945              		.cfi_offset 14, -4
 460:time_machine_hardware.cpp ****     }
 1946              		.loc 1 460 32 view .LVU561
 1947 0002 1030     		adds	r0, r0, #16
 1948              	.LVL136:
 460:time_machine_hardware.cpp ****     }
 1949              		.loc 1 460 32 view .LVU562
 1950 0004 FFF7FEFF 		bl	_ZNK5daisy11AudioHandle9GetConfigEv
 1951              	.LVL137:
 461:time_machine_hardware.cpp **** 
 1952              		.loc 1 461 5 view .LVU563
 1953 0008 0068     		ldr	r0, [r0]
 1954 000a 08BD     		pop	{r3, pc}
 1955              		.cfi_endproc
 1956              	.LFE3166:
 1958              		.section	.text._ZN3oam12time_machine19TimeMachineHardware15AudioSampleRateEv,"ax",%progbits
 1959              		.align	1
 1960              		.p2align 2,,3
 1961              		.global	_ZN3oam12time_machine19TimeMachineHardware15AudioSampleRateEv
 1962              		.syntax unified
 1963              		.thumb
 1964              		.thumb_func
 1966              	_ZN3oam12time_machine19TimeMachineHardware15AudioSampleRateEv:
 1967              	.LVL138:
 1968              	.LFB3167:
 463:time_machine_hardware.cpp **** 
 1969              		.loc 1 463 50 is_stmt 1 view -0
 1970              		.cfi_startproc
 1971              		@ args = 0, pretend = 0, frame = 0
 1972              		@ frame_needed = 0, uses_anonymous_args = 0
 1973              		@ link register save eliminated.
 463:time_machine_hardware.cpp **** 
 1974              		.loc 1 463 52 view .LVU565
 463:time_machine_hardware.cpp **** 
 1975              		.loc 1 463 78 is_stmt 0 view .LVU566
 1976 0000 1030     		adds	r0, r0, #16
 1977              	.LVL139:
 463:time_machine_hardware.cpp **** 
 1978              		.loc 1 463 78 view .LVU567
 1979 0002 FFF7FEBF 		b	_ZN5daisy11AudioHandle13GetSampleRateEv
 1980              	.LVL140:
 463:time_machine_hardware.cpp **** 
 1981              		.loc 1 463 78 view .LVU568
 1982              		.cfi_endproc
 1983              	.LFE3167:
 1985 0006 00BF     		.section	.text._ZN3oam12time_machine19TimeMachineHardware17AudioCallbackRateEv,"ax",%progbits
 1986              		.align	1
 1987              		.p2align 2,,3
 1988              		.global	_ZN3oam12time_machine19TimeMachineHardware17AudioCallbackRateEv
 1989              		.syntax unified
 1990              		.thumb
 1991              		.thumb_func
 1993              	_ZN3oam12time_machine19TimeMachineHardware17AudioCallbackRateEv:
ARM GAS  /var/folders/xd/16jvbr6j24q9nvtpm0qtw3240000gn/T//cch9jPA2.s 			page 64


 1994              	.LVL141:
 1995              	.LFB3168:
 465:time_machine_hardware.cpp **** 
 1996              		.loc 1 465 52 is_stmt 1 view -0
 1997              		.cfi_startproc
 1998              		@ args = 0, pretend = 0, frame = 0
 1999              		@ frame_needed = 0, uses_anonymous_args = 0
 2000              		@ link register save eliminated.
 465:time_machine_hardware.cpp **** 
 2001              		.loc 1 465 54 view .LVU570
 465:time_machine_hardware.cpp **** 
 2002              		.loc 1 465 77 is_stmt 0 view .LVU571
 2003 0000 90ED860A 		vldr.32	s0, [r0, #536]
 2004 0004 7047     		bx	lr
 2005              		.cfi_endproc
 2006              	.LFE3168:
 2008 0006 00BF     		.section	.text._ZN3oam12time_machine19TimeMachineHardware8StartAdcEv,"ax",%progbits
 2009              		.align	1
 2010              		.p2align 2,,3
 2011              		.global	_ZN3oam12time_machine19TimeMachineHardware8StartAdcEv
 2012              		.syntax unified
 2013              		.thumb
 2014              		.thumb_func
 2016              	_ZN3oam12time_machine19TimeMachineHardware8StartAdcEv:
 2017              	.LVL142:
 2018              	.LFB3169:
 467:time_machine_hardware.cpp **** 
 2019              		.loc 1 467 42 is_stmt 1 view -0
 2020              		.cfi_startproc
 2021              		@ args = 0, pretend = 0, frame = 0
 2022              		@ frame_needed = 0, uses_anonymous_args = 0
 2023              		@ link register save eliminated.
 467:time_machine_hardware.cpp **** 
 2024              		.loc 1 467 44 view .LVU573
 467:time_machine_hardware.cpp **** 
 2025              		.loc 1 467 53 is_stmt 0 view .LVU574
 2026 0000 1430     		adds	r0, r0, #20
 2027              	.LVL143:
 467:time_machine_hardware.cpp **** 
 2028              		.loc 1 467 53 view .LVU575
 2029 0002 FFF7FEBF 		b	_ZN5daisy9AdcHandle5StartEv
 2030              	.LVL144:
 467:time_machine_hardware.cpp **** 
 2031              		.loc 1 467 53 view .LVU576
 2032              		.cfi_endproc
 2033              	.LFE3169:
 2035 0006 00BF     		.section	.text._ZN3oam12time_machine19TimeMachineHardware7StopAdcEv,"ax",%progbits
 2036              		.align	1
 2037              		.p2align 2,,3
 2038              		.global	_ZN3oam12time_machine19TimeMachineHardware7StopAdcEv
 2039              		.syntax unified
 2040              		.thumb
 2041              		.thumb_func
 2043              	_ZN3oam12time_machine19TimeMachineHardware7StopAdcEv:
 2044              	.LVL145:
 2045              	.LFB3170:
 469:time_machine_hardware.cpp **** 
ARM GAS  /var/folders/xd/16jvbr6j24q9nvtpm0qtw3240000gn/T//cch9jPA2.s 			page 65


 2046              		.loc 1 469 41 is_stmt 1 view -0
 2047              		.cfi_startproc
 2048              		@ args = 0, pretend = 0, frame = 0
 2049              		@ frame_needed = 0, uses_anonymous_args = 0
 2050              		@ link register save eliminated.
 469:time_machine_hardware.cpp **** 
 2051              		.loc 1 469 43 view .LVU578
 469:time_machine_hardware.cpp **** 
 2052              		.loc 1 469 51 is_stmt 0 view .LVU579
 2053 0000 1430     		adds	r0, r0, #20
 2054              	.LVL146:
 469:time_machine_hardware.cpp **** 
 2055              		.loc 1 469 51 view .LVU580
 2056 0002 FFF7FEBF 		b	_ZN5daisy9AdcHandle4StopEv
 2057              	.LVL147:
 469:time_machine_hardware.cpp **** 
 2058              		.loc 1 469 51 view .LVU581
 2059              		.cfi_endproc
 2060              	.LFE3170:
 2062 0006 00BF     		.section	.text._ZN3oam12time_machine19TimeMachineHardware21ProcessAnalogControlsEv,"ax",%progbits
 2063              		.align	1
 2064              		.p2align 2,,3
 2065              		.global	_ZN3oam12time_machine19TimeMachineHardware21ProcessAnalogControlsEv
 2066              		.syntax unified
 2067              		.thumb
 2068              		.thumb_func
 2070              	_ZN3oam12time_machine19TimeMachineHardware21ProcessAnalogControlsEv:
 2071              	.LVL148:
 2072              	.LFB3171:
 472:time_machine_hardware.cpp ****         for (int i = 0; i < ADC_LAST; i++)
 2073              		.loc 1 472 5 is_stmt 1 view -0
 2074              		.cfi_startproc
 2075              		@ args = 0, pretend = 0, frame = 0
 2076              		@ frame_needed = 0, uses_anonymous_args = 0
 473:time_machine_hardware.cpp ****         {
 2077              		.loc 1 473 9 view .LVU583
 2078              	.LBB748:
 473:time_machine_hardware.cpp ****         {
 2079              		.loc 1 473 27 view .LVU584
 2080              	.LBE748:
 472:time_machine_hardware.cpp ****         for (int i = 0; i < ADC_LAST; i++)
 2081              		.loc 1 472 5 is_stmt 0 view .LVU585
 2082 0000 38B5     		push	{r3, r4, r5, lr}
 2083              		.cfi_def_cfa_offset 16
 2084              		.cfi_offset 3, -16
 2085              		.cfi_offset 4, -12
 2086              		.cfi_offset 5, -8
 2087              		.cfi_offset 14, -4
 2088 0002 00F14004 		add	r4, r0, #64
 2089 0006 00F5E075 		add	r5, r0, #448
 2090              	.LVL149:
 2091              	.L101:
 2092              	.LBB749:
 475:time_machine_hardware.cpp ****         }
 2093              		.loc 1 475 13 is_stmt 1 discriminator 2 view .LVU586
 475:time_machine_hardware.cpp ****         }
 2094              		.loc 1 475 32 is_stmt 0 discriminator 2 view .LVU587
ARM GAS  /var/folders/xd/16jvbr6j24q9nvtpm0qtw3240000gn/T//cch9jPA2.s 			page 66


 2095 000a 2046     		mov	r0, r4
 473:time_machine_hardware.cpp ****         {
 2096              		.loc 1 473 27 discriminator 2 view .LVU588
 2097 000c 2034     		adds	r4, r4, #32
 475:time_machine_hardware.cpp ****         }
 2098              		.loc 1 475 32 discriminator 2 view .LVU589
 2099 000e FFF7FEFF 		bl	_ZN5daisy13AnalogControl7ProcessEv
 2100              	.LVL150:
 473:time_machine_hardware.cpp ****         {
 2101              		.loc 1 473 9 is_stmt 1 discriminator 2 view .LVU590
 473:time_machine_hardware.cpp ****         {
 2102              		.loc 1 473 27 discriminator 2 view .LVU591
 2103 0012 AC42     		cmp	r4, r5
 2104 0014 F9D1     		bne	.L101
 2105              	.LBE749:
 477:time_machine_hardware.cpp **** 
 2106              		.loc 1 477 5 is_stmt 0 view .LVU592
 2107 0016 38BD     		pop	{r3, r4, r5, pc}
 477:time_machine_hardware.cpp **** 
 2108              		.loc 1 477 5 view .LVU593
 2109              		.cfi_endproc
 2110              	.LFE3171:
 2112              		.section	.text._ZN3oam12time_machine19TimeMachineHardware22ProcessDigitalControlsEv,"ax",%progbits
 2113              		.align	1
 2114              		.p2align 2,,3
 2115              		.global	_ZN3oam12time_machine19TimeMachineHardware22ProcessDigitalControlsEv
 2116              		.syntax unified
 2117              		.thumb
 2118              		.thumb_func
 2120              	_ZN3oam12time_machine19TimeMachineHardware22ProcessDigitalControlsEv:
 2121              	.LVL151:
 2122              	.LFB3172:
 479:time_machine_hardware.cpp **** 
 2123              		.loc 1 479 56 is_stmt 1 view -0
 2124              		.cfi_startproc
 2125              		@ args = 0, pretend = 0, frame = 0
 2126              		@ frame_needed = 0, uses_anonymous_args = 0
 2127              		@ link register save eliminated.
 479:time_machine_hardware.cpp **** 
 2128              		.loc 1 479 57 is_stmt 0 view .LVU595
 2129 0000 7047     		bx	lr
 2130              		.cfi_endproc
 2131              	.LFE3172:
 2133 0002 00BF     		.section	.text._ZN3oam12time_machine19TimeMachineHardware11GetAdcValueEi,"ax",%progbits
 2134              		.align	1
 2135              		.p2align 2,,3
 2136              		.global	_ZN3oam12time_machine19TimeMachineHardware11GetAdcValueEi
 2137              		.syntax unified
 2138              		.thumb
 2139              		.thumb_func
 2141              	_ZN3oam12time_machine19TimeMachineHardware11GetAdcValueEi:
 2142              	.LVL152:
 2143              	.LFB3173:
 481:time_machine_hardware.cpp **** 
 2144              		.loc 1 481 53 is_stmt 1 view -0
 2145              		.cfi_startproc
 2146              		@ args = 0, pretend = 0, frame = 0
ARM GAS  /var/folders/xd/16jvbr6j24q9nvtpm0qtw3240000gn/T//cch9jPA2.s 			page 67


 2147              		@ frame_needed = 0, uses_anonymous_args = 0
 2148              		@ link register save eliminated.
 481:time_machine_hardware.cpp **** 
 2149              		.loc 1 481 55 view .LVU597
 2150              	.LBB750:
 2151              	.LBI750:
 2152              		.file 9 "/Users/jonask/Music/Daisy/libDaisy/src/hid/ctrl.h"
   1:/Users/jonask/Music/Daisy/libDaisy/src/hid/ctrl.h **** #pragma once
   2:/Users/jonask/Music/Daisy/libDaisy/src/hid/ctrl.h **** #ifndef DSY_KNOB_H
   3:/Users/jonask/Music/Daisy/libDaisy/src/hid/ctrl.h **** #define DSY_KNOB_H /**< & */
   4:/Users/jonask/Music/Daisy/libDaisy/src/hid/ctrl.h **** #include <stdint.h>
   5:/Users/jonask/Music/Daisy/libDaisy/src/hid/ctrl.h **** 
   6:/Users/jonask/Music/Daisy/libDaisy/src/hid/ctrl.h **** #ifdef __cplusplus
   7:/Users/jonask/Music/Daisy/libDaisy/src/hid/ctrl.h **** namespace daisy
   8:/Users/jonask/Music/Daisy/libDaisy/src/hid/ctrl.h **** {
   9:/Users/jonask/Music/Daisy/libDaisy/src/hid/ctrl.h **** /**
  10:/Users/jonask/Music/Daisy/libDaisy/src/hid/ctrl.h ****     @brief Hardware Interface for control inputs \n
  11:/Users/jonask/Music/Daisy/libDaisy/src/hid/ctrl.h ****     Primarily designed for ADC input controls such as \n
  12:/Users/jonask/Music/Daisy/libDaisy/src/hid/ctrl.h ****     potentiometers, and control voltage. \n
  13:/Users/jonask/Music/Daisy/libDaisy/src/hid/ctrl.h ****     @author Stephen Hensley
  14:/Users/jonask/Music/Daisy/libDaisy/src/hid/ctrl.h ****     @date November 2019
  15:/Users/jonask/Music/Daisy/libDaisy/src/hid/ctrl.h ****     @ingroup controls
  16:/Users/jonask/Music/Daisy/libDaisy/src/hid/ctrl.h **** */
  17:/Users/jonask/Music/Daisy/libDaisy/src/hid/ctrl.h **** class AnalogControl
  18:/Users/jonask/Music/Daisy/libDaisy/src/hid/ctrl.h **** {
  19:/Users/jonask/Music/Daisy/libDaisy/src/hid/ctrl.h ****   public:
  20:/Users/jonask/Music/Daisy/libDaisy/src/hid/ctrl.h ****     /** Constructor */
  21:/Users/jonask/Music/Daisy/libDaisy/src/hid/ctrl.h ****     AnalogControl() {}
  22:/Users/jonask/Music/Daisy/libDaisy/src/hid/ctrl.h ****     /** destructor */
  23:/Users/jonask/Music/Daisy/libDaisy/src/hid/ctrl.h ****     ~AnalogControl() {}
  24:/Users/jonask/Music/Daisy/libDaisy/src/hid/ctrl.h **** 
  25:/Users/jonask/Music/Daisy/libDaisy/src/hid/ctrl.h ****     /**
  26:/Users/jonask/Music/Daisy/libDaisy/src/hid/ctrl.h ****     Initializes the control
  27:/Users/jonask/Music/Daisy/libDaisy/src/hid/ctrl.h ****     \param *adcptr is a pointer to the raw adc read value -- This can be acquired with dsy_adc_get_
  28:/Users/jonask/Music/Daisy/libDaisy/src/hid/ctrl.h ****     \param sr is the samplerate in Hz that the Process function will be called at.
  29:/Users/jonask/Music/Daisy/libDaisy/src/hid/ctrl.h ****     \param flip determines whether the input is flipped (i.e. 1.f - input) or not before being proc
  30:/Users/jonask/Music/Daisy/libDaisy/src/hid/ctrl.h ****     \param invert determines whether the input is inverted (i.e. -1.f * input) or note before being
  31:/Users/jonask/Music/Daisy/libDaisy/src/hid/ctrl.h ****     \param slew_seconds is the slew time in seconds that it takes for the control to change to a ne
  32:/Users/jonask/Music/Daisy/libDaisy/src/hid/ctrl.h ****     */
  33:/Users/jonask/Music/Daisy/libDaisy/src/hid/ctrl.h ****     void Init(uint16_t *adcptr,
  34:/Users/jonask/Music/Daisy/libDaisy/src/hid/ctrl.h ****               float     sr,
  35:/Users/jonask/Music/Daisy/libDaisy/src/hid/ctrl.h ****               bool      flip         = false,
  36:/Users/jonask/Music/Daisy/libDaisy/src/hid/ctrl.h ****               bool      invert       = false,
  37:/Users/jonask/Music/Daisy/libDaisy/src/hid/ctrl.h ****               float     slew_seconds = 0.002f);
  38:/Users/jonask/Music/Daisy/libDaisy/src/hid/ctrl.h **** 
  39:/Users/jonask/Music/Daisy/libDaisy/src/hid/ctrl.h ****     /**
  40:/Users/jonask/Music/Daisy/libDaisy/src/hid/ctrl.h ****     This Initializes the AnalogControl for a -5V to 5V inverted input
  41:/Users/jonask/Music/Daisy/libDaisy/src/hid/ctrl.h ****     All of the Init details are the same otherwise
  42:/Users/jonask/Music/Daisy/libDaisy/src/hid/ctrl.h ****     \param *adcptr Pointer to analog digital converter
  43:/Users/jonask/Music/Daisy/libDaisy/src/hid/ctrl.h ****     \param sr Audio engine sample rate
  44:/Users/jonask/Music/Daisy/libDaisy/src/hid/ctrl.h ****     */
  45:/Users/jonask/Music/Daisy/libDaisy/src/hid/ctrl.h ****     void InitBipolarCv(uint16_t *adcptr, float sr);
  46:/Users/jonask/Music/Daisy/libDaisy/src/hid/ctrl.h **** 
  47:/Users/jonask/Music/Daisy/libDaisy/src/hid/ctrl.h ****     /**
  48:/Users/jonask/Music/Daisy/libDaisy/src/hid/ctrl.h ****     Filters, and transforms a raw ADC read into a normalized range.
  49:/Users/jonask/Music/Daisy/libDaisy/src/hid/ctrl.h ****     this should be called at the rate of specified by samplerate at Init time.
  50:/Users/jonask/Music/Daisy/libDaisy/src/hid/ctrl.h ****     Default Initializations will return 0.0 -> 1.0
ARM GAS  /var/folders/xd/16jvbr6j24q9nvtpm0qtw3240000gn/T//cch9jPA2.s 			page 68


  51:/Users/jonask/Music/Daisy/libDaisy/src/hid/ctrl.h ****     Bi-polar CV inputs will return -1.0 -> 1.0
  52:/Users/jonask/Music/Daisy/libDaisy/src/hid/ctrl.h ****     */
  53:/Users/jonask/Music/Daisy/libDaisy/src/hid/ctrl.h ****     float Process();
  54:/Users/jonask/Music/Daisy/libDaisy/src/hid/ctrl.h **** 
  55:/Users/jonask/Music/Daisy/libDaisy/src/hid/ctrl.h ****     /** Returns the current stored value, without reprocessing */
  56:/Users/jonask/Music/Daisy/libDaisy/src/hid/ctrl.h ****     inline float Value() const { return val_; }
 2153              		.loc 9 56 18 view .LVU598
 2154              	.LBB751:
 2155              		.loc 9 56 34 view .LVU599
 2156              		.loc 9 56 41 is_stmt 0 view .LVU600
 2157 0000 00EB4111 		add	r1, r0, r1, lsl #5
 2158              	.LVL153:
 2159              		.loc 9 56 41 view .LVU601
 2160              	.LBE751:
 2161              	.LBE750:
 481:time_machine_hardware.cpp **** 
 2162              		.loc 1 481 85 view .LVU602
 2163 0004 91ED130A 		vldr.32	s0, [r1, #76]
 2164 0008 7047     		bx	lr
 2165              		.cfi_endproc
 2166              	.LFE3173:
 2168 000a 00BF     		.section	.text._ZN3oam12time_machine19TimeMachineHardware14GetLevelSliderEi,"ax",%progbits
 2169              		.align	1
 2170              		.p2align 2,,3
 2171              		.global	_ZN3oam12time_machine19TimeMachineHardware14GetLevelSliderEi
 2172              		.syntax unified
 2173              		.thumb
 2174              		.thumb_func
 2176              	_ZN3oam12time_machine19TimeMachineHardware14GetLevelSliderEi:
 2177              	.LVL154:
 2178              	.LFB3174:
 483:time_machine_hardware.cpp ****         const int muxMapping[] = {5, 7, 6, 4, 3, 0, 1, 2};
 2179              		.loc 1 483 56 is_stmt 1 view -0
 2180              		.cfi_startproc
 2181              		@ args = 0, pretend = 0, frame = 32
 2182              		@ frame_needed = 0, uses_anonymous_args = 0
 484:time_machine_hardware.cpp **** 
 2183              		.loc 1 484 9 view .LVU604
 483:time_machine_hardware.cpp ****         const int muxMapping[] = {5, 7, 6, 4, 3, 0, 1, 2};
 2184              		.loc 1 483 56 is_stmt 0 view .LVU605
 2185 0000 30B5     		push	{r4, r5, lr}
 2186              		.cfi_def_cfa_offset 12
 2187              		.cfi_offset 4, -12
 2188              		.cfi_offset 5, -8
 2189              		.cfi_offset 14, -4
 484:time_machine_hardware.cpp **** 
 2190              		.loc 1 484 19 view .LVU606
 2191 0002 154C     		ldr	r4, .L110
 483:time_machine_hardware.cpp ****         const int muxMapping[] = {5, 7, 6, 4, 3, 0, 1, 2};
 2192              		.loc 1 483 56 view .LVU607
 2193 0004 89B0     		sub	sp, sp, #36
 2194              		.cfi_def_cfa_offset 48
 483:time_machine_hardware.cpp ****         const int muxMapping[] = {5, 7, 6, 4, 3, 0, 1, 2};
 2195              		.loc 1 483 56 view .LVU608
 2196 0006 0546     		mov	r5, r0
 486:time_machine_hardware.cpp ****             return 1.0 - adc.GetMuxFloat(MISC_MUX, 3);
 2197              		.loc 1 486 9 view .LVU609
ARM GAS  /var/folders/xd/16jvbr6j24q9nvtpm0qtw3240000gn/T//cch9jPA2.s 			page 69


 2198 0008 8E46     		mov	lr, r1
 484:time_machine_hardware.cpp **** 
 2199              		.loc 1 484 19 view .LVU610
 2200 000a EC46     		mov	ip, sp
 2201 000c 0FCC     		ldmia	r4!, {r0, r1, r2, r3}
 2202              	.LVL155:
 484:time_machine_hardware.cpp **** 
 2203              		.loc 1 484 19 view .LVU611
 2204 000e ACE80F00 		stmia	ip!, {r0, r1, r2, r3}
 2205 0012 94E80F00 		ldm	r4, {r0, r1, r2, r3}
 2206 0016 8CE80F00 		stm	ip, {r0, r1, r2, r3}
 486:time_machine_hardware.cpp ****             return 1.0 - adc.GetMuxFloat(MISC_MUX, 3);
 2207              		.loc 1 486 9 is_stmt 1 view .LVU612
 2208 001a BEF1000F 		cmp	lr, #0
 2209 001e 0BD1     		bne	.L107
 487:time_machine_hardware.cpp ****         } else {
 2210              		.loc 1 487 13 view .LVU613
 487:time_machine_hardware.cpp ****         } else {
 2211              		.loc 1 487 41 is_stmt 0 view .LVU614
 2212 0020 0322     		movs	r2, #3
 2213 0022 0B21     		movs	r1, #11
 2214 0024 05F11400 		add	r0, r5, #20
 2215 0028 FFF7FEFF 		bl	_ZNK5daisy9AdcHandle11GetMuxFloatEhh
 2216              	.LVL156:
 487:time_machine_hardware.cpp ****         } else {
 2217              		.loc 1 487 41 view .LVU615
 2218 002c F7EE007A 		vmov.f32	s15, #1.0e+0
 2219 0030 37EEC00A 		vsub.f32	s0, s15, s0
 491:time_machine_hardware.cpp **** 
 2220              		.loc 1 491 5 view .LVU616
 2221 0034 09B0     		add	sp, sp, #36
 2222              		.cfi_remember_state
 2223              		.cfi_def_cfa_offset 12
 2224              		@ sp needed
 2225 0036 30BD     		pop	{r4, r5, pc}
 2226              	.LVL157:
 2227              	.L107:
 2228              		.cfi_restore_state
 489:time_machine_hardware.cpp ****         }
 2229              		.loc 1 489 13 is_stmt 1 view .LVU617
 489:time_machine_hardware.cpp ****         }
 2230              		.loc 1 489 71 is_stmt 0 view .LVU618
 2231 0038 08AB     		add	r3, sp, #32
 489:time_machine_hardware.cpp ****         }
 2232              		.loc 1 489 41 view .LVU619
 2233 003a 0A21     		movs	r1, #10
 2234 003c 05F11400 		add	r0, r5, #20
 489:time_machine_hardware.cpp ****         }
 2235              		.loc 1 489 71 view .LVU620
 2236 0040 03EB8E0E 		add	lr, r3, lr, lsl #2
 2237              	.LVL158:
 489:time_machine_hardware.cpp ****         }
 2238              		.loc 1 489 41 view .LVU621
 2239 0044 1EF8242C 		ldrb	r2, [lr, #-36]	@ zero_extendqisi2
 2240 0048 FFF7FEFF 		bl	_ZNK5daisy9AdcHandle11GetMuxFloatEhh
 2241              	.LVL159:
 2242 004c F7EE007A 		vmov.f32	s15, #1.0e+0
ARM GAS  /var/folders/xd/16jvbr6j24q9nvtpm0qtw3240000gn/T//cch9jPA2.s 			page 70


 2243 0050 37EEC00A 		vsub.f32	s0, s15, s0
 491:time_machine_hardware.cpp **** 
 2244              		.loc 1 491 5 view .LVU622
 2245 0054 09B0     		add	sp, sp, #36
 2246              		.cfi_def_cfa_offset 12
 2247              		@ sp needed
 2248 0056 30BD     		pop	{r4, r5, pc}
 2249              	.LVL160:
 2250              	.L111:
 491:time_machine_hardware.cpp **** 
 2251              		.loc 1 491 5 view .LVU623
 2252              		.align	2
 2253              	.L110:
 2254 0058 28000000 		.word	.LANCHOR1+40
 2255              		.cfi_endproc
 2256              	.LFE3174:
 2258              		.section	.text._ZN3oam12time_machine19TimeMachineHardware10GetLevelCVEi,"ax",%progbits
 2259              		.align	1
 2260              		.p2align 2,,3
 2261              		.global	_ZN3oam12time_machine19TimeMachineHardware10GetLevelCVEi
 2262              		.syntax unified
 2263              		.thumb
 2264              		.thumb_func
 2266              	_ZN3oam12time_machine19TimeMachineHardware10GetLevelCVEi:
 2267              	.LVL161:
 2268              	.LFB3175:
 493:time_machine_hardware.cpp ****         const int muxMapping[] = {3, 2, 1, 0, 4, 5, 6, 7};
 2269              		.loc 1 493 52 is_stmt 1 view -0
 2270              		.cfi_startproc
 2271              		@ args = 0, pretend = 0, frame = 32
 2272              		@ frame_needed = 0, uses_anonymous_args = 0
 494:time_machine_hardware.cpp **** 
 2273              		.loc 1 494 9 view .LVU625
 493:time_machine_hardware.cpp ****         const int muxMapping[] = {3, 2, 1, 0, 4, 5, 6, 7};
 2274              		.loc 1 493 52 is_stmt 0 view .LVU626
 2275 0000 30B5     		push	{r4, r5, lr}
 2276              		.cfi_def_cfa_offset 12
 2277              		.cfi_offset 4, -12
 2278              		.cfi_offset 5, -8
 2279              		.cfi_offset 14, -4
 494:time_machine_hardware.cpp **** 
 2280              		.loc 1 494 19 view .LVU627
 2281 0002 164C     		ldr	r4, .L116
 493:time_machine_hardware.cpp ****         const int muxMapping[] = {3, 2, 1, 0, 4, 5, 6, 7};
 2282              		.loc 1 493 52 view .LVU628
 2283 0004 89B0     		sub	sp, sp, #36
 2284              		.cfi_def_cfa_offset 48
 493:time_machine_hardware.cpp ****         const int muxMapping[] = {3, 2, 1, 0, 4, 5, 6, 7};
 2285              		.loc 1 493 52 view .LVU629
 2286 0006 0546     		mov	r5, r0
 496:time_machine_hardware.cpp ****         {
 2287              		.loc 1 496 9 view .LVU630
 2288 0008 8E46     		mov	lr, r1
 494:time_machine_hardware.cpp **** 
 2289              		.loc 1 494 19 view .LVU631
 2290 000a EC46     		mov	ip, sp
 2291 000c 0FCC     		ldmia	r4!, {r0, r1, r2, r3}
ARM GAS  /var/folders/xd/16jvbr6j24q9nvtpm0qtw3240000gn/T//cch9jPA2.s 			page 71


 2292              	.LVL162:
 494:time_machine_hardware.cpp **** 
 2293              		.loc 1 494 19 view .LVU632
 2294 000e ACE80F00 		stmia	ip!, {r0, r1, r2, r3}
 2295 0012 94E80F00 		ldm	r4, {r0, r1, r2, r3}
 2296 0016 8CE80F00 		stm	ip, {r0, r1, r2, r3}
 496:time_machine_hardware.cpp ****         {
 2297              		.loc 1 496 9 is_stmt 1 view .LVU633
 2298 001a BEF1000F 		cmp	lr, #0
 2299 001e 03D1     		bne	.L113
 498:time_machine_hardware.cpp ****         }
 2300              		.loc 1 498 13 view .LVU634
 2301              	.LVL163:
 2302              	.LBB752:
 2303              	.LBI752:
 481:time_machine_hardware.cpp **** 
 2304              		.loc 1 481 11 view .LVU635
 2305              	.LBE752:
 481:time_machine_hardware.cpp **** 
 2306              		.loc 1 481 55 view .LVU636
 2307              	.LBB755:
 2308              	.LBB753:
 2309              	.LBI753:
 2310              		.loc 9 56 18 view .LVU637
 2311              	.LBB754:
 2312              		.loc 9 56 34 view .LVU638
 2313              		.loc 9 56 41 is_stmt 0 view .LVU639
 2314 0020 95ED1B0A 		vldr.32	s0, [r5, #108]
 2315              	.LVL164:
 2316              		.loc 9 56 41 view .LVU640
 2317              	.LBE754:
 2318              	.LBE753:
 2319              	.LBE755:
 504:time_machine_hardware.cpp **** 
 2320              		.loc 1 504 5 view .LVU641
 2321 0024 09B0     		add	sp, sp, #36
 2322              		.cfi_remember_state
 2323              		.cfi_def_cfa_offset 12
 2324              		@ sp needed
 2325 0026 30BD     		pop	{r4, r5, pc}
 2326              	.LVL165:
 2327              	.L113:
 2328              		.cfi_restore_state
 502:time_machine_hardware.cpp ****         }
 2329              		.loc 1 502 13 is_stmt 1 view .LVU642
 502:time_machine_hardware.cpp ****         }
 2330              		.loc 1 502 76 is_stmt 0 view .LVU643
 2331 0028 08AB     		add	r3, sp, #32
 502:time_machine_hardware.cpp ****         }
 2332              		.loc 1 502 43 view .LVU644
 2333 002a 0021     		movs	r1, #0
 2334 002c 05F11400 		add	r0, r5, #20
 502:time_machine_hardware.cpp ****         }
 2335              		.loc 1 502 76 view .LVU645
 2336 0030 03EB8E0E 		add	lr, r3, lr, lsl #2
 2337              	.LVL166:
 502:time_machine_hardware.cpp ****         }
ARM GAS  /var/folders/xd/16jvbr6j24q9nvtpm0qtw3240000gn/T//cch9jPA2.s 			page 72


 2338              		.loc 1 502 43 view .LVU646
 2339 0034 1EF8242C 		ldrb	r2, [lr, #-36]	@ zero_extendqisi2
 2340 0038 FFF7FEFF 		bl	_ZNK5daisy9AdcHandle11GetMuxFloatEhh
 2341              	.LVL167:
 502:time_machine_hardware.cpp ****         }
 2342              		.loc 1 502 26 view .LVU647
 2343 003c B7EE007B 		vmov.f64	d7, #1.0e+0
 502:time_machine_hardware.cpp ****         }
 2344              		.loc 1 502 43 view .LVU648
 2345 0040 B7EEC06A 		vcvt.f64.f32	d6, s0
 502:time_machine_hardware.cpp ****         }
 2346              		.loc 1 502 87 view .LVU649
 2347 0044 B0EE005B 		vmov.f64	d5, #2.0e+0
 2348 0048 BFEE000B 		vmov.f64	d0, #-1.0e+0
 502:time_machine_hardware.cpp ****         }
 2349              		.loc 1 502 26 view .LVU650
 2350 004c 37EE467B 		vsub.f64	d7, d7, d6
 502:time_machine_hardware.cpp ****         }
 2351              		.loc 1 502 87 view .LVU651
 2352 0050 A7EE050B 		vfma.f64	d0, d7, d5
 502:time_machine_hardware.cpp ****         }
 2353              		.loc 1 502 89 view .LVU652
 2354 0054 B7EEC00B 		vcvt.f32.f64	s0, d0
 504:time_machine_hardware.cpp **** 
 2355              		.loc 1 504 5 view .LVU653
 2356 0058 09B0     		add	sp, sp, #36
 2357              		.cfi_def_cfa_offset 12
 2358              		@ sp needed
 2359 005a 30BD     		pop	{r4, r5, pc}
 2360              	.LVL168:
 2361              	.L117:
 504:time_machine_hardware.cpp **** 
 2362              		.loc 1 504 5 view .LVU654
 2363              		.align	2
 2364              	.L116:
 2365 005c 48000000 		.word	.LANCHOR1+72
 2366              		.cfi_endproc
 2367              	.LFE3175:
 2369              		.section	.text._ZN3oam12time_machine19TimeMachineHardware10GetPanKnobEi,"ax",%progbits
 2370              		.align	1
 2371              		.p2align 2,,3
 2372              		.global	_ZN3oam12time_machine19TimeMachineHardware10GetPanKnobEi
 2373              		.syntax unified
 2374              		.thumb
 2375              		.thumb_func
 2377              	_ZN3oam12time_machine19TimeMachineHardware10GetPanKnobEi:
 2378              	.LVL169:
 2379              	.LFB3176:
 506:time_machine_hardware.cpp ****         const int muxMapping[] = {5, 7, 6, 4, 1, 2, 0, 3};
 2380              		.loc 1 506 52 is_stmt 1 view -0
 2381              		.cfi_startproc
 2382              		@ args = 0, pretend = 0, frame = 32
 2383              		@ frame_needed = 0, uses_anonymous_args = 0
 507:time_machine_hardware.cpp **** 
 2384              		.loc 1 507 9 view .LVU656
 506:time_machine_hardware.cpp ****         const int muxMapping[] = {5, 7, 6, 4, 1, 2, 0, 3};
 2385              		.loc 1 506 52 is_stmt 0 view .LVU657
ARM GAS  /var/folders/xd/16jvbr6j24q9nvtpm0qtw3240000gn/T//cch9jPA2.s 			page 73


 2386 0000 30B5     		push	{r4, r5, lr}
 2387              		.cfi_def_cfa_offset 12
 2388              		.cfi_offset 4, -12
 2389              		.cfi_offset 5, -8
 2390              		.cfi_offset 14, -4
 507:time_machine_hardware.cpp **** 
 2391              		.loc 1 507 19 view .LVU658
 2392 0002 154C     		ldr	r4, .L122
 506:time_machine_hardware.cpp ****         const int muxMapping[] = {5, 7, 6, 4, 1, 2, 0, 3};
 2393              		.loc 1 506 52 view .LVU659
 2394 0004 89B0     		sub	sp, sp, #36
 2395              		.cfi_def_cfa_offset 48
 506:time_machine_hardware.cpp ****         const int muxMapping[] = {5, 7, 6, 4, 1, 2, 0, 3};
 2396              		.loc 1 506 52 view .LVU660
 2397 0006 0546     		mov	r5, r0
 510:time_machine_hardware.cpp ****         {
 2398              		.loc 1 510 9 view .LVU661
 2399 0008 8E46     		mov	lr, r1
 507:time_machine_hardware.cpp **** 
 2400              		.loc 1 507 19 view .LVU662
 2401 000a EC46     		mov	ip, sp
 2402 000c 0FCC     		ldmia	r4!, {r0, r1, r2, r3}
 2403              	.LVL170:
 507:time_machine_hardware.cpp **** 
 2404              		.loc 1 507 19 view .LVU663
 2405 000e ACE80F00 		stmia	ip!, {r0, r1, r2, r3}
 2406 0012 94E80F00 		ldm	r4, {r0, r1, r2, r3}
 2407 0016 8CE80F00 		stm	ip, {r0, r1, r2, r3}
 510:time_machine_hardware.cpp ****         {
 2408              		.loc 1 510 9 is_stmt 1 view .LVU664
 2409 001a BEF1000F 		cmp	lr, #0
 2410 001e 0BD1     		bne	.L119
 512:time_machine_hardware.cpp ****         }
 2411              		.loc 1 512 13 view .LVU665
 512:time_machine_hardware.cpp ****         }
 2412              		.loc 1 512 41 is_stmt 0 view .LVU666
 2413 0020 0622     		movs	r2, #6
 2414 0022 0B21     		movs	r1, #11
 2415 0024 05F11400 		add	r0, r5, #20
 2416 0028 FFF7FEFF 		bl	_ZNK5daisy9AdcHandle11GetMuxFloatEhh
 2417              	.LVL171:
 512:time_machine_hardware.cpp ****         }
 2418              		.loc 1 512 41 view .LVU667
 2419 002c F7EE007A 		vmov.f32	s15, #1.0e+0
 2420 0030 37EEC00A 		vsub.f32	s0, s15, s0
 518:time_machine_hardware.cpp **** 
 2421              		.loc 1 518 5 view .LVU668
 2422 0034 09B0     		add	sp, sp, #36
 2423              		.cfi_remember_state
 2424              		.cfi_def_cfa_offset 12
 2425              		@ sp needed
 2426 0036 30BD     		pop	{r4, r5, pc}
 2427              	.LVL172:
 2428              	.L119:
 2429              		.cfi_restore_state
 516:time_machine_hardware.cpp ****         }
 2430              		.loc 1 516 13 is_stmt 1 view .LVU669
ARM GAS  /var/folders/xd/16jvbr6j24q9nvtpm0qtw3240000gn/T//cch9jPA2.s 			page 74


 516:time_machine_hardware.cpp ****         }
 2431              		.loc 1 516 69 is_stmt 0 view .LVU670
 2432 0038 08AB     		add	r3, sp, #32
 516:time_machine_hardware.cpp ****         }
 2433              		.loc 1 516 41 view .LVU671
 2434 003a 0921     		movs	r1, #9
 2435 003c 05F11400 		add	r0, r5, #20
 516:time_machine_hardware.cpp ****         }
 2436              		.loc 1 516 69 view .LVU672
 2437 0040 03EB8E0E 		add	lr, r3, lr, lsl #2
 2438              	.LVL173:
 516:time_machine_hardware.cpp ****         }
 2439              		.loc 1 516 41 view .LVU673
 2440 0044 1EF8242C 		ldrb	r2, [lr, #-36]	@ zero_extendqisi2
 2441 0048 FFF7FEFF 		bl	_ZNK5daisy9AdcHandle11GetMuxFloatEhh
 2442              	.LVL174:
 2443 004c F7EE007A 		vmov.f32	s15, #1.0e+0
 2444 0050 37EEC00A 		vsub.f32	s0, s15, s0
 518:time_machine_hardware.cpp **** 
 2445              		.loc 1 518 5 view .LVU674
 2446 0054 09B0     		add	sp, sp, #36
 2447              		.cfi_def_cfa_offset 12
 2448              		@ sp needed
 2449 0056 30BD     		pop	{r4, r5, pc}
 2450              	.LVL175:
 2451              	.L123:
 518:time_machine_hardware.cpp **** 
 2452              		.loc 1 518 5 view .LVU675
 2453              		.align	2
 2454              	.L122:
 2455 0058 68000000 		.word	.LANCHOR1+104
 2456              		.cfi_endproc
 2457              	.LFE3176:
 2459              		.section	.text._ZN3oam12time_machine19TimeMachineHardware13GetSpreadKnobEv,"ax",%progbits
 2460              		.align	1
 2461              		.p2align 2,,3
 2462              		.global	_ZN3oam12time_machine19TimeMachineHardware13GetSpreadKnobEv
 2463              		.syntax unified
 2464              		.thumb
 2465              		.thumb_func
 2467              	_ZN3oam12time_machine19TimeMachineHardware13GetSpreadKnobEv:
 2468              	.LVL176:
 2469              	.LFB3177:
 521:time_machine_hardware.cpp ****         return adc.GetMuxFloat(MISC_MUX, 2);
 2470              		.loc 1 521 5 is_stmt 1 view -0
 2471              		.cfi_startproc
 2472              		@ args = 0, pretend = 0, frame = 0
 2473              		@ frame_needed = 0, uses_anonymous_args = 0
 2474              		@ link register save eliminated.
 522:time_machine_hardware.cpp ****     }
 2475              		.loc 1 522 9 view .LVU677
 522:time_machine_hardware.cpp ****     }
 2476              		.loc 1 522 31 is_stmt 0 view .LVU678
 2477 0000 0222     		movs	r2, #2
 2478 0002 0B21     		movs	r1, #11
 2479 0004 1430     		adds	r0, r0, #20
 2480              	.LVL177:
ARM GAS  /var/folders/xd/16jvbr6j24q9nvtpm0qtw3240000gn/T//cch9jPA2.s 			page 75


 522:time_machine_hardware.cpp ****     }
 2481              		.loc 1 522 31 view .LVU679
 2482 0006 FFF7FEBF 		b	_ZNK5daisy9AdcHandle11GetMuxFloatEhh
 2483              	.LVL178:
 522:time_machine_hardware.cpp ****     }
 2484              		.loc 1 522 31 view .LVU680
 2485              		.cfi_endproc
 2486              	.LFE3177:
 2488 000a 00BF     		.section	.text._ZN3oam12time_machine19TimeMachineHardware11GetTimeKnobEv,"ax",%progbits
 2489              		.align	1
 2490              		.p2align 2,,3
 2491              		.global	_ZN3oam12time_machine19TimeMachineHardware11GetTimeKnobEv
 2492              		.syntax unified
 2493              		.thumb
 2494              		.thumb_func
 2496              	_ZN3oam12time_machine19TimeMachineHardware11GetTimeKnobEv:
 2497              	.LVL179:
 2498              	.LFB3178:
 526:time_machine_hardware.cpp ****         return adc.GetMuxFloat(MISC_MUX, 4);
 2499              		.loc 1 526 5 is_stmt 1 view -0
 2500              		.cfi_startproc
 2501              		@ args = 0, pretend = 0, frame = 0
 2502              		@ frame_needed = 0, uses_anonymous_args = 0
 2503              		@ link register save eliminated.
 527:time_machine_hardware.cpp ****     }
 2504              		.loc 1 527 9 view .LVU682
 527:time_machine_hardware.cpp ****     }
 2505              		.loc 1 527 31 is_stmt 0 view .LVU683
 2506 0000 0422     		movs	r2, #4
 2507 0002 0B21     		movs	r1, #11
 2508 0004 1430     		adds	r0, r0, #20
 2509              	.LVL180:
 527:time_machine_hardware.cpp ****     }
 2510              		.loc 1 527 31 view .LVU684
 2511 0006 FFF7FEBF 		b	_ZNK5daisy9AdcHandle11GetMuxFloatEhh
 2512              	.LVL181:
 527:time_machine_hardware.cpp ****     }
 2513              		.loc 1 527 31 view .LVU685
 2514              		.cfi_endproc
 2515              	.LFE3178:
 2517 000a 00BF     		.section	.text._ZN3oam12time_machine19TimeMachineHardware15GetFeedbackKnobEv,"ax",%progbits
 2518              		.align	1
 2519              		.p2align 2,,3
 2520              		.global	_ZN3oam12time_machine19TimeMachineHardware15GetFeedbackKnobEv
 2521              		.syntax unified
 2522              		.thumb
 2523              		.thumb_func
 2525              	_ZN3oam12time_machine19TimeMachineHardware15GetFeedbackKnobEv:
 2526              	.LVL182:
 2527              	.LFB3179:
 531:time_machine_hardware.cpp ****         return adc.GetMuxFloat(MISC_MUX, 1);
 2528              		.loc 1 531 5 is_stmt 1 view -0
 2529              		.cfi_startproc
 2530              		@ args = 0, pretend = 0, frame = 0
 2531              		@ frame_needed = 0, uses_anonymous_args = 0
 2532              		@ link register save eliminated.
 532:time_machine_hardware.cpp ****     }
ARM GAS  /var/folders/xd/16jvbr6j24q9nvtpm0qtw3240000gn/T//cch9jPA2.s 			page 76


 2533              		.loc 1 532 9 view .LVU687
 532:time_machine_hardware.cpp ****     }
 2534              		.loc 1 532 31 is_stmt 0 view .LVU688
 2535 0000 0122     		movs	r2, #1
 2536 0002 0B21     		movs	r1, #11
 2537 0004 1430     		adds	r0, r0, #20
 2538              	.LVL183:
 532:time_machine_hardware.cpp ****     }
 2539              		.loc 1 532 31 view .LVU689
 2540 0006 FFF7FEBF 		b	_ZNK5daisy9AdcHandle11GetMuxFloatEhh
 2541              	.LVL184:
 532:time_machine_hardware.cpp ****     }
 2542              		.loc 1 532 31 view .LVU690
 2543              		.cfi_endproc
 2544              	.LFE3179:
 2546 000a 00BF     		.section	.text._ZN3oam12time_machine19TimeMachineHardware15GetHighpassKnobEv,"ax",%progbits
 2547              		.align	1
 2548              		.p2align 2,,3
 2549              		.global	_ZN3oam12time_machine19TimeMachineHardware15GetHighpassKnobEv
 2550              		.syntax unified
 2551              		.thumb
 2552              		.thumb_func
 2554              	_ZN3oam12time_machine19TimeMachineHardware15GetHighpassKnobEv:
 2555              	.LVL185:
 2556              	.LFB3180:
 536:time_machine_hardware.cpp ****         return adc.GetMuxFloat(MISC_MUX, 0);
 2557              		.loc 1 536 5 is_stmt 1 view -0
 2558              		.cfi_startproc
 2559              		@ args = 0, pretend = 0, frame = 0
 2560              		@ frame_needed = 0, uses_anonymous_args = 0
 2561              		@ link register save eliminated.
 537:time_machine_hardware.cpp ****     }
 2562              		.loc 1 537 9 view .LVU692
 537:time_machine_hardware.cpp ****     }
 2563              		.loc 1 537 31 is_stmt 0 view .LVU693
 2564 0000 0022     		movs	r2, #0
 2565 0002 0B21     		movs	r1, #11
 2566 0004 1430     		adds	r0, r0, #20
 2567              	.LVL186:
 537:time_machine_hardware.cpp ****     }
 2568              		.loc 1 537 31 view .LVU694
 2569 0006 FFF7FEBF 		b	_ZNK5daisy9AdcHandle11GetMuxFloatEhh
 2570              	.LVL187:
 537:time_machine_hardware.cpp ****     }
 2571              		.loc 1 537 31 view .LVU695
 2572              		.cfi_endproc
 2573              	.LFE3180:
 2575 000a 00BF     		.section	.text._ZN3oam12time_machine19TimeMachineHardware14GetLowpassKnobEv,"ax",%progbits
 2576              		.align	1
 2577              		.p2align 2,,3
 2578              		.global	_ZN3oam12time_machine19TimeMachineHardware14GetLowpassKnobEv
 2579              		.syntax unified
 2580              		.thumb
 2581              		.thumb_func
 2583              	_ZN3oam12time_machine19TimeMachineHardware14GetLowpassKnobEv:
 2584              	.LVL188:
 2585              	.LFB3181:
ARM GAS  /var/folders/xd/16jvbr6j24q9nvtpm0qtw3240000gn/T//cch9jPA2.s 			page 77


 541:time_machine_hardware.cpp ****         return adc.GetMuxFloat(MISC_MUX, 5);
 2586              		.loc 1 541 5 is_stmt 1 view -0
 2587              		.cfi_startproc
 2588              		@ args = 0, pretend = 0, frame = 0
 2589              		@ frame_needed = 0, uses_anonymous_args = 0
 2590              		@ link register save eliminated.
 542:time_machine_hardware.cpp ****     }
 2591              		.loc 1 542 9 view .LVU697
 542:time_machine_hardware.cpp ****     }
 2592              		.loc 1 542 31 is_stmt 0 view .LVU698
 2593 0000 0522     		movs	r2, #5
 2594 0002 0B21     		movs	r1, #11
 2595 0004 1430     		adds	r0, r0, #20
 2596              	.LVL189:
 542:time_machine_hardware.cpp ****     }
 2597              		.loc 1 542 31 view .LVU699
 2598 0006 FFF7FEBF 		b	_ZNK5daisy9AdcHandle11GetMuxFloatEhh
 2599              	.LVL190:
 542:time_machine_hardware.cpp ****     }
 2600              		.loc 1 542 31 view .LVU700
 2601              		.cfi_endproc
 2602              	.LFE3181:
 2604 000a 00BF     		.section	.text._ZN3oam12time_machine19TimeMachineHardware6GetPinENS1_7PinBankEi,"ax",%progbits
 2605              		.align	1
 2606              		.p2align 2,,3
 2607              		.global	_ZN3oam12time_machine19TimeMachineHardware6GetPinENS1_7PinBankEi
 2608              		.syntax unified
 2609              		.thumb
 2610              		.thumb_func
 2612              	_ZN3oam12time_machine19TimeMachineHardware6GetPinENS1_7PinBankEi:
 2613              	.LVL191:
 2614              	.LFB3182:
 546:time_machine_hardware.cpp ****         if(idx <= 0 || idx > 10)
 2615              		.loc 1 546 5 is_stmt 1 view -0
 2616              		.cfi_startproc
 2617              		@ args = 0, pretend = 0, frame = 8
 2618              		@ frame_needed = 0, uses_anonymous_args = 0
 2619              		@ link register save eliminated.
 547:time_machine_hardware.cpp ****         {
 2620              		.loc 1 547 9 view .LVU702
 547:time_machine_hardware.cpp ****         {
 2621              		.loc 1 547 21 is_stmt 0 view .LVU703
 2622 0000 013A     		subs	r2, r2, #1
 2623              	.LVL192:
 546:time_machine_hardware.cpp ****         if(idx <= 0 || idx > 10)
 2624              		.loc 1 546 5 view .LVU704
 2625 0002 82B0     		sub	sp, sp, #8
 2626              		.cfi_def_cfa_offset 8
 547:time_machine_hardware.cpp ****         {
 2627              		.loc 1 547 9 view .LVU705
 2628 0004 092A     		cmp	r2, #9
 2629 0006 10D9     		bls	.L130
 549:time_machine_hardware.cpp ****         }
 2630              		.loc 1 549 13 is_stmt 1 view .LVU706
 549:time_machine_hardware.cpp ****         }
 2631              		.loc 1 549 20 is_stmt 0 view .LVU707
 2632 0008 0B22     		movs	r2, #11
ARM GAS  /var/folders/xd/16jvbr6j24q9nvtpm0qtw3240000gn/T//cch9jPA2.s 			page 78


 2633              	.LVL193:
 549:time_machine_hardware.cpp ****         }
 2634              		.loc 1 549 20 view .LVU708
 2635 000a 0023     		movs	r3, #0
 2636 000c 8DF80420 		strb	r2, [sp, #4]
 2637 0010 8DF80530 		strb	r3, [sp, #5]
 2638              	.LVL194:
 2639              	.L131:
 555:time_machine_hardware.cpp **** 
 2640              		.loc 1 555 5 view .LVU709
 2641 0014 9DF80420 		ldrb	r2, [sp, #4]	@ zero_extendqisi2
 2642 0018 0020     		movs	r0, #0
 2643              	.LVL195:
 555:time_machine_hardware.cpp **** 
 2644              		.loc 1 555 5 view .LVU710
 2645 001a 9DF80530 		ldrb	r3, [sp, #5]	@ zero_extendqisi2
 2646 001e 62F30700 		bfi	r0, r2, #0, #8
 2647 0022 63F30F20 		bfi	r0, r3, #8, #8
 2648 0026 02B0     		add	sp, sp, #8
 2649              		.cfi_remember_state
 2650              		.cfi_def_cfa_offset 0
 2651              		@ sp needed
 2652 0028 7047     		bx	lr
 2653              	.LVL196:
 2654              	.L130:
 2655              		.cfi_restore_state
 553:time_machine_hardware.cpp ****         }
 2656              		.loc 1 553 13 is_stmt 1 view .LVU711
 553:time_machine_hardware.cpp ****         }
 2657              		.loc 1 553 59 is_stmt 0 view .LVU712
 2658 002a 01EB8101 		add	r1, r1, r1, lsl #2
 2659              	.LVL197:
 553:time_machine_hardware.cpp ****         }
 2660              		.loc 1 553 59 view .LVU713
 2661 002e 044B     		ldr	r3, .L133
 2662 0030 02EB4102 		add	r2, r2, r1, lsl #1
 2663 0034 33F81230 		ldrh	r3, [r3, r2, lsl #1]
